0x401e96: aad 0x89 ; mov byte [ebx-0x2800FB14], 0x85 ; div byte [esp+ecx-0x7B] ; sal byte [ebp+0x08], 0x8B ; inc ebx ; add al, 0x89 ; xor al, 0x24 ; call eax ;
0x401bc2: aam 0x50 ; inc eax ; add byte [ebp+0x048DBF04], cl ; or byte [ebx+0x74D28510], 0x1A ; mov  [esp+0x0C], esi ; mov  [esp+0x08], edx ; mov edx,  [eax+0x08] ; mov  [esp+0x04], edx ; mov eax,  [eax+0x04] ; mov  [esp+0x00], eax ; call ebx ;
0x40188a: aam 0x50 ; inc eax ; add byte [ecx+0x5389084B], cl ; add al, 0x89 ; pop esp ; and al, 0x0C ; mov  [esp+0x08], eax ; mov  [esp+0x04], ecx ; mov  [esp+0x00], edx ; call  [0x004061D4] ;
0x4024c3: aam 0x85 ; fstp tword [edi-0x18] ; mov ecx,  [eax+0x0C] ; pop ebx ; pop esi ; pop edi ; add ecx, 0x00400000 ; mov eax, ecx ; ret ;
0x401887: adc al, 0x03 ; sbb eax, 0x004050D4 ; mov  [ebx+0x08], ecx ; mov  [ebx+0x04], edx ; mov  [esp+0x0C], ebx ; mov  [esp+0x08], eax ; mov  [esp+0x04], ecx ; mov  [esp+0x00], edx ; call  [0x004061D4] ;
0x4018a1: adc al, 0x24 ; call  [0x004061D4] ;
0x401c6b: adc al, 0x24 ; call eax ;
0x40289a: adc al, 0x62 ; inc eax ; add byte [eax+0x1825FF90], dl ; bound eax,  [eax+0x00] ; nop ; nop ; jmp  [0x0040621C] ;
0x401c65: adc al, 0x8D ; push esp ; and al, 0x10 ; mov  [esp+0x00], edx ; call eax ;
0x40182b: adc al, 0xC7 ; inc esp ; and al, 0x08 ; sbb al, 0x00 ; add byte [eax], al ; mov  [esp+0x04], edx ; mov  [esp+0x00], eax ; call  [0x004061D8] ;
0x40140c: adc al, byte [eax] ; add byte [ebx-0x3FE6FE08], al ; add esp, 0x1C ; ret ;
0x40248d: adc al, byte [ebx-0x3D7CFE3A] ; sub byte [ecx], bh ; div  [ebp-0x18] ; xor ecx, ecx ; pop ebx ; pop esi ; mov eax, ecx ; pop edi ; ret ;
0x40172d: adc al, ch ; mov ebp, 0x8300000E ; les edx,  [ecx+esi-0x40] ; pop ebx ; pop esi ; ret ;
0x4015cf: adc byte [eax+0x00000001], bh ; add esp, 0x1C ; retn 0x000C ;
0x401386: adc byte [eax+0x40], dl ; add byte [ebp+0x5B59F065], cl ; pop esi ; pop edi ; pop ebp ; lea esp,  [ecx-0x04] ; ret ;
0x4014d0: adc byte [eax], al ; add byte [eax+0x00000000], bh ; leave ; ret ;
0x4024fd: adc byte [eax], al ; add byte [edi-0x15], dh ; sub ecx, eax ; or  [ecx], 0x00000000 ; pop eax ; pop ecx ; ret ;
0x4026e8: adc byte [ebp-0x74F58B25], al ; add ecx,  [ecx+0x31E82404] ; add al, byte [eax] ; add byte [ebx-0x3FCEE73C], al ; pop ebx ; ret ;
0x402688: adc byte [ebp-0x74F58B25], al ; add ecx,  [ecx-0x6E17DBFC] ; add al, byte [eax] ; add byte [ebx-0x3FCEE73C], al ; pop ebx ; ret ;
0x401beb: adc byte [ebx+0x3D3B01C7], al ; rcl byte [eax+0x40], 1 ; add byte [ecx+ecx*8-0x73], bh ; hlt ; pop ebx ; pop esi ; pop edi ; pop ebp ; ret ;
0x40185f: adc byte [ebx+0x4050D005], al ; add byte [ecx], al ; add esp, 0x30 ; pop ebx ; pop esi ; pop edi ; ret ;
0x401c59: adc byte [ebx-0x22BBDBAC], cl ; pop esp ; and al, 0x28 ; mov  [esp+0x14], edx ; lea edx,  [esp+0x10] ; mov  [esp+0x00], edx ; call eax ;
0x4026e2: adc byte [ebx-0x76D7DBBC], cl ; adc byte [ebp-0x74F58B25], al ; add ecx,  [ecx+0x31E82404] ; add al, byte [eax] ; add byte [ebx-0x3FCEE73C], al ; pop ebx ; ret ;
0x402682: adc byte [ebx-0x76D7DBBC], cl ; adc byte [ebp-0x74F58B25], al ; add ecx,  [ecx-0x6E17DBFC] ; add al, byte [eax] ; add byte [ebx-0x3FCEE73C], al ; pop ebx ; ret ;
0x402892: adc byte [edx+0x40], ah ; add byte [eax+0x1425FF90], dl ; bound eax,  [eax+0x00] ; nop ; nop ; jmp  [0x00406218] ;
0x40181c: adc eax, 0x004050D4 ; add eax,  [edi+0x0C] ; mov  [edx+ebx+0x0C], eax ; lea edx,  [esp+0x14] ; mov  [esp+0x08], 0x0000001C ; mov  [esp+0x04], edx ; mov  [esp+0x00], eax ; call  [0x004061D8] ;
0x401f13: adc eax, 0x004061B8 ; mov eax,  [0x004050E4] ; sub esp, 0x04 ; mov  [0x004050E4], ebx ; mov  [ebx+0x08], eax ; mov  [esp+0x00], 0x004050EC ; call  [0x004061C4] ;
0x401ebd: adc eax, 0x004061C4 ; sub esp, 0x04 ; add esp, 0x1C ; pop ebx ; pop esi ; pop edi ; pop ebp ; ret ;
0x401f31: adc eax, 0x004061C4 ; xor eax, eax ; sub esp, 0x04 ; add esp, 0x18 ; pop ebx ; ret ;
0x401fc8: adc eax, 0x004061C4 ; xor eax, eax ; sub esp, 0x04 ; add esp, 0x18 ; pop ebx ; ret ;
0x401382: adc eax, 0x10A10000 ; push eax ; inc eax ; add byte [ebp+0x5B59F065], cl ; pop esi ; pop edi ; pop ebp ; lea esp,  [ecx-0x04] ; ret ;
0x401860: add  [0x004050D0], 0x01 ; add esp, 0x30 ; pop ebx ; pop esi ; pop edi ; ret ;
0x40201a: add  [eax], eax ; add byte [eax], al ; add esp, 0x18 ; mov eax, 0x00000001 ; pop ebx ; ret ;
0x4015d1: add  [eax], eax ; add byte [eax], al ; add esp, 0x1C ; retn 0x000C ;
0x4015f9: add  [eax], eax ; add byte [eax], al ; add esp, 0x1C ; retn 0x000C ;
0x402022: add  [eax], eax ; add byte [eax], al ; pop ebx ; ret ;
0x4020b9: add  [eax], eax ; add byte [eax], al ; pop ebx ; ret ;
0x401639: add  [eax], eax ; add byte [eax], al ; pop ebx ; retn 0x000C ;
0x401677: add  [eax], eax ; add byte [eax], al ; pop ebx ; retn 0x000C ;
0x4016a0: add  [eax], eax ; add byte [eax], al ; pop ebx ; retn 0x000C ;
0x40270d: add  [eax], eax ; add byte [ebp+0x0000B8C0], al ; add byte [eax], al ; cmove eax, ebx ; add esp, 0x18 ; pop ebx ; ret ;
0x402378: add  [ebp-0x0C], esi ; mov eax, 0x00400000 ; ret ;
0x4022b8: add  [ebp-0x0C], esi ; movzx eax, word [edx+0x00400006] ; ret ;
0x401866: add  [ebx+0x5E5B30C4], eax ; pop edi ; ret ;
0x401632: add  [ebx+ecx*2-0x7D], esi ; les ebx,  [eax] ; mov eax, 0x00000001 ; pop ebx ; retn 0x000C ;
0x40233c: add  [ebx-0x3F7CFE3E], eax ; sub byte [ecx], bh ; fidiv  [ebp-0x17] ; xor eax, eax ; pop ebx ; ret ;
0x402127: add  [edi], ecx ; xchg eax, esp ; retn 0xD089 ;
0x402586: add al, 0x00 ; add byte [eax], al ; add al, ch ; fadd  [edx] ; add byte [eax], al ; add esp, 0x28 ; pop ebx ; ret ;
0x402619: add al, 0x00 ; add byte [eax], al ; add byte [ecx-0x17F7DBBC], cl ; cmp  [edx], eax ; add byte [eax], al ; add esp, 0x2C ; ret ;
0x4027a9: add al, 0x00 ; add byte [eax], al ; add byte [ecx-0x17F7DBBC], cl ; mov ecx, 0x83000000 ; les ebp,  [ebx+eax*8] ; lea esi,  [esi+0x00] ; sub esp, 0x0C ; call  [0x00406298] ;
0x401d5e: add al, 0x00 ; add byte [eax], al ; call eax ;
0x401203: add al, 0x02 ; add byte [eax], al ; add bh, al ; add al, 0x24 ; add byte [eax], al ; add byte [eax], al ; call eax ;
0x401d5c: add al, 0x24 ; add al, 0x00 ; add byte [eax], al ; call eax ;
0x401209: add al, 0x24 ; add byte [eax], al ; add byte [eax], al ; call eax ;
0x401839: add al, 0x24 ; call  [0x004061D8] ;
0x401e93: add al, 0x24 ; call ebp ;
0x401be5: add al, 0x24 ; call ebx ;
0x4014c8: add al, 0x24 ; dec ebp ; inc eax ; inc eax ; add al, ch ; int 0x10 ; add byte [eax], al ; mov eax, 0x00000000 ; leave ; ret ;
0x401f2a: add al, 0x24 ; in al, dx ; push eax ; inc eax ; add bh, bh ; adc eax, 0x004061C4 ; xor eax, eax ; sub esp, 0x04 ; add esp, 0x18 ; pop ebx ; ret ;
0x401fc1: add al, 0x24 ; in al, dx ; push eax ; inc eax ; add bh, bh ; adc eax, 0x004061C4 ; xor eax, eax ; sub esp, 0x04 ; add esp, 0x18 ; pop ebx ; ret ;
0x401db0: add al, 0x24 ; or byte [eax], al ; add byte [eax], al ; call eax ;
0x401df0: add al, 0x24 ; or eax,  [eax] ; add byte [eax], al ; call eax ;
0x40114f: add al, 0x24 ; sbb al, 0x50 ; inc eax ; add al, ch ; out 0x14, al ; add byte [eax], al ; add esp, 0x2C ; ret ;
0x4014ff: add al, 0x30 ; inc eax ; add byte [ebp-0x7C168A40], al ; les ecx,  [ebx+eax*8] ; lea esi,  [esi+0x00] ; ret ;
0x4014e1: add al, 0x30 ; inc eax ; add byte [ebx+0x74C08500], cl ; and eax, 0x660CEC83 ; nop ; call eax ;
0x40166a: add al, 0x81 ; sti ; mov esp, 0x75004045 ; in eax, dx ; add esp, 0x18 ; mov eax, 0x00000001 ; pop ebx ; retn 0x000C ;
0x401f3a: add al, 0x83 ; les ebx,  [eax] ; pop ebx ; ret ;
0x401fd1: add al, 0x83 ; les ebx,  [eax] ; pop ebx ; ret ;
0x401ec4: add al, 0x83 ; les ebx,  [ebx+ebx*2] ; pop esi ; pop edi ; pop ebp ; ret ;
0x401284: add al, 0x83 ; ret ;
0x40189f: add al, 0x89 ; adc al, 0x24 ; call  [0x004061D4] ;
0x401837: add al, 0x89 ; add al, 0x24 ; call  [0x004061D8] ;
0x401be3: add al, 0x89 ; add al, 0x24 ; call ebx ;
0x401893: add al, 0x89 ; pop esp ; and al, 0x0C ; mov  [esp+0x08], eax ; mov  [esp+0x04], ecx ; mov  [esp+0x00], edx ; call  [0x004061D4] ;
0x401f1f: add al, 0x89 ; sbb eax, 0x004050E4 ; mov  [ebx+0x08], eax ; mov  [esp+0x00], 0x004050EC ; call  [0x004061C4] ;
0x401ea8: add al, 0x89 ; xor al, 0x24 ; call eax ;
0x401be0: add al, 0x8B ; inc eax ; add al, 0x89 ; add al, 0x24 ; call ebx ;
0x4014c6: add al, 0xC7 ; add al, 0x24 ; dec ebp ; inc eax ; inc eax ; add al, ch ; int 0x10 ; add byte [eax], al ; mov eax, 0x00000000 ; leave ; ret ;
0x401204: add al, byte [eax] ; add byte [eax], al ; mov  [esp+0x00], 0x00000000 ; call eax ;
0x402694: add al, byte [eax] ; add byte [ebx-0x3FCEE73C], al ; pop ebx ; ret ;
0x4026f4: add al, byte [eax] ; add byte [ebx-0x3FCEE73C], al ; pop ebx ; ret ;
0x402624: add al, byte [eax] ; add byte [ebx-0x6F3CD33C], al ; nop ; nop ; nop ; nop ; xor eax, eax ; ret ;
0x4027dc: add al, ch ; add byte [eax], al ; add byte [ebx+0x00403048], ah ; add esp, 0x0C ; ret ;
0x40258a: add al, ch ; fadd  [edx] ; add byte [eax], al ; add esp, 0x28 ; pop ebx ; ret ;
0x4010a6: add al, ch ; inc esp ; sbb byte [eax], al ; add bl, ch ; retn 0x9066 ;
0x4014cd: add al, ch ; int 0x10 ; add byte [eax], al ; mov eax, 0x00000000 ; leave ; ret ;
0x401154: add al, ch ; out 0x14, al ; add byte [eax], al ; add esp, 0x2C ; ret ;
0x40280c: add al, ch ; push cs ; add byte [eax], al ; add byte [ebx+0x00403048], ah ; add esp, 0x0C ; ret ;
0x401d48: add al, ch ; retn 0x000B ;
0x401815: add al, ch ; xor eax, 0x8B00000B ; adc eax, 0x004050D4 ; add eax,  [edi+0x0C] ; mov  [edx+ebx+0x0C], eax ; lea edx,  [esp+0x14] ; mov  [esp+0x08], 0x0000001C ; mov  [esp+0x04], edx ; mov  [esp+0x00], eax ; call  [0x004061D8] ;
0x401207: add bh, al ; add al, 0x24 ; add byte [eax], al ; add byte [eax], al ; call eax ;
0x40114d: add bh, al ; add al, 0x24 ; sbb al, 0x50 ; inc eax ; add al, ch ; out 0x14, al ; add byte [eax], al ; add esp, 0x2C ; ret ;
0x402013: add bh, al ; add eax, 0x004050E8 ; add  [eax], eax ; add byte [eax], al ; add esp, 0x18 ; mov eax, 0x00000001 ; pop ebx ; ret ;
0x40208a: add bh, al ; add eax, 0x004050E8 ; add byte [eax], al ; add byte [eax], al ; mov  [esp+0x00], 0x004050EC ; call  [0x004061B4] ;
0x4011ff: add bh, al ; inc esp ; and al, 0x04 ; add al, byte [eax] ; add byte [eax], al ; mov  [esp+0x00], 0x00000000 ; call eax ;
0x401f11: add bh, bh ; adc eax, 0x004061B8 ; mov eax,  [0x004050E4] ; sub esp, 0x04 ; mov  [0x004050E4], ebx ; mov  [ebx+0x08], eax ; mov  [esp+0x00], 0x004050EC ; call  [0x004061C4] ;
0x401ebb: add bh, bh ; adc eax, 0x004061C4 ; sub esp, 0x04 ; add esp, 0x1C ; pop ebx ; pop esi ; pop edi ; pop ebp ; ret ;
0x401f2f: add bh, bh ; adc eax, 0x004061C4 ; xor eax, eax ; sub esp, 0x04 ; add esp, 0x18 ; pop ebx ; ret ;
0x401fc6: add bh, bh ; adc eax, 0x004061C4 ; xor eax, eax ; sub esp, 0x04 ; add esp, 0x18 ; pop ebx ; ret ;
0x401665: add bh, bh ; rol byte [ebx-0x047EFB3D], 1 ; mov esp, 0x75004045 ; in eax, dx ; add esp, 0x18 ; mov eax, 0x00000001 ; pop ebx ; retn 0x000C ;
0x40120e: add bh, bh ; rol byte [ebx-0x0817F314], 1 ; push es ; add byte [eax], al ; mov  [esp+0x00], 0x00401CB0 ; call  [0x004061C8] ;
0x401d61: add bh, bh ; shr bl, 1 ; push edx ; lea esi,  [esi+0x00000000] ; nop ; xor eax, eax ; add esp, 0x18 ; pop ebx ; retn 0x0004 ;
0x401dec: add bl, ch ; leave ; mov  [esp+0x00], 0x0000000B ; call eax ;
0x4010ab: add bl, ch ; retn 0x9066 ;
0x4014d2: add byte [eax+0x00000000], bh ; leave ; ret ;
0x4015f7: add byte [eax+0x00000001], bh ; add esp, 0x1C ; retn 0x000C ;
0x40291d: add byte [eax+0x0025FF90], dl ; bound eax,  [eax+0x00] ; nop ; nop ; jmp  [0x004061EC] ;
0x4024d1: add byte [eax+0x00], al ; mov eax, ecx ; ret ;
0x4022bf: add byte [eax+0x00], al ; ret ;
0x40237d: add byte [eax+0x00], al ; ret ;
0x402915: add byte [eax+0x0825FF90], dl ; bound eax,  [eax+0x00] ; nop ; nop ; jmp  [0x00406200] ;
0x40288d: add byte [eax+0x1025FF90], dl ; bound eax,  [eax+0x00] ; nop ; nop ; jmp  [0x00406214] ;
0x402895: add byte [eax+0x1425FF90], dl ; bound eax,  [eax+0x00] ; nop ; nop ; jmp  [0x00406218] ;
0x40289d: add byte [eax+0x1825FF90], dl ; bound eax,  [eax+0x00] ; nop ; nop ; jmp  [0x0040621C] ;
0x4028a5: add byte [eax+0x1C25FF90], dl ; bound eax,  [eax+0x00] ; nop ; nop ; jmp  [0x00406220] ;
0x4028ad: add byte [eax+0x2025FF90], dl ; bound eax,  [eax+0x00] ; nop ; nop ; jmp  [0x00406224] ;
0x4028b5: add byte [eax+0x2425FF90], dl ; bound eax,  [eax+0x00] ; nop ; nop ; jmp  [0x00406228] ;
0x4028bd: add byte [eax+0x2825FF90], dl ; bound eax,  [eax+0x00] ; nop ; nop ; jmp  [0x0040622C] ;
0x4028c5: add byte [eax+0x2C25FF90], dl ; bound eax,  [eax+0x00] ; nop ; nop ; jmp  [0x00406230] ;
0x4028cd: add byte [eax+0x3025FF90], dl ; bound eax,  [eax+0x00] ; nop ; nop ; jmp  [0x00406234] ;
0x4028d5: add byte [eax+0x3425FF90], dl ; bound eax,  [eax+0x00] ; nop ; nop ; jmp  [0x00406238] ;
0x4028dd: add byte [eax+0x3825FF90], dl ; bound eax,  [eax+0x00] ; nop ; nop ; jmp  [0x0040623C] ;
0x4028e5: add byte [eax+0x3C25FF90], dl ; bound eax,  [eax+0x00] ; nop ; nop ; jmp  [0x00406240] ;
0x4028ed: add byte [eax+0x4025FF90], dl ; bound eax,  [eax+0x00] ; nop ; nop ; jmp  [0x00406244] ;
0x4028f5: add byte [eax+0x4425FF90], dl ; bound eax,  [eax+0x00] ; nop ; nop ; jmp  [0x00406248] ;
0x4028fd: add byte [eax+0x4825FF90], dl ; bound eax,  [eax+0x00] ; nop ; nop ; jmp  [0x0040624C] ;
0x402905: add byte [eax+0x4C25FF90], dl ; bound eax,  [eax+0x00] ; nop ; nop ; jmp  [0x00406250] ;
0x40290d: add byte [eax+0x5025FF90], dl ; bound eax,  [eax+0x00] ; nop ; nop ; jmp  [0x00406208] ;
0x402845: add byte [eax+0x5825FF90], dl ; bound eax,  [eax+0x00] ; nop ; nop ; jmp  [0x0040625C] ;
0x402506: add byte [eax+0x59], bl ; ret ;
0x40284d: add byte [eax+0x5C25FF90], dl ; bound eax,  [eax+0x00] ; nop ; nop ; jmp  [0x00406260] ;
0x402855: add byte [eax+0x6025FF90], dl ; bound eax,  [eax+0x00] ; nop ; nop ; jmp  [0x00406264] ;
0x40285d: add byte [eax+0x6425FF90], dl ; bound eax,  [eax+0x00] ; nop ; nop ; jmp  [0x00406268] ;
0x402865: add byte [eax+0x6825FF90], dl ; bound eax,  [eax+0x00] ; nop ; nop ; jmp  [0x0040626C] ;
0x40286d: add byte [eax+0x6C25FF90], dl ; bound eax,  [eax+0x00] ; nop ; nop ; jmp  [0x00406270] ;
0x402875: add byte [eax+0x7025FF90], dl ; bound eax,  [eax+0x00] ; nop ; nop ; jmp  [0x00406274] ;
0x40287d: add byte [eax+0x7425FF90], dl ; bound eax,  [eax+0x00] ; nop ; nop ; jmp  [0x00406278] ;
0x402885: add byte [eax+0x7825FF90], dl ; bound eax,  [eax+0x00] ; nop ; nop ; jmp  [0x00406210] ;
0x402115: add byte [eax+ecx-0x77], dh ; rol bl, 1 ; lea esi,  [esi+0x00] ; xor edx, edx ; cmp word [eax+0x18], 0x010B ; sete dl ; mov eax, edx ; ret ;
0x40282d: add byte [eax-0x6BDA0070], dl ; bound eax,  [eax+0x00] ; nop ; nop ; jmp  [0x00406280] ;
0x402825: add byte [eax-0x6FDA0070], dl ; bound eax,  [eax+0x00] ; nop ; nop ; jmp  [0x00406294] ;
0x40283d: add byte [eax-0x7BDA0070], dl ; bound eax,  [eax+0x00] ; nop ; nop ; jmp  [0x00406258] ;
0x40118e: add byte [eax-0x7BF038C7], dl ; mov byte [ecx], al ; add byte [eax], al ; mov  [esp+0x00], 0x000003E8 ; call esi ;
0x402835: add byte [eax-0x7FDA0070], dl ; bound eax,  [eax+0x00] ; nop ; nop ; jmp  [0x00406284] ;
0x402588: add byte [eax], al ; add al, ch ; fadd  [edx] ; add byte [eax], al ; add esp, 0x28 ; pop ebx ; ret ;
0x4010a4: add byte [eax], al ; add al, ch ; inc esp ; sbb byte [eax], al ; add bl, ch ; retn 0x9066 ;
0x401d46: add byte [eax], al ; add al, ch ; retn 0x000B ;
0x401813: add byte [eax], al ; add al, ch ; xor eax, 0x8B00000B ; adc eax, 0x004050D4 ; add eax,  [edi+0x0C] ; mov  [edx+ebx+0x0C], eax ; lea edx,  [esp+0x14] ; mov  [esp+0x08], 0x0000001C ; mov  [esp+0x04], edx ; mov  [esp+0x00], eax ; call  [0x004061D8] ;
0x401205: add byte [eax], al ; add bh, al ; add al, 0x24 ; add byte [eax], al ; add byte [eax], al ; call eax ;
0x402011: add byte [eax], al ; add bh, al ; add eax, 0x004050E8 ; add  [eax], eax ; add byte [eax], al ; add esp, 0x18 ; mov eax, 0x00000001 ; pop ebx ; ret ;
0x402088: add byte [eax], al ; add bh, al ; add eax, 0x004050E8 ; add byte [eax], al ; add byte [eax], al ; mov  [esp+0x00], 0x004050EC ; call  [0x004061B4] ;
0x4011fd: add byte [eax], al ; add bh, al ; inc esp ; and al, 0x04 ; add al, byte [eax] ; add byte [eax], al ; mov  [esp+0x00], 0x00000000 ; call eax ;
0x40120c: add byte [eax], al ; add bh, bh ; rol byte [ebx-0x0817F314], 1 ; push es ; add byte [eax], al ; mov  [esp+0x00], 0x00401CB0 ; call  [0x004061C8] ;
0x401d5f: add byte [eax], al ; add bh, bh ; shr bl, 1 ; push edx ; lea esi,  [esi+0x00000000] ; nop ; xor eax, eax ; add esp, 0x18 ; pop ebx ; retn 0x0004 ;
0x40118c: add byte [eax], al ; add byte [eax-0x7BF038C7], dl ; mov byte [ecx], al ; add byte [eax], al ; mov  [esp+0x00], 0x000003E8 ; call esi ;
0x402086: add byte [eax], al ; add byte [eax], al ; add bh, al ; add eax, 0x004050E8 ; add byte [eax], al ; add byte [eax], al ; mov  [esp+0x00], 0x004050EC ; call  [0x004061B4] ;
0x40120b: add byte [eax], al ; add byte [eax], al ; call eax ;
0x402713: add byte [eax], al ; add byte [eax], al ; cmove eax, ebx ; add esp, 0x18 ; pop ebx ; ret ;
0x401c73: add byte [eax], al ; add byte [eax], al ; fstp st0 ; fstp st0 ; fstp st0 ; add esp, 0x3C ; ret ;
0x401c74: add byte [eax], al ; add byte [eax], al ; fstp st0 ; fstp st0 ; fstp st0 ; add esp, 0x3C ; ret ;
0x401536: add byte [eax], al ; add byte [eax], al ; lea esi,  [esi+0x00] ; call  [0x0040457C+ebx*4] ;
0x401537: add byte [eax], al ; add byte [eax], al ; lea esi,  [esi+0x00] ; call  [0x0040457C+ebx*4] ;
0x401437: add byte [eax], al ; add byte [eax], al ; lea esi,  [esi+0x00] ; ret ;
0x401438: add byte [eax], al ; add byte [eax], al ; lea esi,  [esi+0x00] ; ret ;
0x4014d4: add byte [eax], al ; add byte [eax], al ; leave ; ret ;
0x402087: add byte [eax], al ; add byte [eax], al ; mov  [0x004050E8], 0x00000000 ; mov  [esp+0x00], 0x004050EC ; call  [0x004061B4] ;
0x402091: add byte [eax], al ; add byte [eax], al ; mov  [esp+0x00], 0x004050EC ; call  [0x004061B4] ;
0x401f6b: add byte [eax], al ; add byte [eax], al ; mov  [esp+0x00], 0x004050EC ; call  [0x004061B8] ;
0x401f6c: add byte [eax], al ; add byte [eax], al ; mov  [esp+0x00], 0x004050EC ; call  [0x004061B8] ;
0x4011fc: add byte [eax], al ; add byte [eax], al ; mov  [esp+0x04], 0x00000002 ; mov  [esp+0x00], 0x00000000 ; call eax ;
0x4020ca: add byte [eax], al ; add byte [eax], al ; nop ; mov  [esp+0x00], 0x004050EC ; call  [0x004061C0] ;
0x4020cb: add byte [eax], al ; add byte [eax], al ; nop ; mov  [esp+0x00], 0x004050EC ; call  [0x004061C0] ;
0x401d69: add byte [eax], al ; add byte [eax], al ; nop ; xor eax, eax ; add esp, 0x18 ; pop ebx ; retn 0x0004 ;
0x401d6a: add byte [eax], al ; add byte [eax], al ; nop ; xor eax, eax ; add esp, 0x18 ; pop ebx ; retn 0x0004 ;
0x4016ab: add byte [eax], al ; add byte [eax], al ; xor eax, eax ; ret ;
0x4016ac: add byte [eax], al ; add byte [eax], al ; xor eax, eax ; ret ;
0x401d54: add byte [eax], al ; add byte [ebp-0x384A8B40], al ; add al, 0x24 ; add al, 0x00 ; add byte [eax], al ; call eax ;
0x4027de: add byte [eax], al ; add byte [ebx+0x00403048], ah ; add esp, 0x0C ; ret ;
0x4027df: add byte [eax], al ; add byte [ebx+0x00403048], ah ; add esp, 0x0C ; ret ;
0x40280f: add byte [eax], al ; add byte [ebx+0x00403048], ah ; add esp, 0x0C ; ret ;
0x40187a: add byte [eax], al ; add byte [ebx+0x0F20244C], cl ; inc esp ; retn 0x548B ;
0x4027b4: add byte [eax], al ; add byte [ebx+0x2EC32CC4], al ; lea esi,  [esi+0x00] ; sub esp, 0x0C ; call  [0x00406298] ;
0x401306: add byte [eax], al ; add byte [ebx+0x40500815], cl ; add byte [ebp-0x72928B2E], al ; lock pop ecx ; pop ebx ; pop esi ; pop edi ; pop ebp ; lea esp,  [ecx-0x04] ; ret ;
0x401bbd: add byte [eax], al ; add byte [ebx+0x4050D415], cl ; add byte [ebp+0x048DBF04], cl ; or byte [ebx+0x74D28510], 0x1A ; mov  [esp+0x0C], esi ; mov  [esp+0x08], edx ; mov edx,  [eax+0x08] ; mov  [esp+0x04], edx ; mov eax,  [eax+0x04] ; mov  [esp+0x00], eax ; call ebx ;
0x4016a1: add byte [eax], al ; add byte [ebx-0x3E], bl ; or al, 0x00 ; lea esi,  [esi+0x00000000] ; xor eax, eax ; ret ;
0x40261b: add byte [eax], al ; add byte [ecx-0x17F7DBBC], cl ; cmp  [edx], eax ; add byte [eax], al ; add esp, 0x2C ; ret ;
0x4027ab: add byte [eax], al ; add byte [ecx-0x17F7DBBC], cl ; mov ecx, 0x83000000 ; les ebp,  [ebx+eax*8] ; lea esi,  [esi+0x00] ; sub esp, 0x0C ; call  [0x00406298] ;
0x401831: add byte [eax], al ; add byte [ecx-0x76FBDBAC], cl ; add al, 0x24 ; call  [0x004061D8] ;
0x402714: add byte [eax], al ; add byte [edi], cl ; inc esp ; ret ;
0x401d6b: add byte [eax], al ; add byte [esi-0x70], ah ; xor eax, eax ; add esp, 0x18 ; pop ebx ; retn 0x0004 ;
0x401538: add byte [eax], al ; add byte [esi], ch ; lea esi,  [esi+0x00] ; call  [0x0040457C+ebx*4] ;
0x4014d5: add byte [eax], al ; add cl, cl ; ret ;
0x40201c: add byte [eax], al ; add esp, 0x18 ; mov eax, 0x00000001 ; pop ebx ; ret ;
0x40169a: add byte [eax], al ; add esp, 0x18 ; mov eax, 0x00000001 ; pop ebx ; retn 0x000C ;
0x402695: add byte [eax], al ; add esp, 0x18 ; xor eax, eax ; pop ebx ; ret ;
0x4026f5: add byte [eax], al ; add esp, 0x18 ; xor eax, eax ; pop ebx ; ret ;
0x4015d3: add byte [eax], al ; add esp, 0x1C ; retn 0x000C ;
0x4015fb: add byte [eax], al ; add esp, 0x1C ; retn 0x000C ;
0x40258e: add byte [eax], al ; add esp, 0x28 ; pop ebx ; ret ;
0x4025de: add byte [eax], al ; add esp, 0x28 ; pop ebx ; ret ;
0x401158: add byte [eax], al ; add esp, 0x2C ; ret ;
0x402545: add byte [eax], al ; add esp, 0x2C ; ret ;
0x402625: add byte [eax], al ; add esp, 0x2C ; ret ;
0x4027b5: add byte [eax], al ; add esp, 0x2C ; ret ;
0x401731: add byte [eax], al ; add esp, 0x54 ; xor eax, eax ; pop ebx ; pop esi ; ret ;
0x40120d: add byte [eax], al ; call eax ;
0x401d60: add byte [eax], al ; call eax ;
0x401db4: add byte [eax], al ; call eax ;
0x401df4: add byte [eax], al ; call eax ;
0x40119d: add byte [eax], al ; call esi ;
0x402715: add byte [eax], al ; cmove eax, ebx ; add esp, 0x18 ; pop ebx ; ret ;
0x40140d: add byte [eax], al ; cmp eax, 0x01 ; sbb eax, eax ; add esp, 0x1C ; ret ;
0x401c76: add byte [eax], al ; fstp st0 ; fstp st0 ; fstp st0 ; add esp, 0x3C ; ret ;
0x402445: add byte [eax], al ; inc eax ; add byte [ebp+ecx+0x5B], dh ; mov eax, ecx ; pop esi ; pop edi ; ret ;
0x4022f4: add byte [eax], al ; inc eax ; add byte [esi+eax+0x5B], dh ; ret ;
0x401539: add byte [eax], al ; lea esi,  [esi+0x00] ; call  [0x0040457C+ebx*4] ;
0x40143a: add byte [eax], al ; lea esi,  [esi+0x00] ; ret ;
0x4014d6: add byte [eax], al ; leave ; ret ;
0x4027e0: add byte [eax], al ; mov  [0x00403048], eax ; add esp, 0x0C ; ret ;
0x402810: add byte [eax], al ; mov  [0x00403048], eax ; add esp, 0x0C ; ret ;
0x402089: add byte [eax], al ; mov  [0x004050E8], 0x00000000 ; mov  [esp+0x00], 0x004050EC ; call  [0x004061B4] ;
0x402012: add byte [eax], al ; mov  [0x004050E8], 0x00000001 ; add esp, 0x18 ; mov eax, 0x00000001 ; pop ebx ; ret ;
0x401206: add byte [eax], al ; mov  [esp+0x00], 0x00000000 ; call eax ;
0x401196: add byte [eax], al ; mov  [esp+0x00], 0x000003E8 ; call esi ;
0x401217: add byte [eax], al ; mov  [esp+0x00], 0x00401CB0 ; call  [0x004061C8] ;
0x402093: add byte [eax], al ; mov  [esp+0x00], 0x004050EC ; call  [0x004061B4] ;
0x401f6e: add byte [eax], al ; mov  [esp+0x00], 0x004050EC ; call  [0x004061B8] ;
0x401fbe: add byte [eax], al ; mov  [esp+0x00], 0x004050EC ; call  [0x004061C4] ;
0x4011fe: add byte [eax], al ; mov  [esp+0x04], 0x00000002 ; mov  [esp+0x00], 0x00000000 ; call eax ;
0x401832: add byte [eax], al ; mov  [esp+0x04], edx ; mov  [esp+0x00], eax ; call  [0x004061D8] ;
0x401383: add byte [eax], al ; mov eax,  [0x00405010] ; lea esp,  [ebp-0x10] ; pop ecx ; pop ebx ; pop esi ; pop edi ; pop ebp ; lea esp,  [ecx-0x04] ; ret ;
0x4014d1: add byte [eax], al ; mov eax, 0x00000000 ; leave ; ret ;
0x4015f6: add byte [eax], al ; mov eax, 0x00000001 ; add esp, 0x1C ; retn 0x000C ;
0x401819: add byte [eax], al ; mov edx,  [0x004050D4] ; add eax,  [edi+0x0C] ; mov  [edx+ebx+0x0C], eax ; lea edx,  [esp+0x14] ; mov  [esp+0x08], 0x0000001C ; mov  [esp+0x04], edx ; mov  [esp+0x00], eax ; call  [0x004061D8] ;
0x40148c: add byte [eax], al ; nop ; leave ; ret ;
0x4020cd: add byte [eax], al ; nop ; mov  [esp+0x00], 0x004050EC ; call  [0x004061C0] ;
0x401d6c: add byte [eax], al ; nop ; xor eax, eax ; add esp, 0x18 ; pop ebx ; retn 0x0004 ;
0x402024: add byte [eax], al ; pop ebx ; ret ;
0x4020bb: add byte [eax], al ; pop ebx ; ret ;
0x40163b: add byte [eax], al ; pop ebx ; retn 0x000C ;
0x401679: add byte [eax], al ; pop ebx ; retn 0x000C ;
0x4016a2: add byte [eax], al ; pop ebx ; retn 0x000C ;
0x401cbe: add byte [eax], al ; ror byte [edi], 0x84 ; ret ;
0x40270e: add byte [eax], al ; test eax, eax ; mov eax, 0x00000000 ; cmove eax, ebx ; add esp, 0x18 ; pop ebx ; ret ;
0x4010ea: add byte [eax], al ; xor eax, eax ; add esp, 0x1C ; ret ;
0x4016ae: add byte [eax], al ; xor eax, eax ; ret ;
0x40270f: add byte [ebp+0x0000B8C0], al ; add byte [eax], al ; cmove eax, ebx ; add esp, 0x18 ; pop ebx ; ret ;
0x401e8c: add byte [ebp+0x038B0076], cl ; mov  [esp+0x00], eax ; call ebp ;
0x401bc5: add byte [ebp+0x048DBF04], cl ; or byte [ebx+0x74D28510], 0x1A ; mov  [esp+0x0C], esi ; mov  [esp+0x08], edx ; mov edx,  [eax+0x08] ; mov  [esp+0x04], edx ; mov eax,  [eax+0x04] ; mov  [esp+0x00], eax ; call ebx ;
0x4022f1: add byte [ebp+0x40000093], cl ; add byte [esi+eax+0x5B], dh ; ret ;
0x402442: add byte [ebp+0x400000B0], cl ; add byte [ebp+ecx+0x5B], dh ; mov eax, ecx ; pop esi ; pop edi ; ret ;
0x401389: add byte [ebp+0x5B59F065], cl ; pop esi ; pop edi ; pop ebp ; lea esp,  [ecx-0x04] ; ret ;
0x402448: add byte [ebp+ecx+0x5B], dh ; mov eax, ecx ; pop esi ; pop edi ; ret ;
0x401670: add byte [ebp-0x13], dh ; add esp, 0x18 ; mov eax, 0x00000001 ; pop ebx ; retn 0x000C ;
0x40207c: add byte [ebp-0x38108A25], al ; add eax, 0x004050E4 ; add byte [eax], al ; add byte [eax], al ; mov  [0x004050E8], 0x00000000 ; mov  [esp+0x00], 0x004050EC ; call  [0x004061B4] ;
0x401d56: add byte [ebp-0x384A8B40], al ; add al, 0x24 ; add al, 0x00 ; add byte [eax], al ; call eax ;
0x4011f3: add byte [ebp-0x38E38B40], al ; inc esp ; and al, 0x08 ; add byte [eax], al ; add byte [eax], al ; mov  [esp+0x04], 0x00000002 ; mov  [esp+0x00], 0x00000000 ; call eax ;
0x401300: add byte [ebp-0x397BF037], al ; add byte [eax], al ; add byte [ebx+0x40500815], cl ; add byte [ebp-0x72928B2E], al ; lock pop ecx ; pop ebx ; pop esi ; pop edi ; pop ebp ; lea esp,  [ecx-0x04] ; ret ;
0x40200b: add byte [ebp-0x437BF040], al ; add byte [eax], al ; add bh, al ; add eax, 0x004050E8 ; add  [eax], eax ; add byte [eax], al ; add esp, 0x18 ; mov eax, 0x00000001 ; pop ebx ; ret ;
0x40130e: add byte [ebp-0x72928B2E], al ; lock pop ecx ; pop ebx ; pop esi ; pop edi ; pop ebp ; lea esp,  [ecx-0x04] ; ret ;
0x40191e: add byte [ebp-0x72F28B01], al ; hlt ; pop ebx ; pop esi ; pop edi ; pop ebp ; ret ;
0x401d14: add byte [ebp-0x76A88B40], al ; pop esp ; and al, 0x20 ; add esp, 0x18 ; pop ebx ; jmp eax ;
0x401502: add byte [ebp-0x7C168A40], al ; les ecx,  [ebx+eax*8] ; lea esi,  [esi+0x00] ; ret ;
0x4021ed: add byte [ebp-0x7C218A40], al ; les ebx,  [ecx+ecx*4] ; fcomp  [ebx+0x5E] ; pop edi ; pop ebp ; ret ;
0x4014e6: add byte [ebp-0x7CDA8B40], al ; in al, dx ; or al, 0x66 ; nop ; call eax ;
0x4027e1: add byte [ebx+0x00403048], ah ; add esp, 0x0C ; ret ;
0x402811: add byte [ebx+0x00403048], ah ; add esp, 0x0C ; ret ;
0x40169b: add byte [ebx+0x01B818C4], al ; add byte [eax], al ; add byte [ebx-0x3E], bl ; or al, 0x00 ; lea esi,  [esi+0x00000000] ; xor eax, eax ; ret ;
0x40187c: add byte [ebx+0x0F20244C], cl ; inc esp ; retn 0x548B ;
0x401e8f: add byte [ebx+0x24048903], cl ; call ebp ;
0x4027e6: add byte [ebx+0x2EC30CC4], al ; lea esi,  [esi+0x00] ; sub esp, 0x0C ; call  [0x00406298] ;
0x4027b6: add byte [ebx+0x2EC32CC4], al ; lea esi,  [esi+0x00] ; sub esp, 0x0C ; call  [0x00406298] ;
0x401308: add byte [ebx+0x40500815], cl ; add byte [ebp-0x72928B2E], al ; lock pop ecx ; pop ebx ; pop esi ; pop edi ; pop ebp ; lea esp,  [ecx-0x04] ; ret ;
0x401bbf: add byte [ebx+0x4050D415], cl ; add byte [ebp+0x048DBF04], cl ; or byte [ebx+0x74D28510], 0x1A ; mov  [esp+0x0C], esi ; mov  [esp+0x08], edx ; mov edx,  [eax+0x08] ; mov  [esp+0x04], edx ; mov eax,  [eax+0x04] ; mov  [esp+0x00], eax ; call ebx ;
0x401e86: add byte [ebx+0x4061BC3D], cl ; add byte [ebp+0x038B0076], cl ; mov  [esp+0x00], eax ; call ebp ;
0x4014e4: add byte [ebx+0x74C08500], cl ; and eax, 0x660CEC83 ; nop ; call eax ;
0x40165f: add byte [ebx+0x74C08503], cl ; add bh, bh ; rol byte [ebx-0x047EFB3D], 1 ; mov esp, 0x75004045 ; in eax, dx ; add esp, 0x18 ; mov eax, 0x00000001 ; pop ebx ; retn 0x000C ;
0x4021fe: add byte [ebx-0x24CEE33C], al ; mov eax, ebx ; pop ebx ; pop esi ; pop edi ; pop ebp ; ret ;
0x4021ff: add byte [ebx-0x24CEE33C], al ; mov eax, ebx ; pop ebx ; pop esi ; pop edi ; pop ebp ; ret ;
0x401ec1: add byte [ebx-0x3B7CFB14], al ; sbb al, 0x5B ; pop esi ; pop edi ; pop ebp ; ret ;
0x4016a3: add byte [ebx-0x3E], bl ; or al, 0x00 ; lea esi,  [esi+0x00000000] ; xor eax, eax ; ret ;
0x401732: add byte [ebx-0x3FCEAB3C], al ; pop ebx ; pop esi ; ret ;
0x402696: add byte [ebx-0x3FCEE73C], al ; pop ebx ; ret ;
0x4026f6: add byte [ebx-0x3FCEE73C], al ; pop ebx ; ret ;
0x40140e: add byte [ebx-0x3FE6FE08], al ; add esp, 0x1C ; ret ;
0x402626: add byte [ebx-0x6F3CD33C], al ; nop ; nop ; nop ; nop ; xor eax, eax ; ret ;
0x402816: add byte [ebx-0x6F3CF33C], al ; nop ; nop ; nop ; nop ; jmp  [0x0040628C] ;
0x401f58: add byte [ebx-0x7ADFDBA4], cl ; sal byte [ebp+0x0F], 0x83 ; les ebx,  [eax] ; xor eax, eax ; pop ebx ; ret ;
0x402376: add byte [ebx], cl ; add  [ebp-0x0C], esi ; mov eax, 0x00400000 ; ret ;
0x4022b6: add byte [ebx], cl ; add  [ebp-0x0C], esi ; movzx eax, word [edx+0x00400006] ; ret ;
0x401384: add byte [ecx+0x00405010], ah ; lea esp,  [ebp-0x10] ; pop ecx ; pop ebx ; pop esi ; pop edi ; pop ebp ; lea esp,  [ecx-0x04] ; ret ;
0x401f17: add byte [ecx+0x004050E4], ah ; sub esp, 0x04 ; mov  [0x004050E4], ebx ; mov  [ebx+0x08], eax ; mov  [esp+0x00], 0x004050EC ; call  [0x004061C4] ;
0x401f25: add byte [ecx+0x04C70843], cl ; and al, 0xEC ; push eax ; inc eax ; add bh, bh ; adc eax, 0x004061C4 ; xor eax, eax ; sub esp, 0x04 ; add esp, 0x18 ; pop ebx ; ret ;
0x40188d: add byte [ecx+0x5389084B], cl ; add al, 0x89 ; pop esp ; and al, 0x0C ; mov  [esp+0x08], eax ; mov  [esp+0x04], ecx ; mov  [esp+0x00], edx ; call  [0x004061D4] ;
0x401ef7: add byte [ecx+0x74C085C3], cl ; inc edx ; mov eax,  [esp+0x20] ; mov  [ebx], eax ; mov eax,  [esp+0x24] ; mov  [ebx+0x04], eax ; mov  [esp+0x00], 0x004050EC ; call  [0x004061B8] ;
0x401bf4: add byte [ecx+ecx*8-0x73], bh ; hlt ; pop ebx ; pop esi ; pop edi ; pop ebp ; ret ;
0x40261d: add byte [ecx-0x17F7DBBC], cl ; cmp  [edx], eax ; add byte [eax], al ; add esp, 0x2C ; ret ;
0x4027ad: add byte [ecx-0x17F7DBBC], cl ; mov ecx, 0x83000000 ; les ebp,  [ebx+eax*8] ; lea esi,  [esi+0x00] ; sub esp, 0x0C ; call  [0x00406298] ;
0x4014c2: add byte [ecx-0x38FBDBBC], cl ; add al, 0x24 ; dec ebp ; inc eax ; inc eax ; add al, ch ; int 0x10 ; add byte [eax], al ; mov eax, 0x00000000 ; leave ; ret ;
0x401833: add byte [ecx-0x76FBDBAC], cl ; add al, 0x24 ; call  [0x004061D8] ;
0x401865: add byte [ecx], al ; add esp, 0x30 ; pop ebx ; pop esi ; pop edi ; ret ;
0x401f35: add byte [ecx], dh ; rol byte [ebx-0x3B7CFB14], 0x18 ; pop ebx ; ret ;
0x401fcc: add byte [ecx], dh ; rol byte [ebx-0x3B7CFB14], 0x18 ; pop ebx ; ret ;
0x4024ff: add byte [edi-0x15], dh ; sub ecx, eax ; or  [ecx], 0x00000000 ; pop eax ; pop ecx ; ret ;
0x402716: add byte [edi], cl ; inc esp ; ret ;
0x4022f7: add byte [esi+eax+0x5B], dh ; ret ;
0x401d6d: add byte [esi-0x70], ah ; xor eax, eax ; add esp, 0x18 ; pop ebx ; retn 0x0004 ;
0x4016a7: add byte [esi], ch ; lea esi,  [esi+0x00000000] ; xor eax, eax ; ret ;
0x40153a: add byte [esi], ch ; lea esi,  [esi+0x00] ; call  [0x0040457C+ebx*4] ;
0x4014d7: add cl, cl ; ret ;
0x40162d: add dh, byte [eax+ebx-0x7D] ; clc ; add  [ebx+ecx*2-0x7D], esi ; les ebx,  [eax] ; mov eax, 0x00000001 ; pop ebx ; retn 0x000C ;
0x401661: add eax,  [ebp-0x00FD8B40] ; rol byte [ebx-0x047EFB3D], 1 ; mov esp, 0x75004045 ; in eax, dx ; add esp, 0x18 ; mov eax, 0x00000001 ; pop ebx ; retn 0x000C ;
0x401821: add eax,  [edi+0x0C] ; mov  [edx+ebx+0x0C], eax ; lea edx,  [esp+0x14] ; mov  [esp+0x08], 0x0000001C ; mov  [esp+0x04], edx ; mov  [esp+0x00], eax ; call  [0x004061D8] ;
0x401861: add eax, 0x004050D0 ; add  [ebx+0x5E5B30C4], eax ; pop edi ; ret ;
0x402082: add eax, 0x004050E4 ; add byte [eax], al ; add byte [eax], al ; mov  [0x004050E8], 0x00000000 ; mov  [esp+0x00], 0x004050EC ; call  [0x004061B4] ;
0x402015: add eax, 0x004050E8 ; add  [eax], eax ; add byte [eax], al ; add esp, 0x18 ; mov eax, 0x00000001 ; pop ebx ; ret ;
0x40208c: add eax, 0x004050E8 ; add byte [eax], al ; add byte [eax], al ; mov  [esp+0x00], 0x004050EC ; call  [0x004061B4] ;
0x401888: add ebx,  [0x004050D4] ; mov  [ebx+0x08], ecx ; mov  [ebx+0x04], edx ; mov  [esp+0x0C], ebx ; mov  [esp+0x08], eax ; mov  [esp+0x04], ecx ; mov  [esp+0x00], edx ; call  [0x004061D4] ;
0x4026ee: add ecx,  [ecx+0x31E82404] ; add al, byte [eax] ; add byte [ebx-0x3FCEE73C], al ; pop ebx ; ret ;
0x401e91: add ecx,  [ecx-0x2A00DBFC] ; mov esi, eax ; sub esp, 0x04 ; call edi ;
0x40268e: add ecx,  [ecx-0x6E17DBFC] ; add al, byte [eax] ; add byte [ebx-0x3FCEE73C], al ; pop ebx ; ret ;
0x4024ce: add ecx, 0x00400000 ; mov eax, ecx ; ret ;
0x401507: add esp, 0x0C ; ret ;
0x4027e7: add esp, 0x0C ; ret ;
0x402817: add esp, 0x0C ; ret ;
0x40201e: add esp, 0x18 ; mov eax, 0x00000001 ; pop ebx ; ret ;
0x4020b5: add esp, 0x18 ; mov eax, 0x00000001 ; pop ebx ; ret ;
0x401635: add esp, 0x18 ; mov eax, 0x00000001 ; pop ebx ; retn 0x000C ;
0x401673: add esp, 0x18 ; mov eax, 0x00000001 ; pop ebx ; retn 0x000C ;
0x40169c: add esp, 0x18 ; mov eax, 0x00000001 ; pop ebx ; retn 0x000C ;
0x401d1d: add esp, 0x18 ; pop ebx ; jmp eax ;
0x401558: add esp, 0x18 ; pop ebx ; ret ;
0x401f3b: add esp, 0x18 ; pop ebx ; ret ;
0x401fd2: add esp, 0x18 ; pop ebx ; ret ;
0x40271a: add esp, 0x18 ; pop ebx ; ret ;
0x401d72: add esp, 0x18 ; pop ebx ; retn 0x0004 ;
0x401f61: add esp, 0x18 ; xor eax, eax ; pop ebx ; ret ;
0x402697: add esp, 0x18 ; xor eax, eax ; pop ebx ; ret ;
0x4026f7: add esp, 0x18 ; xor eax, eax ; pop ebx ; ret ;
0x4021f2: add esp, 0x1C ; mov eax, ebx ; pop ebx ; pop esi ; pop edi ; pop ebp ; ret ;
0x401ec5: add esp, 0x1C ; pop ebx ; pop esi ; pop edi ; pop ebp ; ret ;
0x40109a: add esp, 0x1C ; ret ;
0x4010ee: add esp, 0x1C ; ret ;
0x401414: add esp, 0x1C ; ret ;
0x4015d5: add esp, 0x1C ; retn 0x000C ;
0x4015fd: add esp, 0x1C ; retn 0x000C ;
0x402200: add esp, 0x1C ; xor ebx, ebx ; mov eax, ebx ; pop ebx ; pop esi ; pop edi ; pop ebp ; ret ;
0x402590: add esp, 0x28 ; pop ebx ; ret ;
0x4025e0: add esp, 0x28 ; pop ebx ; ret ;
0x40115a: add esp, 0x2C ; ret ;
0x402547: add esp, 0x2C ; ret ;
0x402627: add esp, 0x2C ; ret ;
0x4027b7: add esp, 0x2C ; ret ;
0x401867: add esp, 0x30 ; pop ebx ; pop esi ; pop edi ; ret ;
0x401c7e: add esp, 0x3C ; ret ;
0x401733: add esp, 0x54 ; xor eax, eax ; pop ebx ; pop esi ; ret ;
0x40120a: and al, 0x00 ; add byte [eax], al ; add bh, bh ; rol byte [ebx-0x0817F314], 1 ; push es ; add byte [eax], al ; mov  [esp+0x00], 0x00401CB0 ; call  [0x004061C8] ;
0x4010a2: and al, 0x01 ; add byte [eax], al ; add al, ch ; inc esp ; sbb byte [eax], al ; add bl, ch ; retn 0x9066 ;
0x401202: and al, 0x04 ; add al, byte [eax] ; add byte [eax], al ; mov  [esp+0x00], 0x00000000 ; call eax ;
0x401d44: and al, 0x04 ; add byte [eax], al ; add al, ch ; retn 0x000B ;
0x401d5d: and al, 0x04 ; add byte [eax], al ; add bh, bh ; shr bl, 1 ; push edx ; lea esi,  [esi+0x00000000] ; nop ; xor eax, eax ; add esp, 0x18 ; pop ebx ; retn 0x0004 ;
0x401836: and al, 0x04 ; mov  [esp+0x00], eax ; call  [0x004061D8] ;
0x40189e: and al, 0x04 ; mov  [esp+0x00], edx ; call  [0x004061D4] ;
0x401bdf: and al, 0x04 ; mov eax,  [eax+0x04] ; mov  [esp+0x00], eax ; call ebx ;
0x401148: and al, 0x04 ; sbb byte [eax+0x40], dl ; add bh, al ; add al, 0x24 ; sbb al, 0x50 ; inc eax ; add al, ch ; out 0x14, al ; add byte [eax], al ; add esp, 0x2C ; ret ;
0x4011fa: and al, 0x08 ; add byte [eax], al ; add byte [eax], al ; mov  [esp+0x04], 0x00000002 ; mov  [esp+0x00], 0x00000000 ; call eax ;
0x40189a: and al, 0x08 ; mov  [esp+0x04], ecx ; mov  [esp+0x00], edx ; call  [0x004061D4] ;
0x401bd8: and al, 0x08 ; mov edx,  [eax+0x08] ; mov  [esp+0x04], edx ; mov eax,  [eax+0x04] ; mov  [esp+0x00], eax ; call ebx ;
0x40182e: and al, 0x08 ; sbb al, 0x00 ; add byte [eax], al ; mov  [esp+0x04], edx ; mov  [esp+0x00], eax ; call  [0x004061D8] ;
0x401896: and al, 0x0C ; mov  [esp+0x08], eax ; mov  [esp+0x04], ecx ; mov  [esp+0x00], edx ; call  [0x004061D4] ;
0x401bd4: and al, 0x0C ; mov  [esp+0x08], edx ; mov edx,  [eax+0x08] ; mov  [esp+0x04], edx ; mov eax,  [eax+0x04] ; mov  [esp+0x00], eax ; call ebx ;
0x401c68: and al, 0x10 ; mov  [esp+0x00], edx ; call eax ;
0x401c58: and al, 0x10 ; mov edx,  [esp+0x44] ; fstp qword [esp+0x28] ; mov  [esp+0x14], edx ; lea edx,  [esp+0x10] ; mov  [esp+0x00], edx ; call eax ;
0x401886: and al, 0x14 ; add ebx,  [0x004050D4] ; mov  [ebx+0x08], ecx ; mov  [ebx+0x04], edx ; mov  [esp+0x0C], ebx ; mov  [esp+0x08], eax ; mov  [esp+0x04], ecx ; mov  [esp+0x00], edx ; call  [0x004061D4] ;
0x401c64: and al, 0x14 ; lea edx,  [esp+0x10] ; mov  [esp+0x00], edx ; call eax ;
0x40182a: and al, 0x14 ; mov  [esp+0x08], 0x0000001C ; mov  [esp+0x04], edx ; mov  [esp+0x00], eax ; call  [0x004061D8] ;
0x401c50: and al, 0x18 ; fstp qword [esp+0x20] ; mov  [esp+0x10], edx ; mov edx,  [esp+0x44] ; fstp qword [esp+0x28] ; mov  [esp+0x14], edx ; lea edx,  [esp+0x10] ; mov  [esp+0x00], edx ; call eax ;
0x401150: and al, 0x1C ; push eax ; inc eax ; add al, ch ; out 0x14, al ; add byte [eax], al ; add esp, 0x2C ; ret ;
0x401d1b: and al, 0x20 ; add esp, 0x18 ; pop ebx ; jmp eax ;
0x40187f: and al, 0x20 ; cmove eax, edx ; mov edx,  [esp+0x14] ; add ebx,  [0x004050D4] ; mov  [ebx+0x08], ecx ; mov  [ebx+0x04], edx ; mov  [esp+0x0C], ebx ; mov  [esp+0x08], eax ; mov  [esp+0x04], ecx ; mov  [esp+0x00], edx ; call  [0x004061D4] ;
0x401f00: and al, 0x20 ; mov  [ebx], eax ; mov eax,  [esp+0x24] ; mov  [ebx+0x04], eax ; mov  [esp+0x00], 0x004050EC ; call  [0x004061B8] ;
0x401c54: and al, 0x20 ; mov  [esp+0x10], edx ; mov edx,  [esp+0x44] ; fstp qword [esp+0x28] ; mov  [esp+0x14], edx ; lea edx,  [esp+0x10] ; mov  [esp+0x00], edx ; call eax ;
0x401f06: and al, 0x24 ; mov  [ebx+0x04], eax ; mov  [esp+0x00], 0x004050EC ; call  [0x004061B8] ;
0x401c60: and al, 0x28 ; mov  [esp+0x14], edx ; lea edx,  [esp+0x10] ; mov  [esp+0x00], edx ; call eax ;
0x401c4c: and al, 0x40 ; fstp qword [esp+0x18] ; fstp qword [esp+0x20] ; mov  [esp+0x10], edx ; mov edx,  [esp+0x44] ; fstp qword [esp+0x28] ; mov  [esp+0x14], edx ; lea edx,  [esp+0x10] ; mov  [esp+0x00], edx ; call eax ;
0x401c5c: and al, 0x44 ; fstp qword [esp+0x28] ; mov  [esp+0x14], edx ; lea edx,  [esp+0x10] ; mov  [esp+0x00], edx ; call eax ;
0x4014c9: and al, 0x4D ; inc eax ; inc eax ; add al, ch ; int 0x10 ; add byte [eax], al ; mov eax, 0x00000000 ; leave ; ret ;
0x402412: and al, 0x5B ; pop esi ; not edx ; shr edx, 0x1F ; mov eax, edx ; ret ;
0x4028ba: and al, 0x62 ; inc eax ; add byte [eax+0x2825FF90], dl ; bound eax,  [eax+0x00] ; nop ; nop ; jmp  [0x0040622C] ;
0x4015f2: and al, 0xE8 ; clc ; or  [eax], eax ; add byte [eax+0x00000001], bh ; add esp, 0x1C ; retn 0x000C ;
0x401409: and al, 0xE8 ; int1 ; adc al, byte [eax] ; add byte [ebx-0x3FE6FE08], al ; add esp, 0x1C ; ret ;
0x40270a: and al, 0xE8 ; mov eax, 0x85000001 ; sar byte [eax+0x00000000], 0x0F ; inc esp ; ret ;
0x401696: and al, 0xE8 ; push esp ; or  [eax], eax ; add byte [ebx+0x01B818C4], al ; add byte [eax], al ; add byte [ebx-0x3E], bl ; or al, 0x00 ; lea esi,  [esi+0x00000000] ; xor eax, eax ; ret ;
0x402691: and al, 0xE8 ; xchg eax, ecx ; add al, byte [eax] ; add byte [ebx-0x3FCEE73C], al ; pop ebx ; ret ;
0x4026f1: and al, 0xE8 ; xor  [edx], eax ; add byte [eax], al ; add esp, 0x18 ; xor eax, eax ; pop ebx ; ret ;
0x401f0d: and al, 0xEC ; push eax ; inc eax ; add bh, bh ; adc eax, 0x004061B8 ; mov eax,  [0x004050E4] ; sub esp, 0x04 ; mov  [0x004050E4], ebx ; mov  [ebx+0x08], eax ; mov  [esp+0x00], 0x004050EC ; call  [0x004061C4] ;
0x401f2b: and al, 0xEC ; push eax ; inc eax ; add bh, bh ; adc eax, 0x004061C4 ; xor eax, eax ; sub esp, 0x04 ; add esp, 0x18 ; pop ebx ; ret ;
0x401fc2: and al, 0xEC ; push eax ; inc eax ; add bh, bh ; adc eax, 0x004061C4 ; xor eax, eax ; sub esp, 0x04 ; add esp, 0x18 ; pop ebx ; ret ;
0x401e94: and al, 0xFF ; aad 0x89 ; mov byte [ebx-0x2800FB14], 0x85 ; div byte [esp+ecx-0x7B] ; sal byte [ebp+0x08], 0x8B ; inc ebx ; add al, 0x89 ; xor al, 0x24 ; call eax ;
0x401f5c: and byte [ebp-0x7CF08A40], al ; les ebx,  [eax] ; xor eax, eax ; pop ebx ; ret ;
0x401cb7: and byte [ebx+0x3D008B03], cl ; xchg eax, ebx ; add byte [eax], al ; ror byte [edi], 0x84 ; ret ;
0x401693: and byte [ecx+0x54E82404], cl ; or  [eax], eax ; add byte [ebx+0x01B818C4], al ; add byte [eax], al ; add byte [ebx-0x3E], bl ; or al, 0x00 ; lea esi,  [esi+0x00000000] ; xor eax, eax ; ret ;
0x401406: and byte [ecx-0x0E17DBFC], cl ; adc al, byte [eax] ; add byte [ebx-0x3FE6FE08], al ; add esp, 0x1C ; ret ;
0x402707: and byte [ecx-0x4717DBE4], cl ; add  [eax], eax ; add byte [ebp+0x0000B8C0], al ; add byte [eax], al ; cmove eax, ebx ; add esp, 0x18 ; pop ebx ; ret ;
0x401c55: and byte [ecx-0x74EFDBAC], cl ; push esp ; and al, 0x44 ; fstp qword [esp+0x28] ; mov  [esp+0x14], edx ; lea edx,  [esp+0x10] ; mov  [esp+0x00], edx ; call eax ;
0x401880: and byte [edi], cl ; inc esp ; retn 0x548B ;
0x40283a: and byte [edx+0x40], 0x00 ; nop ; nop ; jmp  [0x00406284] ;
0x4028b2: and byte [edx+0x40], ah ; add byte [eax+0x2425FF90], dl ; bound eax,  [eax+0x00] ; nop ; nop ; jmp  [0x00406228] ;
0x402949: and eax, 0x004061E0 ; nop ; nop ; jmp  [0x004061E4] ;
0x402929: and eax, 0x004061EC ; nop ; nop ; jmp  [0x004061F0] ;
0x402931: and eax, 0x004061F0 ; nop ; nop ; jmp  [0x004061F4] ;
0x402939: and eax, 0x004061F4 ; nop ; nop ; jmp  [0x004061F8] ;
0x402941: and eax, 0x004061F8 ; nop ; nop ; jmp  [0x004061E0] ;
0x402921: and eax, 0x00406200 ; nop ; nop ; jmp  [0x004061EC] ;
0x402919: and eax, 0x00406208 ; nop ; nop ; jmp  [0x00406200] ;
0x402891: and eax, 0x00406210 ; nop ; nop ; jmp  [0x00406214] ;
0x402899: and eax, 0x00406214 ; nop ; nop ; jmp  [0x00406218] ;
0x4028a1: and eax, 0x00406218 ; nop ; nop ; jmp  [0x0040621C] ;
0x4028a9: and eax, 0x0040621C ; nop ; nop ; jmp  [0x00406220] ;
0x4028b1: and eax, 0x00406220 ; nop ; nop ; jmp  [0x00406224] ;
0x4028b9: and eax, 0x00406224 ; nop ; nop ; jmp  [0x00406228] ;
0x4028c1: and eax, 0x00406228 ; nop ; nop ; jmp  [0x0040622C] ;
0x4028c9: and eax, 0x0040622C ; nop ; nop ; jmp  [0x00406230] ;
0x4028d1: and eax, 0x00406230 ; nop ; nop ; jmp  [0x00406234] ;
0x4028d9: and eax, 0x00406234 ; nop ; nop ; jmp  [0x00406238] ;
0x4028e1: and eax, 0x00406238 ; nop ; nop ; jmp  [0x0040623C] ;
0x4028e9: and eax, 0x0040623C ; nop ; nop ; jmp  [0x00406240] ;
0x4028f1: and eax, 0x00406240 ; nop ; nop ; jmp  [0x00406244] ;
0x4028f9: and eax, 0x00406244 ; nop ; nop ; jmp  [0x00406248] ;
0x402901: and eax, 0x00406248 ; nop ; nop ; jmp  [0x0040624C] ;
0x402909: and eax, 0x0040624C ; nop ; nop ; jmp  [0x00406250] ;
0x402911: and eax, 0x00406250 ; nop ; nop ; jmp  [0x00406208] ;
0x402849: and eax, 0x00406258 ; nop ; nop ; jmp  [0x0040625C] ;
0x402851: and eax, 0x0040625C ; nop ; nop ; jmp  [0x00406260] ;
0x402859: and eax, 0x00406260 ; nop ; nop ; jmp  [0x00406264] ;
0x402861: and eax, 0x00406264 ; nop ; nop ; jmp  [0x00406268] ;
0x402869: and eax, 0x00406268 ; nop ; nop ; jmp  [0x0040626C] ;
0x402871: and eax, 0x0040626C ; nop ; nop ; jmp  [0x00406270] ;
0x402879: and eax, 0x00406270 ; nop ; nop ; jmp  [0x00406274] ;
0x402881: and eax, 0x00406274 ; nop ; nop ; jmp  [0x00406278] ;
0x402889: and eax, 0x00406278 ; nop ; nop ; jmp  [0x00406210] ;
0x402839: and eax, 0x00406280 ; nop ; nop ; jmp  [0x00406284] ;
0x402841: and eax, 0x00406284 ; nop ; nop ; jmp  [0x00406258] ;
0x402821: and eax, 0x0040628C ; nop ; nop ; jmp  [0x00406290] ;
0x402829: and eax, 0x00406290 ; nop ; nop ; jmp  [0x00406294] ;
0x402831: and eax, 0x00406294 ; nop ; nop ; jmp  [0x00406280] ;
0x4014ea: and eax, 0x660CEC83 ; nop ; call eax ;
0x401381: and edx,  [0x10A10000] ; push eax ; inc eax ; add byte [ebp+0x5B59F065], cl ; pop esi ; pop edi ; pop ebp ; lea esp,  [ecx-0x04] ; ret ;
0x402923: bound eax,  [eax+0x00] ; nop ; nop ; jmp  [0x004061EC] ;
0x40291b: bound eax,  [eax+0x00] ; nop ; nop ; jmp  [0x00406200] ;
0x402913: bound eax,  [eax+0x00] ; nop ; nop ; jmp  [0x00406208] ;
0x40288b: bound eax,  [eax+0x00] ; nop ; nop ; jmp  [0x00406210] ;
0x402893: bound eax,  [eax+0x00] ; nop ; nop ; jmp  [0x00406214] ;
0x40289b: bound eax,  [eax+0x00] ; nop ; nop ; jmp  [0x00406218] ;
0x4028a3: bound eax,  [eax+0x00] ; nop ; nop ; jmp  [0x0040621C] ;
0x4028ab: bound eax,  [eax+0x00] ; nop ; nop ; jmp  [0x00406220] ;
0x4028b3: bound eax,  [eax+0x00] ; nop ; nop ; jmp  [0x00406224] ;
0x4028bb: bound eax,  [eax+0x00] ; nop ; nop ; jmp  [0x00406228] ;
0x4028c3: bound eax,  [eax+0x00] ; nop ; nop ; jmp  [0x0040622C] ;
0x4028cb: bound eax,  [eax+0x00] ; nop ; nop ; jmp  [0x00406230] ;
0x4028d3: bound eax,  [eax+0x00] ; nop ; nop ; jmp  [0x00406234] ;
0x4028db: bound eax,  [eax+0x00] ; nop ; nop ; jmp  [0x00406238] ;
0x4028e3: bound eax,  [eax+0x00] ; nop ; nop ; jmp  [0x0040623C] ;
0x4028eb: bound eax,  [eax+0x00] ; nop ; nop ; jmp  [0x00406240] ;
0x4028f3: bound eax,  [eax+0x00] ; nop ; nop ; jmp  [0x00406244] ;
0x4028fb: bound eax,  [eax+0x00] ; nop ; nop ; jmp  [0x00406248] ;
0x402903: bound eax,  [eax+0x00] ; nop ; nop ; jmp  [0x0040624C] ;
0x40290b: bound eax,  [eax+0x00] ; nop ; nop ; jmp  [0x00406250] ;
0x402843: bound eax,  [eax+0x00] ; nop ; nop ; jmp  [0x00406258] ;
0x40284b: bound eax,  [eax+0x00] ; nop ; nop ; jmp  [0x0040625C] ;
0x402853: bound eax,  [eax+0x00] ; nop ; nop ; jmp  [0x00406260] ;
0x40285b: bound eax,  [eax+0x00] ; nop ; nop ; jmp  [0x00406264] ;
0x402863: bound eax,  [eax+0x00] ; nop ; nop ; jmp  [0x00406268] ;
0x40286b: bound eax,  [eax+0x00] ; nop ; nop ; jmp  [0x0040626C] ;
0x402873: bound eax,  [eax+0x00] ; nop ; nop ; jmp  [0x00406270] ;
0x40287b: bound eax,  [eax+0x00] ; nop ; nop ; jmp  [0x00406274] ;
0x402883: bound eax,  [eax+0x00] ; nop ; nop ; jmp  [0x00406278] ;
0x402833: bound eax,  [eax+0x00] ; nop ; nop ; jmp  [0x00406280] ;
0x40283b: bound eax,  [eax+0x00] ; nop ; nop ; jmp  [0x00406284] ;
0x402823: bound eax,  [eax+0x00] ; nop ; nop ; jmp  [0x00406290] ;
0x40282b: bound eax,  [eax+0x00] ; nop ; nop ; jmp  [0x00406294] ;
0x402862: bound eax,  [fs:eax+0x00] ; nop ; nop ; jmp  [0x00406268] ;
0x401540: call  [0x0040457C+ebx*4] ;
0x40209c: call  [0x004061B4] ;
0x401e6e: call  [0x004061B8] ;
0x401f12: call  [0x004061B8] ;
0x401f77: call  [0x004061B8] ;
0x4018b0: call  [0x004061BC] ;
0x4020d7: call  [0x004061C0] ;
0x401ebc: call  [0x004061C4] ;
0x401f30: call  [0x004061C4] ;
0x401fc7: call  [0x004061C4] ;
0x401220: call  [0x004061C8] ;
0x4018a3: call  [0x004061D4] ;
0x40183b: call  [0x004061D8] ;
0x4027c3: call  [0x00406298] ;
0x4027f3: call  [0x00406298] ;
0x4013ee: call  [eax+0x50C805C7] ;
0x4015ae: call  [eax-0x6F3C3FCF] ;
0x401c21: call  [eax-0x6F6F6F70] ;
0x401e43: call  [eax-0x6F6F6F70] ;
0x4020e4: call  [eax-0x6F6F6F70] ;
0x402964: call  [eax-0x6F6F6F70] ;
0x4013fe: call  [eax-0x74E3137D] ;
0x40120f: call eax ;
0x4014f0: call eax ;
0x401666: call eax ;
0x401c6d: call eax ;
0x401d62: call eax ;
0x401db6: call eax ;
0x401df6: call eax ;
0x401eac: call eax ;
0x401e95: call ebp ;
0x401be7: call ebx ;
0x401e9c: call edi ;
0x40119f: call esi ;
0x401631: clc ; add  [ebx+ecx*2-0x7D], esi ; les ebx,  [eax] ; mov eax, 0x00000001 ; pop ebx ; retn 0x000C ;
0x40162c: clc ; add dh, byte [eax+ebx-0x7D] ; clc ; add  [ebx+ecx*2-0x7D], esi ; les ebx,  [eax] ; mov eax, 0x00000001 ; pop ebx ; retn 0x000C ;
0x4015f4: clc ; or  [eax], eax ; add byte [eax+0x00000001], bh ; add esp, 0x1C ; retn 0x000C ;
0x40131d: cld ; ret ;
0x401394: cld ; ret ;
0x402717: cmove eax, ebx ; add esp, 0x18 ; pop ebx ; ret ;
0x401881: cmove eax, edx ; mov edx,  [esp+0x14] ; add ebx,  [0x004050D4] ; mov  [ebx+0x08], ecx ; mov  [ebx+0x04], edx ; mov  [esp+0x0C], ebx ; mov  [esp+0x08], eax ; mov  [esp+0x04], ecx ; mov  [esp+0x00], edx ; call  [0x004061D4] ;
0x402123: cmp  [eax+0x18], 0x940F010B ; retn 0xD089 ;
0x402371: cmp  [edx+0x00400018], 0xF475010B ; mov eax, 0x00400000 ; ret ;
0x4022b1: cmp  [edx+0x00400018], 0xF475010B ; movzx eax, word [edx+0x00400006] ; ret ;
0x402623: cmp  [edx], eax ; add byte [eax], al ; add esp, 0x2C ; ret ;
0x4028ea: cmp al, 0x62 ; inc eax ; add byte [eax+0x4025FF90], dl ; bound eax,  [eax+0x00] ; nop ; nop ; jmp  [0x00406244] ;
0x4028e2: cmp byte [edx+0x40], ah ; add byte [eax+0x3C25FF90], dl ; bound eax,  [eax+0x00] ; nop ; nop ; jmp  [0x00406240] ;
0x401e88: cmp eax, 0x004061BC ; lea esi,  [esi+0x00] ; mov eax,  [ebx] ; mov  [esp+0x00], eax ; call ebp ;
0x40140f: cmp eax, 0x01 ; sbb eax, eax ; add esp, 0x1C ; ret ;
0x402122: cmp word [eax+0x18], 0x010B ; sete dl ; mov eax, edx ; ret ;
0x402902: dec eax ; bound eax,  [eax+0x00] ; nop ; nop ; jmp  [0x0040624C] ;
0x4024c9: dec eax ; or al, 0x5B ; pop esi ; pop edi ; add ecx, 0x00400000 ; mov eax, ecx ; ret ;
0x4027e3: dec eax ; xor byte [eax+0x00], al ; add esp, 0x0C ; ret ;
0x402813: dec eax ; xor byte [eax+0x00], al ; add esp, 0x0C ; ret ;
0x401097: dec eax ; xor eax, eax ; add esp, 0x1C ; ret ;
0x4014ca: dec ebp ; inc eax ; inc eax ; add al, ch ; int 0x10 ; add byte [eax], al ; mov eax, 0x00000000 ; leave ; ret ;
0x401634: dec ebx ; add esp, 0x18 ; mov eax, 0x00000001 ; pop ebx ; retn 0x000C ;
0x40188f: dec ebx ; or byte [ecx+0x5C890453], cl ; and al, 0x0C ; mov  [esp+0x08], eax ; mov  [esp+0x04], ecx ; mov  [esp+0x00], edx ; call  [0x004061D4] ;
0x401431: dec ecx ; ret ;
0x402481: dec edx ; or al, 0x39 ; enter 0x0772, 0x03 ; dec edx ; or byte [ecx], bh ; enter 0x1272, 0x83 ; mov byte [ecx], 0x83 ; retn 0x3928 ;
0x402488: dec edx ; or byte [ecx], bh ; enter 0x1272, 0x83 ; mov byte [ecx], 0x83 ; retn 0x3928 ;
0x40189d: dec esp ; and al, 0x04 ; mov  [esp+0x00], edx ; call  [0x004061D4] ;
0x40290a: dec esp ; bound eax,  [eax+0x00] ; nop ; nop ; jmp  [0x00406250] ;
0x402495: div  [ebp-0x18] ; xor ecx, ecx ; pop ebx ; pop esi ; mov eax, ecx ; pop edi ; ret ;
0x401e9f: div byte [esp+ecx-0x7B] ; sal byte [ebp+0x08], 0x8B ; inc ebx ; add al, 0x89 ; xor al, 0x24 ; call eax ;
0x402484: enter 0x0772, 0x03 ; dec edx ; or byte [ecx], bh ; enter 0x1272, 0x83 ; mov byte [ecx], 0x83 ; retn 0x3928 ;
0x40248b: enter 0x1272, 0x83 ; mov byte [ecx], 0x83 ; retn 0x3928 ;
0x40258c: fadd  [edx] ; add byte [eax], al ; add esp, 0x28 ; pop ebx ; ret ;
0x4021f6: fcomp  [ebx+0x5E] ; pop edi ; pop ebp ; ret ;
0x402206: fcomp  [ebx+0x5E] ; pop edi ; pop ebp ; ret ;
0x4021f1: fiadd word [ebx-0x2776E33C] ; pop ebx ; pop esi ; pop edi ; pop ebp ; ret ;
0x402344: fidiv  [ebp-0x17] ; xor eax, eax ; pop ebx ; ret ;
0x402204: fisttp  [ecx+0x5F5E5BD8] ; pop ebp ; ret ;
0x401740: fninit ; ret ;
0x401c4e: fstp qword [esp+0x18] ; fstp qword [esp+0x20] ; mov  [esp+0x10], edx ; mov edx,  [esp+0x44] ; fstp qword [esp+0x28] ; mov  [esp+0x14], edx ; lea edx,  [esp+0x10] ; mov  [esp+0x00], edx ; call eax ;
0x401c52: fstp qword [esp+0x20] ; mov  [esp+0x10], edx ; mov edx,  [esp+0x44] ; fstp qword [esp+0x28] ; mov  [esp+0x14], edx ; lea edx,  [esp+0x10] ; mov  [esp+0x00], edx ; call eax ;
0x401c5e: fstp qword [esp+0x28] ; mov  [esp+0x14], edx ; lea edx,  [esp+0x10] ; mov  [esp+0x00], edx ; call eax ;
0x401c7c: fstp st0 ; add esp, 0x3C ; ret ;
0x401c7a: fstp st0 ; fstp st0 ; add esp, 0x3C ; ret ;
0x401c78: fstp st0 ; fstp st0 ; fstp st0 ; add esp, 0x3C ; ret ;
0x4024c5: fstp tword [edi-0x18] ; mov ecx,  [eax+0x0C] ; pop ebx ; pop esi ; pop edi ; add ecx, 0x00400000 ; mov eax, ecx ; ret ;
0x401c48: fxch st0, st2 ; mov edx,  [esp+0x40] ; fstp qword [esp+0x18] ; fstp qword [esp+0x20] ; mov  [esp+0x10], edx ; mov edx,  [esp+0x44] ; fstp qword [esp+0x28] ; mov  [esp+0x14], edx ; lea edx,  [esp+0x10] ; mov  [esp+0x00], edx ; call eax ;
0x40237a: hlt ; mov eax, 0x00400000 ; ret ;
0x4022ba: hlt ; movzx eax, word [edx+0x00400006] ; ret ;
0x401924: hlt ; pop ebx ; pop esi ; pop edi ; pop ebp ; ret ;
0x401925: hlt ; pop ebx ; pop esi ; pop edi ; pop ebp ; ret ;
0x401bf8: hlt ; pop ebx ; pop esi ; pop edi ; pop ebp ; ret ;
0x401bf9: hlt ; pop ebx ; pop esi ; pop edi ; pop ebp ; ret ;
0x402083: in al, 0x50 ; inc eax ; add byte [eax], al ; add byte [eax], al ; add bh, al ; add eax, 0x004050E8 ; add byte [eax], al ; add byte [eax], al ; mov  [esp+0x00], 0x004050EC ; call  [0x004061B4] ;
0x401bea: in al, dx ; adc byte [ebx+0x3D3B01C7], al ; rcl byte [eax+0x40], 1 ; add byte [ecx+ecx*8-0x73], bh ; hlt ; pop ebx ; pop esi ; pop edi ; pop ebp ; ret ;
0x401f39: in al, dx ; add al, 0x83 ; les ebx,  [eax] ; pop ebx ; ret ;
0x401fd0: in al, dx ; add al, 0x83 ; les ebx,  [eax] ; pop ebx ; ret ;
0x401ec3: in al, dx ; add al, 0x83 ; les ebx,  [ebx+ebx*2] ; pop esi ; pop edi ; pop ebp ; ret ;
0x401f1e: in al, dx ; add al, 0x89 ; sbb eax, 0x004050E4 ; mov  [ebx+0x08], eax ; mov  [esp+0x00], 0x004050EC ; call  [0x004061C4] ;
0x4014ec: in al, dx ; or al, 0x66 ; nop ; call eax ;
0x401f0e: in al, dx ; push eax ; inc eax ; add bh, bh ; adc eax, 0x004061B8 ; mov eax,  [0x004050E4] ; sub esp, 0x04 ; mov  [0x004050E4], ebx ; mov  [ebx+0x08], eax ; mov  [esp+0x00], 0x004050EC ; call  [0x004061C4] ;
0x401f2c: in al, dx ; push eax ; inc eax ; add bh, bh ; adc eax, 0x004061C4 ; xor eax, eax ; sub esp, 0x04 ; add esp, 0x18 ; pop ebx ; ret ;
0x401fc3: in al, dx ; push eax ; inc eax ; add bh, bh ; adc eax, 0x004061C4 ; xor eax, eax ; sub esp, 0x04 ; add esp, 0x18 ; pop ebx ; ret ;
0x401672: in eax, dx ; add esp, 0x18 ; mov eax, 0x00000001 ; pop ebx ; retn 0x000C ;
0x401be2: inc eax ; add al, 0x89 ; add al, 0x24 ; call ebx ;
0x4027db: inc eax ; add al, ch ; add byte [eax], al ; add byte [ebx+0x00403048], ah ; add esp, 0x0C ; ret ;
0x4014cc: inc eax ; add al, ch ; int 0x10 ; add byte [eax], al ; mov eax, 0x00000000 ; leave ; ret ;
0x401153: inc eax ; add al, ch ; out 0x14, al ; add byte [eax], al ; add esp, 0x2C ; ret ;
0x40280b: inc eax ; add al, ch ; push cs ; add byte [eax], al ; add byte [ebx+0x00403048], ah ; add esp, 0x0C ; ret ;
0x40114c: inc eax ; add bh, al ; add al, 0x24 ; sbb al, 0x50 ; inc eax ; add al, ch ; out 0x14, al ; add byte [eax], al ; add esp, 0x2C ; ret ;
0x401f10: inc eax ; add bh, bh ; adc eax, 0x004061B8 ; mov eax,  [0x004050E4] ; sub esp, 0x04 ; mov  [0x004050E4], ebx ; mov  [ebx+0x08], eax ; mov  [esp+0x00], 0x004050EC ; call  [0x004061C4] ;
0x401eba: inc eax ; add bh, bh ; adc eax, 0x004061C4 ; sub esp, 0x04 ; add esp, 0x1C ; pop ebx ; pop esi ; pop edi ; pop ebp ; ret ;
0x401f2e: inc eax ; add bh, bh ; adc eax, 0x004061C4 ; xor eax, eax ; sub esp, 0x04 ; add esp, 0x18 ; pop ebx ; ret ;
0x401fc5: inc eax ; add bh, bh ; adc eax, 0x004061C4 ; xor eax, eax ; sub esp, 0x04 ; add esp, 0x18 ; pop ebx ; ret ;
0x40291c: inc eax ; add byte [eax+0x0025FF90], dl ; bound eax,  [eax+0x00] ; nop ; nop ; jmp  [0x004061EC] ;
0x402914: inc eax ; add byte [eax+0x0825FF90], dl ; bound eax,  [eax+0x00] ; nop ; nop ; jmp  [0x00406200] ;
0x40288c: inc eax ; add byte [eax+0x1025FF90], dl ; bound eax,  [eax+0x00] ; nop ; nop ; jmp  [0x00406214] ;
0x402894: inc eax ; add byte [eax+0x1425FF90], dl ; bound eax,  [eax+0x00] ; nop ; nop ; jmp  [0x00406218] ;
0x40289c: inc eax ; add byte [eax+0x1825FF90], dl ; bound eax,  [eax+0x00] ; nop ; nop ; jmp  [0x0040621C] ;
0x4028a4: inc eax ; add byte [eax+0x1C25FF90], dl ; bound eax,  [eax+0x00] ; nop ; nop ; jmp  [0x00406220] ;
0x4028ac: inc eax ; add byte [eax+0x2025FF90], dl ; bound eax,  [eax+0x00] ; nop ; nop ; jmp  [0x00406224] ;
0x4028b4: inc eax ; add byte [eax+0x2425FF90], dl ; bound eax,  [eax+0x00] ; nop ; nop ; jmp  [0x00406228] ;
0x4028bc: inc eax ; add byte [eax+0x2825FF90], dl ; bound eax,  [eax+0x00] ; nop ; nop ; jmp  [0x0040622C] ;
0x4028c4: inc eax ; add byte [eax+0x2C25FF90], dl ; bound eax,  [eax+0x00] ; nop ; nop ; jmp  [0x00406230] ;
0x4028cc: inc eax ; add byte [eax+0x3025FF90], dl ; bound eax,  [eax+0x00] ; nop ; nop ; jmp  [0x00406234] ;
0x4028d4: inc eax ; add byte [eax+0x3425FF90], dl ; bound eax,  [eax+0x00] ; nop ; nop ; jmp  [0x00406238] ;
0x4028dc: inc eax ; add byte [eax+0x3825FF90], dl ; bound eax,  [eax+0x00] ; nop ; nop ; jmp  [0x0040623C] ;
0x4028e4: inc eax ; add byte [eax+0x3C25FF90], dl ; bound eax,  [eax+0x00] ; nop ; nop ; jmp  [0x00406240] ;
0x4028ec: inc eax ; add byte [eax+0x4025FF90], dl ; bound eax,  [eax+0x00] ; nop ; nop ; jmp  [0x00406244] ;
0x4028f4: inc eax ; add byte [eax+0x4425FF90], dl ; bound eax,  [eax+0x00] ; nop ; nop ; jmp  [0x00406248] ;
0x4028fc: inc eax ; add byte [eax+0x4825FF90], dl ; bound eax,  [eax+0x00] ; nop ; nop ; jmp  [0x0040624C] ;
0x402904: inc eax ; add byte [eax+0x4C25FF90], dl ; bound eax,  [eax+0x00] ; nop ; nop ; jmp  [0x00406250] ;
0x40290c: inc eax ; add byte [eax+0x5025FF90], dl ; bound eax,  [eax+0x00] ; nop ; nop ; jmp  [0x00406208] ;
0x402844: inc eax ; add byte [eax+0x5825FF90], dl ; bound eax,  [eax+0x00] ; nop ; nop ; jmp  [0x0040625C] ;
0x40284c: inc eax ; add byte [eax+0x5C25FF90], dl ; bound eax,  [eax+0x00] ; nop ; nop ; jmp  [0x00406260] ;
0x402854: inc eax ; add byte [eax+0x6025FF90], dl ; bound eax,  [eax+0x00] ; nop ; nop ; jmp  [0x00406264] ;
0x40285c: inc eax ; add byte [eax+0x6425FF90], dl ; bound eax,  [eax+0x00] ; nop ; nop ; jmp  [0x00406268] ;
0x402864: inc eax ; add byte [eax+0x6825FF90], dl ; bound eax,  [eax+0x00] ; nop ; nop ; jmp  [0x0040626C] ;
0x40286c: inc eax ; add byte [eax+0x6C25FF90], dl ; bound eax,  [eax+0x00] ; nop ; nop ; jmp  [0x00406270] ;
0x402874: inc eax ; add byte [eax+0x7025FF90], dl ; bound eax,  [eax+0x00] ; nop ; nop ; jmp  [0x00406274] ;
0x40287c: inc eax ; add byte [eax+0x7425FF90], dl ; bound eax,  [eax+0x00] ; nop ; nop ; jmp  [0x00406278] ;
0x402884: inc eax ; add byte [eax+0x7825FF90], dl ; bound eax,  [eax+0x00] ; nop ; nop ; jmp  [0x00406210] ;
0x40282c: inc eax ; add byte [eax-0x6BDA0070], dl ; bound eax,  [eax+0x00] ; nop ; nop ; jmp  [0x00406280] ;
0x402824: inc eax ; add byte [eax-0x6FDA0070], dl ; bound eax,  [eax+0x00] ; nop ; nop ; jmp  [0x00406294] ;
0x40283c: inc eax ; add byte [eax-0x7BDA0070], dl ; bound eax,  [eax+0x00] ; nop ; nop ; jmp  [0x00406258] ;
0x402834: inc eax ; add byte [eax-0x7FDA0070], dl ; bound eax,  [eax+0x00] ; nop ; nop ; jmp  [0x00406284] ;
0x402085: inc eax ; add byte [eax], al ; add byte [eax], al ; add bh, al ; add eax, 0x004050E8 ; add byte [eax], al ; add byte [eax], al ; mov  [esp+0x00], 0x004050EC ; call  [0x004061B4] ;
0x401879: inc eax ; add byte [eax], al ; add byte [ebx+0x0F20244C], cl ; inc esp ; retn 0x548B ;
0x401e8b: inc eax ; add byte [ebp+0x038B0076], cl ; mov  [esp+0x00], eax ; call ebp ;
0x401bc4: inc eax ; add byte [ebp+0x048DBF04], cl ; or byte [ebx+0x74D28510], 0x1A ; mov  [esp+0x0C], esi ; mov  [esp+0x08], edx ; mov edx,  [eax+0x08] ; mov  [esp+0x04], edx ; mov eax,  [eax+0x04] ; mov  [esp+0x00], eax ; call ebx ;
0x401388: inc eax ; add byte [ebp+0x5B59F065], cl ; pop esi ; pop edi ; pop ebp ; lea esp,  [ecx-0x04] ; ret ;
0x402447: inc eax ; add byte [ebp+ecx+0x5B], dh ; mov eax, ecx ; pop esi ; pop edi ; ret ;
0x40166f: inc eax ; add byte [ebp-0x13], dh ; add esp, 0x18 ; mov eax, 0x00000001 ; pop ebx ; retn 0x000C ;
0x4011f2: inc eax ; add byte [ebp-0x38E38B40], al ; inc esp ; and al, 0x08 ; add byte [eax], al ; add byte [eax], al ; mov  [esp+0x04], 0x00000002 ; mov  [esp+0x00], 0x00000000 ; call eax ;
0x40200a: inc eax ; add byte [ebp-0x437BF040], al ; add byte [eax], al ; add bh, al ; add eax, 0x004050E8 ; add  [eax], eax ; add byte [eax], al ; add esp, 0x18 ; mov eax, 0x00000001 ; pop ebx ; ret ;
0x40130d: inc eax ; add byte [ebp-0x72928B2E], al ; lock pop ecx ; pop ebx ; pop esi ; pop edi ; pop ebp ; lea esp,  [ecx-0x04] ; ret ;
0x40191d: inc eax ; add byte [ebp-0x72F28B01], al ; hlt ; pop ebx ; pop esi ; pop edi ; pop ebp ; ret ;
0x401d13: inc eax ; add byte [ebp-0x76A88B40], al ; pop esp ; and al, 0x20 ; add esp, 0x18 ; pop ebx ; jmp eax ;
0x401501: inc eax ; add byte [ebp-0x7C168A40], al ; les ecx,  [ebx+eax*8] ; lea esi,  [esi+0x00] ; ret ;
0x4027e5: inc eax ; add byte [ebx+0x2EC30CC4], al ; lea esi,  [esi+0x00] ; sub esp, 0x0C ; call  [0x00406298] ;
0x401e85: inc eax ; add byte [ebx+0x4061BC3D], cl ; add byte [ebp+0x038B0076], cl ; mov  [esp+0x00], eax ; call ebp ;
0x4014e3: inc eax ; add byte [ebx+0x74C08500], cl ; and eax, 0x660CEC83 ; nop ; call eax ;
0x401ec0: inc eax ; add byte [ebx-0x3B7CFB14], al ; sbb al, 0x5B ; pop esi ; pop edi ; pop ebp ; ret ;
0x402815: inc eax ; add byte [ebx-0x6F3CF33C], al ; nop ; nop ; nop ; nop ; jmp  [0x0040628C] ;
0x401f57: inc eax ; add byte [ebx-0x7ADFDBA4], cl ; sal byte [ebp+0x0F], 0x83 ; les ebx,  [eax] ; xor eax, eax ; pop ebx ; ret ;
0x402375: inc eax ; add byte [ebx], cl ; add  [ebp-0x0C], esi ; mov eax, 0x00400000 ; ret ;
0x4022b5: inc eax ; add byte [ebx], cl ; add  [ebp-0x0C], esi ; movzx eax, word [edx+0x00400006] ; ret ;
0x401f16: inc eax ; add byte [ecx+0x004050E4], ah ; sub esp, 0x04 ; mov  [0x004050E4], ebx ; mov  [ebx+0x08], eax ; mov  [esp+0x00], 0x004050EC ; call  [0x004061C4] ;
0x40188c: inc eax ; add byte [ecx+0x5389084B], cl ; add al, 0x89 ; pop esp ; and al, 0x0C ; mov  [esp+0x08], eax ; mov  [esp+0x04], ecx ; mov  [esp+0x00], edx ; call  [0x004061D4] ;
0x401bf3: inc eax ; add byte [ecx+ecx*8-0x73], bh ; hlt ; pop ebx ; pop esi ; pop edi ; pop ebp ; ret ;
0x401864: inc eax ; add byte [ecx], al ; add esp, 0x30 ; pop ebx ; pop esi ; pop edi ; ret ;
0x401f34: inc eax ; add byte [ecx], dh ; rol byte [ebx-0x3B7CFB14], 0x18 ; pop ebx ; ret ;
0x401fcb: inc eax ; add byte [ecx], dh ; rol byte [ebx-0x3B7CFB14], 0x18 ; pop ebx ; ret ;
0x4022f6: inc eax ; add byte [esi+eax+0x5B], dh ; ret ;
0x4028f2: inc eax ; bound eax,  [eax+0x00] ; nop ; nop ; jmp  [0x00406244] ;
0x401c4d: inc eax ; fstp qword [esp+0x18] ; fstp qword [esp+0x20] ; mov  [esp+0x10], edx ; mov edx,  [esp+0x44] ; fstp qword [esp+0x28] ; mov  [esp+0x14], edx ; lea edx,  [esp+0x10] ; mov  [esp+0x00], edx ; call eax ;
0x4014cb: inc eax ; inc eax ; add al, ch ; int 0x10 ; add byte [eax], al ; mov eax, 0x00000000 ; leave ; ret ;
0x4011f1: inc eax ; inc eax ; add byte [ebp-0x38E38B40], al ; inc esp ; and al, 0x08 ; add byte [eax], al ; add byte [eax], al ; mov  [esp+0x04], 0x00000002 ; mov  [esp+0x00], 0x00000000 ; call eax ;
0x40166e: inc ebp ; inc eax ; add byte [ebp-0x13], dh ; add esp, 0x18 ; mov eax, 0x00000001 ; pop ebx ; retn 0x000C ;
0x401ea7: inc ebx ; add al, 0x89 ; xor al, 0x24 ; call eax ;
0x40199f: inc ebx ; or byte [ebx-0x7AF0FE08], al ; push 0x83000002 ; ret ;
0x401dae: inc edi ; add al, 0x24 ; or byte [eax], al ; add byte [eax], al ; call eax ;
0x401822: inc edi ; or al, 0x89 ; inc esp ; sbb cl, byte [0xC7142454+ecx*4] ; inc esp ; and al, 0x08 ; sbb al, 0x00 ; add byte [eax], al ; mov  [esp+0x04], edx ; mov  [esp+0x00], eax ; call  [0x004061D8] ;
0x401efd: inc edx ; mov eax,  [esp+0x20] ; mov  [ebx], eax ; mov eax,  [esp+0x24] ; mov  [ebx+0x04], eax ; mov  [esp+0x00], 0x004050EC ; call  [0x004061B8] ;
0x401201: inc esp ; and al, 0x04 ; add al, byte [eax] ; add byte [eax], al ; mov  [esp+0x00], 0x00000000 ; call eax ;
0x4011f9: inc esp ; and al, 0x08 ; add byte [eax], al ; add byte [eax], al ; mov  [esp+0x04], 0x00000002 ; mov  [esp+0x00], 0x00000000 ; call eax ;
0x401899: inc esp ; and al, 0x08 ; mov  [esp+0x04], ecx ; mov  [esp+0x00], edx ; call  [0x004061D4] ;
0x40182d: inc esp ; and al, 0x08 ; sbb al, 0x00 ; add byte [eax], al ; mov  [esp+0x04], edx ; mov  [esp+0x00], eax ; call  [0x004061D8] ;
0x401eff: inc esp ; and al, 0x20 ; mov  [ebx], eax ; mov eax,  [esp+0x24] ; mov  [ebx+0x04], eax ; mov  [esp+0x00], 0x004050EC ; call  [0x004061B8] ;
0x401f05: inc esp ; and al, 0x24 ; mov  [ebx+0x04], eax ; mov  [esp+0x00], 0x004050EC ; call  [0x004061B8] ;
0x4028fa: inc esp ; bound eax,  [eax+0x00] ; nop ; nop ; jmp  [0x00406248] ;
0x401c5d: inc esp ; fstp qword [esp+0x28] ; mov  [esp+0x14], edx ; lea edx,  [esp+0x10] ; mov  [esp+0x00], edx ; call eax ;
0x402718: inc esp ; ret ;
0x401882: inc esp ; retn 0x548B ;
0x4010a8: inc esp ; sbb byte [eax], al ; add bl, ch ; retn 0x9066 ;
0x401825: inc esp ; sbb cl, byte [0xC7142454+ecx*4] ; inc esp ; and al, 0x08 ; sbb al, 0x00 ; add byte [eax], al ; mov  [esp+0x04], edx ; mov  [esp+0x00], eax ; call  [0x004061D8] ;
0x402872: insb ; bound eax,  [eax+0x00] ; nop ; nop ; jmp  [0x00406270] ;
0x401312: insd ; lea esp,  [ebp-0x10] ; pop ecx ; pop ebx ; pop esi ; pop edi ; pop ebp ; lea esp,  [ecx-0x04] ; ret ;
0x4014cf: int 0x10 ; add byte [eax], al ; mov eax, 0x00000000 ; leave ; ret ;
0x40140b: int1 ; adc al, byte [eax] ; add byte [ebx-0x3FE6FE08], al ; add esp, 0x1C ; ret ;
0x40191b: int3 ; push eax ; inc eax ; add byte [ebp-0x72F28B01], al ; hlt ; pop ebx ; pop esi ; pop edi ; pop ebp ; ret ;
0x402948: jmp  [0x004061E0] ;
0x402950: jmp  [0x004061E4] ;
0x402928: jmp  [0x004061EC] ;
0x402930: jmp  [0x004061F0] ;
0x402938: jmp  [0x004061F4] ;
0x402940: jmp  [0x004061F8] ;
0x402920: jmp  [0x00406200] ;
0x402918: jmp  [0x00406208] ;
0x402890: jmp  [0x00406210] ;
0x402898: jmp  [0x00406214] ;
0x4028a0: jmp  [0x00406218] ;
0x4028a8: jmp  [0x0040621C] ;
0x4028b0: jmp  [0x00406220] ;
0x4028b8: jmp  [0x00406224] ;
0x4028c0: jmp  [0x00406228] ;
0x4028c8: jmp  [0x0040622C] ;
0x4028d0: jmp  [0x00406230] ;
0x4028d8: jmp  [0x00406234] ;
0x4028e0: jmp  [0x00406238] ;
0x4028e8: jmp  [0x0040623C] ;
0x4028f0: jmp  [0x00406240] ;
0x4028f8: jmp  [0x00406244] ;
0x402900: jmp  [0x00406248] ;
0x402908: jmp  [0x0040624C] ;
0x402910: jmp  [0x00406250] ;
0x402848: jmp  [0x00406258] ;
0x402850: jmp  [0x0040625C] ;
0x402858: jmp  [0x00406260] ;
0x402860: jmp  [0x00406264] ;
0x402868: jmp  [0x00406268] ;
0x402870: jmp  [0x0040626C] ;
0x402878: jmp  [0x00406270] ;
0x402880: jmp  [0x00406274] ;
0x402888: jmp  [0x00406278] ;
0x402838: jmp  [0x00406280] ;
0x402840: jmp  [0x00406284] ;
0x402820: jmp  [0x0040628C] ;
0x402828: jmp  [0x00406290] ;
0x402830: jmp  [0x00406294] ;
0x4014a3: jmp  [ecx+0x00403000] ;
0x4018d6: jmp  [ecx+0x004050D4] ;
0x40137d: jmp  [esi-0x70] ;
0x401b04: jmp  [esi-0x77] ;
0x401d21: jmp eax ;
0x401c66: lea edx,  [esp+0x10] ; mov  [esp+0x00], edx ; call eax ;
0x401828: lea edx,  [esp+0x14] ; mov  [esp+0x08], 0x0000001C ; mov  [esp+0x04], edx ; mov  [esp+0x00], eax ; call  [0x004061D8] ;
0x401c71: lea esi,  [esi+0x00000000] ; fstp st0 ; fstp st0 ; fstp st0 ; add esp, 0x3C ; ret ;
0x401533: lea esi,  [esi+0x00000000] ; lea esi,  [esi+0x00] ; call  [0x0040457C+ebx*4] ;
0x401534: lea esi,  [esi+0x00000000] ; lea esi,  [esi+0x00] ; call  [0x0040457C+ebx*4] ;
0x401434: lea esi,  [esi+0x00000000] ; lea esi,  [esi+0x00] ; ret ;
0x401435: lea esi,  [esi+0x00000000] ; lea esi,  [esi+0x00] ; ret ;
0x401f68: lea esi,  [esi+0x00000000] ; mov  [esp+0x00], 0x004050EC ; call  [0x004061B8] ;
0x401f69: lea esi,  [esi+0x00000000] ; mov  [esp+0x00], 0x004050EC ; call  [0x004061B8] ;
0x4020c7: lea esi,  [esi+0x00000000] ; nop ; mov  [esp+0x00], 0x004050EC ; call  [0x004061C0] ;
0x4020c8: lea esi,  [esi+0x00000000] ; nop ; mov  [esp+0x00], 0x004050EC ; call  [0x004061C0] ;
0x401d66: lea esi,  [esi+0x00000000] ; nop ; xor eax, eax ; add esp, 0x18 ; pop ebx ; retn 0x0004 ;
0x401d67: lea esi,  [esi+0x00000000] ; nop ; xor eax, eax ; add esp, 0x18 ; pop ebx ; retn 0x0004 ;
0x4016a8: lea esi,  [esi+0x00000000] ; xor eax, eax ; ret ;
0x4016a9: lea esi,  [esi+0x00000000] ; xor eax, eax ; ret ;
0x4021fc: lea esi,  [esi+0x00] ; add esp, 0x1C ; xor ebx, ebx ; mov eax, ebx ; pop ebx ; pop esi ; pop edi ; pop ebp ; ret ;
0x40153b: lea esi,  [esi+0x00] ; call  [0x0040457C+ebx*4] ;
0x40153c: lea esi,  [esi+0x00] ; call  [0x0040457C+ebx*4] ;
0x401e8d: lea esi,  [esi+0x00] ; mov eax,  [ebx] ; mov  [esp+0x00], eax ; call ebp ;
0x40143c: lea esi,  [esi+0x00] ; ret ;
0x40150b: lea esi,  [esi+0x00] ; ret ;
0x40150c: lea esi,  [esi+0x00] ; ret ;
0x4027bb: lea esi,  [esi+0x00] ; sub esp, 0x0C ; call  [0x00406298] ;
0x4027bc: lea esi,  [esi+0x00] ; sub esp, 0x0C ; call  [0x00406298] ;
0x4027eb: lea esi,  [esi+0x00] ; sub esp, 0x0C ; call  [0x00406298] ;
0x4027ec: lea esi,  [esi+0x00] ; sub esp, 0x0C ; call  [0x00406298] ;
0x40211b: lea esi,  [esi+0x00] ; xor edx, edx ; cmp word [eax+0x18], 0x010B ; sete dl ; mov eax, edx ; ret ;
0x40211c: lea esi,  [esi+0x00] ; xor edx, edx ; cmp word [eax+0x18], 0x010B ; sete dl ; mov eax, edx ; ret ;
0x401923: lea esp,  [ebp-0x0C] ; pop ebx ; pop esi ; pop edi ; pop ebp ; ret ;
0x401bf7: lea esp,  [ebp-0x0C] ; pop ebx ; pop esi ; pop edi ; pop ebp ; ret ;
0x401313: lea esp,  [ebp-0x10] ; pop ecx ; pop ebx ; pop esi ; pop edi ; pop ebp ; lea esp,  [ecx-0x04] ; ret ;
0x40138a: lea esp,  [ebp-0x10] ; pop ecx ; pop ebx ; pop esi ; pop edi ; pop ebp ; lea esp,  [ecx-0x04] ; ret ;
0x40131b: lea esp,  [ecx-0x04] ; ret ;
0x401392: lea esp,  [ecx-0x04] ; ret ;
0x401bf6: leave ; lea esp,  [ebp-0x0C] ; pop ebx ; pop esi ; pop edi ; pop ebp ; ret ;
0x401dee: leave ; mov  [esp+0x00], 0x0000000B ; call eax ;
0x402499: leave ; pop ebx ; pop esi ; mov eax, ecx ; pop edi ; ret ;
0x401432: leave ; ret ;
0x40148f: leave ; ret ;
0x4014d8: leave ; ret ;
0x402591: les ebp,  [eax] ; pop ebx ; ret ;
0x4025e1: les ebp,  [eax] ; pop ebx ; ret ;
0x4027b8: les ebp,  [ebx+eax*8] ; lea esi,  [esi+0x00] ; sub esp, 0x0C ; call  [0x00406298] ;
0x402628: les ebp,  [ebx+eax*8] ; nop ; nop ; nop ; nop ; nop ; xor eax, eax ; ret ;
0x40201f: les ebx,  [eax] ; mov eax, 0x00000001 ; pop ebx ; ret ;
0x4020b6: les ebx,  [eax] ; mov eax, 0x00000001 ; pop ebx ; ret ;
0x401636: les ebx,  [eax] ; mov eax, 0x00000001 ; pop ebx ; retn 0x000C ;
0x401674: les ebx,  [eax] ; mov eax, 0x00000001 ; pop ebx ; retn 0x000C ;
0x40169d: les ebx,  [eax] ; mov eax, 0x00000001 ; pop ebx ; retn 0x000C ;
0x401d1e: les ebx,  [eax] ; pop ebx ; jmp eax ;
0x401559: les ebx,  [eax] ; pop ebx ; ret ;
0x401f3c: les ebx,  [eax] ; pop ebx ; ret ;
0x401fd3: les ebx,  [eax] ; pop ebx ; ret ;
0x40271b: les ebx,  [eax] ; pop ebx ; ret ;
0x401d73: les ebx,  [eax] ; pop ebx ; retn 0x0004 ;
0x401f62: les ebx,  [eax] ; xor eax, eax ; pop ebx ; ret ;
0x402698: les ebx,  [eax] ; xor eax, eax ; pop ebx ; ret ;
0x4026f8: les ebx,  [eax] ; xor eax, eax ; pop ebx ; ret ;
0x401ec6: les ebx,  [ebx+ebx*2] ; pop esi ; pop edi ; pop ebp ; ret ;
0x4021f3: les ebx,  [ecx+ecx*4] ; fcomp  [ebx+0x5E] ; pop edi ; pop ebp ; ret ;
0x402201: les ebx,  [ecx+esi] ; fisttp  [ecx+0x5F5E5BD8] ; pop ebp ; ret ;
0x401508: les ecx,  [ebx+eax*8] ; lea esi,  [esi+0x00] ; ret ;
0x4027e8: les ecx,  [ebx+eax*8] ; lea esi,  [esi+0x00] ; sub esp, 0x0C ; call  [0x00406298] ;
0x402818: les ecx,  [ebx+eax*8] ; nop ; nop ; nop ; nop ; nop ; jmp  [0x0040628C] ;
0x401734: les edx,  [ecx+esi-0x40] ; pop ebx ; pop esi ; ret ;
0x401868: les esi,  [eax] ; pop ebx ; pop esi ; pop edi ; ret ;
0x401ebe: les esp,  [ecx+0x40] ; add byte [ebx-0x3B7CFB14], al ; sbb al, 0x5B ; pop esi ; pop edi ; pop ebp ; ret ;
0x401f32: les esp,  [ecx+0x40] ; add byte [ecx], dh ; rol byte [ebx-0x3B7CFB14], 0x18 ; pop ebx ; ret ;
0x401fc9: les esp,  [ecx+0x40] ; add byte [ecx], dh ; rol byte [ebx-0x3B7CFB14], 0x18 ; pop ebx ; ret ;
0x401314: lock pop ecx ; pop ebx ; pop esi ; pop edi ; pop ebp ; lea esp,  [ecx-0x04] ; ret ;
0x401315: lock pop ecx ; pop ebx ; pop esi ; pop edi ; pop ebp ; lea esp,  [ecx-0x04] ; ret ;
0x40138b: lock pop ecx ; pop ebx ; pop esi ; pop edi ; pop ebp ; lea esp,  [ecx-0x04] ; ret ;
0x40138c: lock pop ecx ; pop ebx ; pop esi ; pop edi ; pop ebp ; lea esp,  [ecx-0x04] ; ret ;
0x4027e2: mov  [0x00403048], eax ; add esp, 0x0C ; ret ;
0x402812: mov  [0x00403048], eax ; add esp, 0x0C ; ret ;
0x402081: mov  [0x004050E4], 0x00000000 ; mov  [0x004050E8], 0x00000000 ; mov  [esp+0x00], 0x004050EC ; call  [0x004061B4] ;
0x401f20: mov  [0x004050E4], ebx ; mov  [ebx+0x08], eax ; mov  [esp+0x00], 0x004050EC ; call  [0x004061C4] ;
0x40208b: mov  [0x004050E8], 0x00000000 ; mov  [esp+0x00], 0x004050EC ; call  [0x004061B4] ;
0x402014: mov  [0x004050E8], 0x00000001 ; add esp, 0x18 ; mov eax, 0x00000001 ; pop ebx ; ret ;
0x401f08: mov  [ebx+0x04], eax ; mov  [esp+0x00], 0x004050EC ; call  [0x004061B8] ;
0x401891: mov  [ebx+0x04], edx ; mov  [esp+0x0C], ebx ; mov  [esp+0x08], eax ; mov  [esp+0x04], ecx ; mov  [esp+0x00], edx ; call  [0x004061D4] ;
0x401f26: mov  [ebx+0x08], eax ; mov  [esp+0x00], 0x004050EC ; call  [0x004061C4] ;
0x40188e: mov  [ebx+0x08], ecx ; mov  [ebx+0x04], edx ; mov  [esp+0x0C], ebx ; mov  [esp+0x08], eax ; mov  [esp+0x04], ecx ; mov  [esp+0x00], edx ; call  [0x004061D4] ;
0x401f02: mov  [ebx], eax ; mov eax,  [esp+0x24] ; mov  [ebx+0x04], eax ; mov  [esp+0x00], 0x004050EC ; call  [0x004061B8] ;
0x401bed: mov  [ecx], 0x50D03D3B ; inc eax ; add byte [ecx+ecx*8-0x73], bh ; hlt ; pop ebx ; pop esi ; pop edi ; pop ebp ; ret ;
0x401824: mov  [edx+ebx+0x0C], eax ; lea edx,  [esp+0x14] ; mov  [esp+0x08], 0x0000001C ; mov  [esp+0x04], edx ; mov  [esp+0x00], eax ; call  [0x004061D8] ;
0x401208: mov  [esp+0x00], 0x00000000 ; call eax ;
0x401d5b: mov  [esp+0x00], 0x00000004 ; call eax ;
0x401daf: mov  [esp+0x00], 0x00000008 ; call eax ;
0x401def: mov  [esp+0x00], 0x0000000B ; call eax ;
0x401198: mov  [esp+0x00], 0x000003E8 ; call esi ;
0x401219: mov  [esp+0x00], 0x00401CB0 ; call  [0x004061C8] ;
0x402095: mov  [esp+0x00], 0x004050EC ; call  [0x004061B4] ;
0x401e67: mov  [esp+0x00], 0x004050EC ; call  [0x004061B8] ;
0x401f0b: mov  [esp+0x00], 0x004050EC ; call  [0x004061B8] ;
0x401f70: mov  [esp+0x00], 0x004050EC ; call  [0x004061B8] ;
0x4020d0: mov  [esp+0x00], 0x004050EC ; call  [0x004061C0] ;
0x401eb5: mov  [esp+0x00], 0x004050EC ; call  [0x004061C4] ;
0x401f29: mov  [esp+0x00], 0x004050EC ; call  [0x004061C4] ;
0x401fc0: mov  [esp+0x00], 0x004050EC ; call  [0x004061C4] ;
0x401838: mov  [esp+0x00], eax ; call  [0x004061D8] ;
0x401e92: mov  [esp+0x00], eax ; call ebp ;
0x401be4: mov  [esp+0x00], eax ; call ebx ;
0x4018a0: mov  [esp+0x00], edx ; call  [0x004061D4] ;
0x401c6a: mov  [esp+0x00], edx ; call eax ;
0x401ea9: mov  [esp+0x00], esi ; call eax ;
0x401200: mov  [esp+0x04], 0x00000002 ; mov  [esp+0x00], 0x00000000 ; call eax ;
0x40189c: mov  [esp+0x04], ecx ; mov  [esp+0x00], edx ; call  [0x004061D4] ;
0x401834: mov  [esp+0x04], edx ; mov  [esp+0x00], eax ; call  [0x004061D8] ;
0x401bdd: mov  [esp+0x04], edx ; mov eax,  [eax+0x04] ; mov  [esp+0x00], eax ; call ebx ;
0x4011f8: mov  [esp+0x08], 0x00000000 ; mov  [esp+0x04], 0x00000002 ; mov  [esp+0x00], 0x00000000 ; call eax ;
0x40182c: mov  [esp+0x08], 0x0000001C ; mov  [esp+0x04], edx ; mov  [esp+0x00], eax ; call  [0x004061D8] ;
0x401898: mov  [esp+0x08], eax ; mov  [esp+0x04], ecx ; mov  [esp+0x00], edx ; call  [0x004061D4] ;
0x401bd6: mov  [esp+0x08], edx ; mov edx,  [eax+0x08] ; mov  [esp+0x04], edx ; mov eax,  [eax+0x04] ; mov  [esp+0x00], eax ; call ebx ;
0x401894: mov  [esp+0x0C], ebx ; mov  [esp+0x08], eax ; mov  [esp+0x04], ecx ; mov  [esp+0x00], edx ; call  [0x004061D4] ;
0x401bd2: mov  [esp+0x0C], esi ; mov  [esp+0x08], edx ; mov edx,  [eax+0x08] ; mov  [esp+0x04], edx ; mov eax,  [eax+0x04] ; mov  [esp+0x00], eax ; call ebx ;
0x401c56: mov  [esp+0x10], edx ; mov edx,  [esp+0x44] ; fstp qword [esp+0x28] ; mov  [esp+0x14], edx ; lea edx,  [esp+0x10] ; mov  [esp+0x00], edx ; call eax ;
0x401c62: mov  [esp+0x14], edx ; lea edx,  [esp+0x10] ; mov  [esp+0x00], edx ; call eax ;
0x401d19: mov  [esp+0x20], ebx ; add esp, 0x18 ; pop ebx ; jmp eax ;
0x401c72: mov ah, 0x26 ; add byte [eax], al ; add byte [eax], al ; fstp st0 ; fstp st0 ; fstp st0 ; add esp, 0x3C ; ret ;
0x401535: mov ah, 0x26 ; add byte [eax], al ; add byte [eax], al ; lea esi,  [esi+0x00] ; call  [0x0040457C+ebx*4] ;
0x401436: mov ah, 0x26 ; add byte [eax], al ; add byte [eax], al ; lea esi,  [esi+0x00] ; ret ;
0x401f6a: mov ah, 0x26 ; add byte [eax], al ; add byte [eax], al ; mov  [esp+0x00], 0x004050EC ; call  [0x004061B8] ;
0x4020c9: mov ah, 0x26 ; add byte [eax], al ; add byte [eax], al ; nop ; mov  [esp+0x00], 0x004050EC ; call  [0x004061C0] ;
0x401d68: mov ah, 0x26 ; add byte [eax], al ; add byte [eax], al ; nop ; xor eax, eax ; add esp, 0x18 ; pop ebx ; retn 0x0004 ;
0x4016aa: mov ah, 0x26 ; add byte [eax], al ; add byte [eax], al ; xor eax, eax ; ret ;
0x4022bc: mov bh, 0x82 ; push es ; add byte [eax+0x00], al ; ret ;
0x401305: mov byte [eax], 0x00 ; add byte [ebx+0x40500815], cl ; add byte [ebp-0x72928B2E], al ; lock pop ecx ; pop ebx ; pop esi ; pop edi ; pop ebp ; lea esp,  [ecx-0x04] ; ret ;
0x401e98: mov byte [ebx-0x2800FB14], 0x85 ; div byte [esp+ecx-0x7B] ; sal byte [ebp+0x08], 0x8B ; inc ebx ; add al, 0x89 ; xor al, 0x24 ; call eax ;
0x4021d1: mov byte [ecx], 0x83 ; ret ;
0x40248f: mov byte [ecx], 0x83 ; retn 0x3928 ;
0x401194: mov byte [ecx], al ; add byte [eax], al ; mov  [esp+0x00], 0x000003E8 ; call esi ;
0x401d5a: mov ch, 0xC7 ; add al, 0x24 ; add al, 0x00 ; add byte [eax], al ; call eax ;
0x4020c6: mov ch, byte [esi] ; lea esi,  [esi+0x00000000] ; nop ; mov  [esp+0x00], 0x004050EC ; call  [0x004061C0] ;
0x401385: mov eax,  [0x00405010] ; lea esp,  [ebp-0x10] ; pop ecx ; pop ebx ; pop esi ; pop edi ; pop ebp ; lea esp,  [ecx-0x04] ; ret ;
0x401f18: mov eax,  [0x004050E4] ; sub esp, 0x04 ; mov  [0x004050E4], ebx ; mov  [ebx+0x08], eax ; mov  [esp+0x00], 0x004050EC ; call  [0x004061C4] ;
0x401be1: mov eax,  [eax+0x04] ; mov  [esp+0x00], eax ; call ebx ;
0x401ea6: mov eax,  [ebx+0x04] ; mov  [esp+0x00], esi ; call eax ;
0x401e90: mov eax,  [ebx] ; mov  [esp+0x00], eax ; call ebp ;
0x401efe: mov eax,  [esp+0x20] ; mov  [ebx], eax ; mov eax,  [esp+0x24] ; mov  [ebx+0x04], eax ; mov  [esp+0x00], 0x004050EC ; call  [0x004061B8] ;
0x401f04: mov eax,  [esp+0x24] ; mov  [ebx+0x04], eax ; mov  [esp+0x00], 0x004050EC ; call  [0x004061B8] ;
0x402712: mov eax, 0x00000000 ; cmove eax, ebx ; add esp, 0x18 ; pop ebx ; ret ;
0x4014d3: mov eax, 0x00000000 ; leave ; ret ;
0x4015d0: mov eax, 0x00000001 ; add esp, 0x1C ; retn 0x000C ;
0x4015f8: mov eax, 0x00000001 ; add esp, 0x1C ; retn 0x000C ;
0x402021: mov eax, 0x00000001 ; pop ebx ; ret ;
0x4020b8: mov eax, 0x00000001 ; pop ebx ; ret ;
0x401638: mov eax, 0x00000001 ; pop ebx ; retn 0x000C ;
0x401676: mov eax, 0x00000001 ; pop ebx ; retn 0x000C ;
0x40169f: mov eax, 0x00000001 ; pop ebx ; retn 0x000C ;
0x40237b: mov eax, 0x00400000 ; ret ;
0x40270c: mov eax, 0x85000001 ; sar byte [eax+0x00000000], 0x0F ; inc esp ; ret ;
0x4021f5: mov eax, ebx ; pop ebx ; pop esi ; pop edi ; pop ebp ; ret ;
0x402205: mov eax, ebx ; pop ebx ; pop esi ; pop edi ; pop ebp ; ret ;
0x40249c: mov eax, ecx ; pop edi ; ret ;
0x40244c: mov eax, ecx ; pop esi ; pop edi ; ret ;
0x4024d4: mov eax, ecx ; ret ;
0x40240a: mov eax, edx ; pop ebx ; pop esi ; ret ;
0x402118: mov eax, edx ; ret ;
0x40212b: mov eax, edx ; ret ;
0x4023b4: mov eax, edx ; ret ;
0x40241a: mov eax, edx ; ret ;
0x401e81: mov ebp,  [0x004061D0] ; mov edi,  [0x004061BC] ; lea esi,  [esi+0x00] ; mov eax,  [ebx] ; mov  [esp+0x00], eax ; call ebp ;
0x40172f: mov ebp, 0x8300000E ; les edx,  [ecx+esi-0x40] ; pop ebx ; pop esi ; ret ;
0x4024c8: mov ecx,  [eax+0x0C] ; pop ebx ; pop esi ; pop edi ; add ecx, 0x00400000 ; mov eax, ecx ; ret ;
0x40187d: mov ecx,  [esp+0x20] ; cmove eax, edx ; mov edx,  [esp+0x14] ; add ebx,  [0x004050D4] ; mov  [ebx+0x08], ecx ; mov  [ebx+0x04], edx ; mov  [esp+0x0C], ebx ; mov  [esp+0x08], eax ; mov  [esp+0x04], ecx ; mov  [esp+0x00], edx ; call  [0x004061D4] ;
0x4027b3: mov ecx, 0x83000000 ; les ebp,  [ebx+eax*8] ; lea esi,  [esi+0x00] ; sub esp, 0x0C ; call  [0x00406298] ;
0x401e87: mov edi,  [0x004061BC] ; lea esi,  [esi+0x00] ; mov eax,  [ebx] ; mov  [esp+0x00], eax ; call ebp ;
0x40185d: mov edi, 0x05831075 ; rcl byte [eax+0x40], 1 ; add byte [ecx], al ; add esp, 0x30 ; pop ebx ; pop esi ; pop edi ; ret ;
0x40181b: mov edx,  [0x004050D4] ; add eax,  [edi+0x0C] ; mov  [edx+ebx+0x0C], eax ; lea edx,  [esp+0x14] ; mov  [esp+0x08], 0x0000001C ; mov  [esp+0x04], edx ; mov  [esp+0x00], eax ; call  [0x004061D8] ;
0x401bda: mov edx,  [eax+0x08] ; mov  [esp+0x04], edx ; mov eax,  [eax+0x04] ; mov  [esp+0x00], eax ; call ebx ;
0x402410: mov edx,  [eax+0x24] ; pop ebx ; pop esi ; not edx ; shr edx, 0x1F ; mov eax, edx ; ret ;
0x401884: mov edx,  [esp+0x14] ; add ebx,  [0x004050D4] ; mov  [ebx+0x08], ecx ; mov  [ebx+0x04], edx ; mov  [esp+0x0C], ebx ; mov  [esp+0x08], eax ; mov  [esp+0x04], ecx ; mov  [esp+0x00], edx ; call  [0x004061D4] ;
0x401c4a: mov edx,  [esp+0x40] ; fstp qword [esp+0x18] ; fstp qword [esp+0x20] ; mov  [esp+0x10], edx ; mov edx,  [esp+0x44] ; fstp qword [esp+0x28] ; mov  [esp+0x14], edx ; lea edx,  [esp+0x10] ; mov  [esp+0x00], edx ; call eax ;
0x401c5a: mov edx,  [esp+0x44] ; fstp qword [esp+0x28] ; mov  [esp+0x14], edx ; lea edx,  [esp+0x10] ; mov  [esp+0x00], edx ; call eax ;
0x401e97: mov esi, eax ; sub esp, 0x04 ; call edi ;
0x40166d: mov esp, 0x75004045 ; in eax, dx ; add esp, 0x18 ; mov eax, 0x00000001 ; pop ebx ; retn 0x000C ;
0x402010: mov esp, 0xC7000000 ; add eax, 0x004050E8 ; add  [eax], eax ; add byte [eax], al ; add esp, 0x18 ; mov eax, 0x00000001 ; pop ebx ; ret ;
0x402822: mov word [edx+0x40], fs ; add byte [eax-0x6FDA0070], dl ; bound eax,  [eax+0x00] ; nop ; nop ; jmp  [0x00406294] ;
0x4022bb: movzx eax, word [edx+0x00400006] ; ret ;
0x40282a: nop ; bound eax,  [eax+0x00] ; nop ; nop ; jmp  [0x00406294] ;
0x4014ee: nop ; call eax ;
0x4014ef: nop ; call eax ;
0x40173f: nop ; fninit ; ret ;
0x402947: nop ; jmp  [0x004061E0] ;
0x40294f: nop ; jmp  [0x004061E4] ;
0x402927: nop ; jmp  [0x004061EC] ;
0x40292f: nop ; jmp  [0x004061F0] ;
0x402937: nop ; jmp  [0x004061F4] ;
0x40293f: nop ; jmp  [0x004061F8] ;
0x40291f: nop ; jmp  [0x00406200] ;
0x402917: nop ; jmp  [0x00406208] ;
0x40288f: nop ; jmp  [0x00406210] ;
0x402897: nop ; jmp  [0x00406214] ;
0x40289f: nop ; jmp  [0x00406218] ;
0x4028a7: nop ; jmp  [0x0040621C] ;
0x4028af: nop ; jmp  [0x00406220] ;
0x4028b7: nop ; jmp  [0x00406224] ;
0x4028bf: nop ; jmp  [0x00406228] ;
0x4028c7: nop ; jmp  [0x0040622C] ;
0x4028cf: nop ; jmp  [0x00406230] ;
0x4028d7: nop ; jmp  [0x00406234] ;
0x4028df: nop ; jmp  [0x00406238] ;
0x4028e7: nop ; jmp  [0x0040623C] ;
0x4028ef: nop ; jmp  [0x00406240] ;
0x4028f7: nop ; jmp  [0x00406244] ;
0x4028ff: nop ; jmp  [0x00406248] ;
0x402907: nop ; jmp  [0x0040624C] ;
0x40290f: nop ; jmp  [0x00406250] ;
0x402847: nop ; jmp  [0x00406258] ;
0x40284f: nop ; jmp  [0x0040625C] ;
0x402857: nop ; jmp  [0x00406260] ;
0x40285f: nop ; jmp  [0x00406264] ;
0x402867: nop ; jmp  [0x00406268] ;
0x40286f: nop ; jmp  [0x0040626C] ;
0x402877: nop ; jmp  [0x00406270] ;
0x40287f: nop ; jmp  [0x00406274] ;
0x402887: nop ; jmp  [0x00406278] ;
0x402837: nop ; jmp  [0x00406280] ;
0x40283f: nop ; jmp  [0x00406284] ;
0x40281f: nop ; jmp  [0x0040628C] ;
0x402827: nop ; jmp  [0x00406290] ;
0x40282f: nop ; jmp  [0x00406294] ;
0x40148e: nop ; leave ; ret ;
0x4020cf: nop ; mov  [esp+0x00], 0x004050EC ; call  [0x004061C0] ;
0x40240f: nop ; mov edx,  [eax+0x24] ; pop ebx ; pop esi ; not edx ; shr edx, 0x1F ; mov eax, edx ; ret ;
0x40173e: nop ; nop ; fninit ; ret ;
0x402946: nop ; nop ; jmp  [0x004061E0] ;
0x40294e: nop ; nop ; jmp  [0x004061E4] ;
0x402926: nop ; nop ; jmp  [0x004061EC] ;
0x40292e: nop ; nop ; jmp  [0x004061F0] ;
0x402936: nop ; nop ; jmp  [0x004061F4] ;
0x40293e: nop ; nop ; jmp  [0x004061F8] ;
0x40291e: nop ; nop ; jmp  [0x00406200] ;
0x402916: nop ; nop ; jmp  [0x00406208] ;
0x40288e: nop ; nop ; jmp  [0x00406210] ;
0x402896: nop ; nop ; jmp  [0x00406214] ;
0x40289e: nop ; nop ; jmp  [0x00406218] ;
0x4028a6: nop ; nop ; jmp  [0x0040621C] ;
0x4028ae: nop ; nop ; jmp  [0x00406220] ;
0x4028b6: nop ; nop ; jmp  [0x00406224] ;
0x4028be: nop ; nop ; jmp  [0x00406228] ;
0x4028c6: nop ; nop ; jmp  [0x0040622C] ;
0x4028ce: nop ; nop ; jmp  [0x00406230] ;
0x4028d6: nop ; nop ; jmp  [0x00406234] ;
0x4028de: nop ; nop ; jmp  [0x00406238] ;
0x4028e6: nop ; nop ; jmp  [0x0040623C] ;
0x4028ee: nop ; nop ; jmp  [0x00406240] ;
0x4028f6: nop ; nop ; jmp  [0x00406244] ;
0x4028fe: nop ; nop ; jmp  [0x00406248] ;
0x402906: nop ; nop ; jmp  [0x0040624C] ;
0x40290e: nop ; nop ; jmp  [0x00406250] ;
0x402846: nop ; nop ; jmp  [0x00406258] ;
0x40284e: nop ; nop ; jmp  [0x0040625C] ;
0x402856: nop ; nop ; jmp  [0x00406260] ;
0x40285e: nop ; nop ; jmp  [0x00406264] ;
0x402866: nop ; nop ; jmp  [0x00406268] ;
0x40286e: nop ; nop ; jmp  [0x0040626C] ;
0x402876: nop ; nop ; jmp  [0x00406270] ;
0x40287e: nop ; nop ; jmp  [0x00406274] ;
0x402886: nop ; nop ; jmp  [0x00406278] ;
0x402836: nop ; nop ; jmp  [0x00406280] ;
0x40283e: nop ; nop ; jmp  [0x00406284] ;
0x40281e: nop ; nop ; jmp  [0x0040628C] ;
0x402826: nop ; nop ; jmp  [0x00406290] ;
0x40282e: nop ; nop ; jmp  [0x00406294] ;
0x40173d: nop ; nop ; nop ; fninit ; ret ;
0x40281d: nop ; nop ; nop ; jmp  [0x0040628C] ;
0x40173c: nop ; nop ; nop ; nop ; fninit ; ret ;
0x40281c: nop ; nop ; nop ; nop ; jmp  [0x0040628C] ;
0x40173b: nop ; nop ; nop ; nop ; nop ; fninit ; ret ;
0x40281b: nop ; nop ; nop ; nop ; nop ; jmp  [0x0040628C] ;
0x40262b: nop ; nop ; nop ; nop ; nop ; xor eax, eax ; ret ;
0x401e58: nop ; nop ; nop ; nop ; push ebp ; push edi ; push esi ; push ebx ; sub esp, 0x1C ; mov  [esp+0x00], 0x004050EC ; call  [0x004061B8] ;
0x401e59: nop ; nop ; nop ; nop ; push ebp ; push edi ; push esi ; push ebx ; sub esp, 0x1C ; mov  [esp+0x00], 0x004050EC ; call  [0x004061B8] ;
0x40262c: nop ; nop ; nop ; nop ; xor eax, eax ; ret ;
0x401e5a: nop ; nop ; nop ; push ebp ; push edi ; push esi ; push ebx ; sub esp, 0x1C ; mov  [esp+0x00], 0x004050EC ; call  [0x004061B8] ;
0x401e5b: nop ; nop ; nop ; push ebp ; push edi ; push esi ; push ebx ; sub esp, 0x1C ; mov  [esp+0x00], 0x004050EC ; call  [0x004061B8] ;
0x40262d: nop ; nop ; nop ; xor eax, eax ; ret ;
0x401e5c: nop ; nop ; push ebp ; push edi ; push esi ; push ebx ; sub esp, 0x1C ; mov  [esp+0x00], 0x004050EC ; call  [0x004061B8] ;
0x401e5d: nop ; nop ; push ebp ; push edi ; push esi ; push ebx ; sub esp, 0x1C ; mov  [esp+0x00], 0x004050EC ; call  [0x004061B8] ;
0x40262e: nop ; nop ; xor eax, eax ; ret ;
0x401e5e: nop ; push ebp ; push edi ; push esi ; push ebx ; sub esp, 0x1C ; mov  [esp+0x00], 0x004050EC ; call  [0x004061B8] ;
0x401e5f: nop ; push ebp ; push edi ; push esi ; push ebx ; sub esp, 0x1C ; mov  [esp+0x00], 0x004050EC ; call  [0x004061B8] ;
0x401d6e: nop ; xor eax, eax ; add esp, 0x18 ; pop ebx ; retn 0x0004 ;
0x401d6f: nop ; xor eax, eax ; add esp, 0x18 ; pop ebx ; retn 0x0004 ;
0x4015af: nop ; xor eax, eax ; ret ;
0x40262f: nop ; xor eax, eax ; ret ;
0x402415: not edx ; shr edx, 0x1F ; mov eax, edx ; ret ;
0x4015f5: or  [eax], eax ; add byte [eax+0x00000001], bh ; add esp, 0x1C ; retn 0x000C ;
0x401699: or  [eax], eax ; add byte [ebx+0x01B818C4], al ; add byte [eax], al ; add byte [ebx-0x3E], bl ; or al, 0x00 ; lea esi,  [esi+0x00000000] ; xor eax, eax ; ret ;
0x402505: or  [eax], eax ; pop eax ; pop ecx ; ret ;
0x402504: or  [ecx], 0x00000000 ; pop eax ; pop ecx ; ret ;
0x4016a6: or al, 0x00 ; lea esi,  [esi+0x00000000] ; xor eax, eax ; ret ;
0x402482: or al, 0x39 ; enter 0x0772, 0x03 ; dec edx ; or byte [ecx], bh ; enter 0x1272, 0x83 ; mov byte [ecx], 0x83 ; retn 0x3928 ;
0x4024ca: or al, 0x5B ; pop esi ; pop edi ; add ecx, 0x00400000 ; mov eax, ecx ; ret ;
0x4014ed: or al, 0x66 ; nop ; call eax ;
0x401ea1: or al, 0x85 ; sal byte [ebp+0x08], 0x8B ; inc ebx ; add al, 0x89 ; xor al, 0x24 ; call eax ;
0x4024bf: or al, 0x85 ; sal byte [esp+edx*8-0x7B], cl ; fstp tword [edi-0x18] ; mov ecx,  [eax+0x0C] ; pop ebx ; pop esi ; pop edi ; add ecx, 0x00400000 ; mov eax, ecx ; ret ;
0x401897: or al, 0x89 ; inc esp ; and al, 0x08 ; mov  [esp+0x04], ecx ; mov  [esp+0x00], edx ; call  [0x004061D4] ;
0x401823: or al, 0x89 ; inc esp ; sbb cl, byte [0xC7142454+ecx*4] ; inc esp ; and al, 0x08 ; sbb al, 0x00 ; add byte [eax], al ; mov  [esp+0x04], edx ; mov  [esp+0x00], eax ; call  [0x004061D8] ;
0x401bd5: or al, 0x89 ; push esp ; and al, 0x08 ; mov edx,  [eax+0x08] ; mov  [esp+0x04], edx ; mov eax,  [eax+0x04] ; mov  [esp+0x00], eax ; call ebx ;
0x401827: or al, 0x8D ; push esp ; and al, 0x14 ; mov  [esp+0x08], 0x0000001C ; mov  [esp+0x04], edx ; mov  [esp+0x00], eax ; call  [0x004061D8] ;
0x401509: or al, 0xC3 ; lea esi,  [esi+0x00] ; ret ;
0x4027e9: or al, 0xC3 ; lea esi,  [esi+0x00] ; sub esp, 0x0C ; call  [0x00406298] ;
0x402819: or al, 0xC3 ; nop ; nop ; nop ; nop ; nop ; jmp  [0x0040628C] ;
0x401ef5: or al, byte [eax] ; add byte [ecx+0x74C085C3], cl ; inc edx ; mov eax,  [esp+0x20] ; mov  [ebx], eax ; mov eax,  [esp+0x24] ; mov  [ebx+0x04], eax ; mov  [esp+0x00], 0x004050EC ; call  [0x004061B8] ;
0x402621: or al, ch ; cmp  [edx], eax ; add byte [eax], al ; add esp, 0x2C ; ret ;
0x4027b1: or al, ch ; mov ecx, 0x83000000 ; les ebp,  [ebx+eax*8] ; lea esi,  [esi+0x00] ; sub esp, 0x0C ; call  [0x00406298] ;
0x402541: or al, ch ; sbb  [ebx], eax ; add byte [eax], al ; add esp, 0x2C ; ret ;
0x40130b: or byte [eax+0x40], dl ; add byte [ebp-0x72928B2E], al ; lock pop ecx ; pop ebx ; pop esi ; pop edi ; pop ebp ; lea esp,  [ecx-0x04] ; ret ;
0x40182f: or byte [eax+eax], bl ; add byte [eax], al ; mov  [esp+0x04], edx ; mov  [esp+0x00], eax ; call  [0x004061D8] ;
0x4011fb: or byte [eax], al ; add byte [eax], al ; add bh, al ; inc esp ; and al, 0x04 ; add al, byte [eax] ; add byte [eax], al ; mov  [esp+0x00], 0x00000000 ; call eax ;
0x401db2: or byte [eax], al ; add byte [eax], al ; call eax ;
0x40207a: or byte [eax], al ; add byte [ebp-0x38108A25], al ; add eax, 0x004050E4 ; add byte [eax], al ; add byte [eax], al ; mov  [0x004050E8], 0x00000000 ; mov  [esp+0x00], 0x004050EC ; call  [0x004061B4] ;
0x401857: or byte [ebp-0x1D7C3FB0], cl ; mov edi, 0x05831075 ; rcl byte [eax+0x40], 1 ; add byte [ecx], al ; add esp, 0x30 ; pop ebx ; pop esi ; pop edi ; ret ;
0x401bd9: or byte [ebx+0x54890850], cl ; and al, 0x04 ; mov eax,  [eax+0x04] ; mov  [esp+0x00], eax ; call ebx ;
0x401bcb: or byte [ebx+0x74D28510], 0x1A ; mov  [esp+0x0C], esi ; mov  [esp+0x08], edx ; mov edx,  [eax+0x08] ; mov  [esp+0x04], edx ; mov eax,  [eax+0x04] ; mov  [esp+0x00], eax ; call ebx ;
0x4019a0: or byte [ebx-0x7AF0FE08], al ; push 0x83000002 ; ret ;
0x401890: or byte [ecx+0x5C890453], cl ; and al, 0x0C ; mov  [esp+0x08], eax ; mov  [esp+0x04], ecx ; mov  [esp+0x00], edx ; call  [0x004061D4] ;
0x4015ef: or byte [ecx-0x0717DBFC], cl ; or  [eax], eax ; add byte [eax+0x00000001], bh ; add esp, 0x1C ; retn 0x000C ;
0x402074: or byte [ecx-0x4417DBFC], cl ; or byte [eax], al ; add byte [ebp-0x38108A25], al ; add eax, 0x004050E4 ; add byte [eax], al ; add byte [eax], al ; mov  [0x004050E8], 0x00000000 ; mov  [esp+0x00], 0x004050EC ; call  [0x004061B4] ;
0x401bdc: or byte [ecx-0x74FBDBAC], cl ; inc eax ; add al, 0x89 ; add al, 0x24 ; call ebx ;
0x40189b: or byte [ecx-0x76FBDBB4], cl ; adc al, 0x24 ; call  [0x004061D4] ;
0x402489: or byte [ecx], bh ; enter 0x1272, 0x83 ; mov byte [ecx], 0x83 ; retn 0x3928 ;
0x40291a: or byte [edx+0x40], ah ; add byte [eax+0x0025FF90], dl ; bound eax,  [eax+0x00] ; nop ; nop ; jmp  [0x004061EC] ;
0x401dea: or eax,  [eax] ; add bl, ch ; leave ; mov  [esp+0x00], 0x0000000B ; call eax ;
0x401df2: or eax,  [eax] ; add byte [eax], al ; call eax ;
0x402126: or eax,  [ecx] ; sete dl ; mov eax, edx ; ret ;
0x401922: or eax, 0x5BF4658D ; pop esi ; pop edi ; pop ebp ; ret ;
0x40244a: or eax, 0x5EC8895B ; pop edi ; ret ;
0x401156: out 0x14, al ; add byte [eax], al ; add esp, 0x2C ; ret ;
0x402080: out dx, eax ; mov  [0x004050E4], 0x00000000 ; mov  [0x004050E8], 0x00000000 ; mov  [esp+0x00], 0x004050EC ; call  [0x004061B4] ;
0x402419: pop ds ; mov eax, edx ; ret ;
0x40284a: pop eax ; bound eax,  [eax+0x00] ; nop ; nop ; jmp  [0x0040625C] ;
0x402507: pop eax ; pop ecx ; ret ;
0x40131a: pop ebp ; lea esp,  [ecx-0x04] ; ret ;
0x401391: pop ebp ; lea esp,  [ecx-0x04] ; ret ;
0x401929: pop ebp ; ret ;
0x401bfd: pop ebp ; ret ;
0x401ecb: pop ebp ; ret ;
0x4021fa: pop ebp ; ret ;
0x40220a: pop ebp ; ret ;
0x401d20: pop ebx ; jmp eax ;
0x40244b: pop ebx ; mov eax, ecx ; pop esi ; pop edi ; ret ;
0x402073: pop ebx ; or byte [ecx-0x4417DBFC], cl ; or byte [eax], al ; add byte [ebp-0x38108A25], al ; add eax, 0x004050E4 ; add byte [eax], al ; add byte [eax], al ; mov  [0x004050E8], 0x00000000 ; mov  [esp+0x00], 0x004050EC ; call  [0x004061B4] ;
0x40249a: pop ebx ; pop esi ; mov eax, ecx ; pop edi ; ret ;
0x402413: pop ebx ; pop esi ; not edx ; shr edx, 0x1F ; mov eax, edx ; ret ;
0x4024cb: pop ebx ; pop esi ; pop edi ; add ecx, 0x00400000 ; mov eax, ecx ; ret ;
0x401317: pop ebx ; pop esi ; pop edi ; pop ebp ; lea esp,  [ecx-0x04] ; ret ;
0x40138e: pop ebx ; pop esi ; pop edi ; pop ebp ; lea esp,  [ecx-0x04] ; ret ;
0x401926: pop ebx ; pop esi ; pop edi ; pop ebp ; ret ;
0x401bfa: pop ebx ; pop esi ; pop edi ; pop ebp ; ret ;
0x401ec8: pop ebx ; pop esi ; pop edi ; pop ebp ; ret ;
0x4021f7: pop ebx ; pop esi ; pop edi ; pop ebp ; ret ;
0x402207: pop ebx ; pop esi ; pop edi ; pop ebp ; ret ;
0x40186a: pop ebx ; pop esi ; pop edi ; ret ;
0x401738: pop ebx ; pop esi ; ret ;
0x40216a: pop ebx ; pop esi ; ret ;
0x40228a: pop ebx ; pop esi ; ret ;
0x40240c: pop ebx ; pop esi ; ret ;
0x40155b: pop ebx ; ret ;
0x401f3e: pop ebx ; ret ;
0x401f66: pop ebx ; ret ;
0x401fd5: pop ebx ; ret ;
0x402026: pop ebx ; ret ;
0x4020bd: pop ebx ; ret ;
0x4022fa: pop ebx ; ret ;
0x402349: pop ebx ; ret ;
0x402593: pop ebx ; ret ;
0x4025e3: pop ebx ; ret ;
0x40269c: pop ebx ; ret ;
0x4026fc: pop ebx ; ret ;
0x40271d: pop ebx ; ret ;
0x401d75: pop ebx ; retn 0x0004 ;
0x40163d: pop ebx ; retn 0x000C ;
0x40167b: pop ebx ; retn 0x000C ;
0x4016a4: pop ebx ; retn 0x000C ;
0x401316: pop ecx ; pop ebx ; pop esi ; pop edi ; pop ebp ; lea esp,  [ecx-0x04] ; ret ;
0x40138d: pop ecx ; pop ebx ; pop esi ; pop edi ; pop ebp ; lea esp,  [ecx-0x04] ; ret ;
0x402508: pop ecx ; ret ;
0x4024cd: pop edi ; add ecx, 0x00400000 ; mov eax, ecx ; ret ;
0x401319: pop edi ; pop ebp ; lea esp,  [ecx-0x04] ; ret ;
0x401390: pop edi ; pop ebp ; lea esp,  [ecx-0x04] ; ret ;
0x401928: pop edi ; pop ebp ; ret ;
0x401bfc: pop edi ; pop ebp ; ret ;
0x401eca: pop edi ; pop ebp ; ret ;
0x4021f9: pop edi ; pop ebp ; ret ;
0x402209: pop edi ; pop ebp ; ret ;
0x40186c: pop edi ; ret ;
0x40244f: pop edi ; ret ;
0x40249e: pop edi ; ret ;
0x401598: pop es ; ret ;
0x401ed8: pop es ; xor eax, eax ; ret ;
0x40249b: pop esi ; mov eax, ecx ; pop edi ; ret ;
0x402414: pop esi ; not edx ; shr edx, 0x1F ; mov eax, edx ; ret ;
0x4024cc: pop esi ; pop edi ; add ecx, 0x00400000 ; mov eax, ecx ; ret ;
0x401318: pop esi ; pop edi ; pop ebp ; lea esp,  [ecx-0x04] ; ret ;
0x40138f: pop esi ; pop edi ; pop ebp ; lea esp,  [ecx-0x04] ; ret ;
0x401927: pop esi ; pop edi ; pop ebp ; ret ;
0x401bfb: pop esi ; pop edi ; pop ebp ; ret ;
0x401ec9: pop esi ; pop edi ; pop ebp ; ret ;
0x4021f8: pop esi ; pop edi ; pop ebp ; ret ;
0x402208: pop esi ; pop edi ; pop ebp ; ret ;
0x40186b: pop esi ; pop edi ; ret ;
0x40244e: pop esi ; pop edi ; ret ;
0x401739: pop esi ; ret ;
0x40216b: pop esi ; ret ;
0x40228b: pop esi ; ret ;
0x40240d: pop esi ; ret ;
0x401895: pop esp ; and al, 0x0C ; mov  [esp+0x08], eax ; mov  [esp+0x04], ecx ; mov  [esp+0x00], edx ; call  [0x004061D4] ;
0x401c4f: pop esp ; and al, 0x18 ; fstp qword [esp+0x20] ; mov  [esp+0x10], edx ; mov edx,  [esp+0x44] ; fstp qword [esp+0x28] ; mov  [esp+0x14], edx ; lea edx,  [esp+0x10] ; mov  [esp+0x00], edx ; call eax ;
0x401d1a: pop esp ; and al, 0x20 ; add esp, 0x18 ; pop ebx ; jmp eax ;
0x401c53: pop esp ; and al, 0x20 ; mov  [esp+0x10], edx ; mov edx,  [esp+0x44] ; fstp qword [esp+0x28] ; mov  [esp+0x14], edx ; lea edx,  [esp+0x10] ; mov  [esp+0x00], edx ; call eax ;
0x401c5f: pop esp ; and al, 0x28 ; mov  [esp+0x14], edx ; lea edx,  [esp+0x10] ; mov  [esp+0x00], edx ; call eax ;
0x402852: pop esp ; bound eax,  [eax+0x00] ; nop ; nop ; jmp  [0x00406260] ;
0x40131c: popad ; cld ; ret ;
0x401393: popad ; cld ; ret ;
0x401e8a: popad ; inc eax ; add byte [ebp+0x038B0076], cl ; mov  [esp+0x00], eax ; call ebp ;
0x401e84: popad ; inc eax ; add byte [ebx+0x4061BC3D], cl ; add byte [ebp+0x038B0076], cl ; mov  [esp+0x00], eax ; call ebp ;
0x401ebf: popad ; inc eax ; add byte [ebx-0x3B7CFB14], al ; sbb al, 0x5B ; pop esi ; pop edi ; pop ebp ; ret ;
0x401f15: popad ; inc eax ; add byte [ecx+0x004050E4], ah ; sub esp, 0x04 ; mov  [0x004050E4], ebx ; mov  [ebx+0x08], eax ; mov  [esp+0x00], 0x004050EC ; call  [0x004061C4] ;
0x401f33: popad ; inc eax ; add byte [ecx], dh ; rol byte [ebx-0x3B7CFB14], 0x18 ; pop ebx ; ret ;
0x401fca: popad ; inc eax ; add byte [ecx], dh ; rol byte [ebx-0x3B7CFB14], 0x18 ; pop ebx ; ret ;
0x401920: push  [ebp+ecx-0x73] ; hlt ; pop ebx ; pop esi ; pop edi ; pop ebp ; ret ;
0x4019a6: push 0x83000002 ; ret ;
0x40286a: push 0x90004062 ; nop ; jmp  [0x0040626C] ;
0x40280e: push cs ; add byte [eax], al ; add byte [ebx+0x00403048], ah ; add esp, 0x0C ; ret ;
0x401730: push cs ; add byte [eax], al ; add esp, 0x54 ; xor eax, eax ; pop ebx ; pop esi ; ret ;
0x402411: push eax ; and al, 0x5B ; pop esi ; not edx ; shr edx, 0x1F ; mov eax, edx ; ret ;
0x402912: push eax ; bound eax,  [eax+0x00] ; nop ; nop ; jmp  [0x00406208] ;
0x401152: push eax ; inc eax ; add al, ch ; out 0x14, al ; add byte [eax], al ; add esp, 0x2C ; ret ;
0x40114b: push eax ; inc eax ; add bh, al ; add al, 0x24 ; sbb al, 0x50 ; inc eax ; add al, ch ; out 0x14, al ; add byte [eax], al ; add esp, 0x2C ; ret ;
0x401f0f: push eax ; inc eax ; add bh, bh ; adc eax, 0x004061B8 ; mov eax,  [0x004050E4] ; sub esp, 0x04 ; mov  [0x004050E4], ebx ; mov  [ebx+0x08], eax ; mov  [esp+0x00], 0x004050EC ; call  [0x004061C4] ;
0x401eb9: push eax ; inc eax ; add bh, bh ; adc eax, 0x004061C4 ; sub esp, 0x04 ; add esp, 0x1C ; pop ebx ; pop esi ; pop edi ; pop ebp ; ret ;
0x401f2d: push eax ; inc eax ; add bh, bh ; adc eax, 0x004061C4 ; xor eax, eax ; sub esp, 0x04 ; add esp, 0x18 ; pop ebx ; ret ;
0x401fc4: push eax ; inc eax ; add bh, bh ; adc eax, 0x004061C4 ; xor eax, eax ; sub esp, 0x04 ; add esp, 0x18 ; pop ebx ; ret ;
0x402084: push eax ; inc eax ; add byte [eax], al ; add byte [eax], al ; add bh, al ; add eax, 0x004050E8 ; add byte [eax], al ; add byte [eax], al ; mov  [esp+0x00], 0x004050EC ; call  [0x004061B4] ;
0x401bc3: push eax ; inc eax ; add byte [ebp+0x048DBF04], cl ; or byte [ebx+0x74D28510], 0x1A ; mov  [esp+0x0C], esi ; mov  [esp+0x08], edx ; mov edx,  [eax+0x08] ; mov  [esp+0x04], edx ; mov eax,  [eax+0x04] ; mov  [esp+0x00], eax ; call ebx ;
0x401387: push eax ; inc eax ; add byte [ebp+0x5B59F065], cl ; pop esi ; pop edi ; pop ebp ; lea esp,  [ecx-0x04] ; ret ;
0x40130c: push eax ; inc eax ; add byte [ebp-0x72928B2E], al ; lock pop ecx ; pop ebx ; pop esi ; pop edi ; pop ebp ; lea esp,  [ecx-0x04] ; ret ;
0x40191c: push eax ; inc eax ; add byte [ebp-0x72F28B01], al ; hlt ; pop ebx ; pop esi ; pop edi ; pop ebp ; ret ;
0x401d12: push eax ; inc eax ; add byte [ebp-0x76A88B40], al ; pop esp ; and al, 0x20 ; add esp, 0x18 ; pop ebx ; jmp eax ;
0x401f56: push eax ; inc eax ; add byte [ebx-0x7ADFDBA4], cl ; sal byte [ebp+0x0F], 0x83 ; les ebx,  [eax] ; xor eax, eax ; pop ebx ; ret ;
0x40188b: push eax ; inc eax ; add byte [ecx+0x5389084B], cl ; add al, 0x89 ; pop esp ; and al, 0x0C ; mov  [esp+0x08], eax ; mov  [esp+0x04], ecx ; mov  [esp+0x00], edx ; call  [0x004061D4] ;
0x401bf2: push eax ; inc eax ; add byte [ecx+ecx*8-0x73], bh ; hlt ; pop ebx ; pop esi ; pop edi ; pop ebp ; ret ;
0x401863: push eax ; inc eax ; add byte [ecx], al ; add esp, 0x30 ; pop ebx ; pop esi ; pop edi ; ret ;
0x4024be: push eax ; or al, 0x85 ; sal byte [esp+edx*8-0x7B], cl ; fstp tword [edi-0x18] ; mov ecx,  [eax+0x0C] ; pop ebx ; pop esi ; pop edi ; add ecx, 0x00400000 ; mov eax, ecx ; ret ;
0x401bdb: push eax ; or byte [ecx-0x74FBDBAC], cl ; inc eax ; add al, 0x89 ; add al, 0x24 ; call ebx ;
0x401859: push eax ; rol byte [ebx+0x1075BFE2], 0x83 ; add eax, 0x004050D0 ; add  [ebx+0x5E5B30C4], eax ; pop edi ; ret ;
0x401e60: push ebp ; push edi ; push esi ; push ebx ; sub esp, 0x1C ; mov  [esp+0x00], 0x004050EC ; call  [0x004061B8] ;
0x401892: push ebx ; add al, 0x89 ; pop esp ; and al, 0x0C ; mov  [esp+0x08], eax ; mov  [esp+0x04], ecx ; mov  [esp+0x00], edx ; call  [0x004061D4] ;
0x401e63: push ebx ; sub esp, 0x1C ; mov  [esp+0x00], 0x004050EC ; call  [0x004061B8] ;
0x401d18: push edi ; mov  [esp+0x20], ebx ; add esp, 0x18 ; pop ebx ; jmp eax ;
0x401e61: push edi ; push esi ; push ebx ; sub esp, 0x1C ; mov  [esp+0x00], 0x004050EC ; call  [0x004061B8] ;
0x401d65: push edx ; lea esi,  [esi+0x00000000] ; nop ; xor eax, eax ; add esp, 0x18 ; pop ebx ; retn 0x0004 ;
0x4022be: push es ; add byte [eax+0x00], al ; ret ;
0x401216: push es ; add byte [eax], al ; mov  [esp+0x00], 0x00401CB0 ; call  [0x004061C8] ;
0x4022f9: push es ; pop ebx ; ret ;
0x401e62: push esi ; push ebx ; sub esp, 0x1C ; mov  [esp+0x00], 0x004050EC ; call  [0x004061B8] ;
0x401835: push esp ; and al, 0x04 ; mov  [esp+0x00], eax ; call  [0x004061D8] ;
0x401bde: push esp ; and al, 0x04 ; mov eax,  [eax+0x04] ; mov  [esp+0x00], eax ; call ebx ;
0x401bd7: push esp ; and al, 0x08 ; mov edx,  [eax+0x08] ; mov  [esp+0x04], edx ; mov eax,  [eax+0x04] ; mov  [esp+0x00], eax ; call ebx ;
0x401c67: push esp ; and al, 0x10 ; mov  [esp+0x00], edx ; call eax ;
0x401c57: push esp ; and al, 0x10 ; mov edx,  [esp+0x44] ; fstp qword [esp+0x28] ; mov  [esp+0x14], edx ; lea edx,  [esp+0x10] ; mov  [esp+0x00], edx ; call eax ;
0x401885: push esp ; and al, 0x14 ; add ebx,  [0x004050D4] ; mov  [ebx+0x08], ecx ; mov  [ebx+0x04], edx ; mov  [esp+0x0C], ebx ; mov  [esp+0x08], eax ; mov  [esp+0x04], ecx ; mov  [esp+0x00], edx ; call  [0x004061D4] ;
0x401c63: push esp ; and al, 0x14 ; lea edx,  [esp+0x10] ; mov  [esp+0x00], edx ; call eax ;
0x401829: push esp ; and al, 0x14 ; mov  [esp+0x08], 0x0000001C ; mov  [esp+0x04], edx ; mov  [esp+0x00], eax ; call  [0x004061D8] ;
0x401c4b: push esp ; and al, 0x40 ; fstp qword [esp+0x18] ; fstp qword [esp+0x20] ; mov  [esp+0x10], edx ; mov edx,  [esp+0x44] ; fstp qword [esp+0x28] ; mov  [esp+0x14], edx ; lea edx,  [esp+0x10] ; mov  [esp+0x00], edx ; call eax ;
0x401c5b: push esp ; and al, 0x44 ; fstp qword [esp+0x28] ; mov  [esp+0x14], edx ; lea edx,  [esp+0x10] ; mov  [esp+0x00], edx ; call eax ;
0x401698: push esp ; or  [eax], eax ; add byte [ebx+0x01B818C4], al ; add byte [eax], al ; add byte [ebx-0x3E], bl ; or al, 0x00 ; lea esi,  [esi+0x00000000] ; xor eax, eax ; ret ;
0x401735: push esp ; xor eax, eax ; pop ebx ; pop esi ; ret ;
0x40285a: pushad ; bound eax,  [eax+0x00] ; nop ; nop ; jmp  [0x00406264] ;
0x4011f0: pushad ; inc eax ; inc eax ; add byte [ebp-0x38E38B40], al ; inc esp ; and al, 0x08 ; add byte [eax], al ; add byte [eax], al ; mov  [esp+0x04], 0x00000002 ; mov  [esp+0x00], 0x00000000 ; call eax ;
0x401bf1: rcl byte [eax+0x40], 1 ; add byte [ecx+ecx*8-0x73], bh ; hlt ; pop ebx ; pop esi ; pop edi ; pop ebp ; ret ;
0x401862: rcl byte [eax+0x40], 1 ; add byte [ecx], al ; add esp, 0x30 ; pop ebx ; pop esi ; pop edi ; ret ;
0x401737: rcr byte [ebx+0x5E], 0xC3 ; nop ; nop ; nop ; nop ; nop ; fninit ; ret ;
0x40240b: rcr byte [ebx+0x5E], 1 ; ret ;
0x401f65: rcr byte [ebx-0x3D], 0x2E ; lea esi,  [esi+0x00000000] ; mov  [esp+0x00], 0x004050EC ; call  [0x004061B8] ;
0x401000: ret ;
0x40109d: ret ;
0x4010f1: ret ;
0x40115d: ret ;
0x401286: ret ;
0x40131e: ret ;
0x401395: ret ;
0x401417: ret ;
0x401433: ret ;
0x401440: ret ;
0x401490: ret ;
0x4014d9: ret ;
0x40150a: ret ;
0x401510: ret ;
0x40155c: ret ;
0x401571: ret ;
0x401599: ret ;
0x4015b2: ret ;
0x401669: ret ;
0x4016b2: ret ;
0x40173a: ret ;
0x401742: ret ;
0x4017b4: ret ;
0x40186d: ret ;
0x40192a: ret ;
0x4019ab: ret ;
0x401a09: ret ;
0x401a59: ret ;
0x401aa4: ret ;
0x401afe: ret ;
0x401b76: ret ;
0x401bfe: ret ;
0x401c81: ret ;
0x401cc3: ret ;
0x401ecc: ret ;
0x401edb: ret ;
0x401ef9: ret ;
0x401f3f: ret ;
0x401f67: ret ;
0x401fd6: ret ;
0x402027: ret ;
0x40205a: ret ;
0x4020be: ret ;
0x40211a: ret ;
0x40212d: ret ;
0x40216c: ret ;
0x4021d4: ret ;
0x4021fb: ret ;
0x40220b: ret ;
0x402235: ret ;
0x40228c: ret ;
0x4022af: ret ;
0x4022c2: ret ;
0x4022fb: ret ;
0x40234a: ret ;
0x40236f: ret ;
0x402380: ret ;
0x4023b6: ret ;
0x40240e: ret ;
0x40241c: ret ;
0x402450: ret ;
0x40249f: ret ;
0x4024d6: ret ;
0x402509: ret ;
0x40254a: ret ;
0x402594: ret ;
0x4025e4: ret ;
0x40262a: ret ;
0x402632: ret ;
0x40269d: ret ;
0x4026fd: ret ;
0x402719: ret ;
0x40271e: ret ;
0x40272f: ret ;
0x4027ba: ret ;
0x4027ea: ret ;
0x40281a: ret ;
0x40198f: retn 0x0001 ;
0x401d76: retn 0x0004 ;
0x401d4a: retn 0x000B ;
0x4015d8: retn 0x000C ;
0x401600: retn 0x000C ;
0x40163e: retn 0x000C ;
0x40167c: retn 0x000C ;
0x4016a5: retn 0x000C ;
0x402492: retn 0x3928 ;
0x401883: retn 0x548B ;
0x40233e: retn 0x8301 ;
0x4010ad: retn 0x9066 ;
0x40212a: retn 0xD089 ;
0x4013c9: retn 0xEFE9 ;
0x401b5d: retn 0xFFFD ;
0x402119: rol bl, 1 ; lea esi,  [esi+0x00] ; xor edx, edx ; cmp word [eax+0x18], 0x010B ; sete dl ; mov eax, edx ; ret ;
0x40185a: rol byte [ebx+0x1075BFE2], 0x83 ; add eax, 0x004050D0 ; add  [ebx+0x5E5B30C4], eax ; pop edi ; ret ;
0x401667: rol byte [ebx-0x047EFB3D], 1 ; mov esp, 0x75004045 ; in eax, dx ; add esp, 0x18 ; mov eax, 0x00000001 ; pop ebx ; retn 0x000C ;
0x401210: rol byte [ebx-0x0817F314], 1 ; push es ; add byte [eax], al ; mov  [esp+0x00], 0x00401CB0 ; call  [0x004061C8] ;
0x401f37: rol byte [ebx-0x3B7CFB14], 0x18 ; pop ebx ; ret ;
0x401fce: rol byte [ebx-0x3B7CFB14], 0x18 ; pop ebx ; ret ;
0x402409: ror byte [ecx-0x3CA1A430], cl ; nop ; mov edx,  [eax+0x24] ; pop ebx ; pop esi ; not edx ; shr edx, 0x1F ; mov eax, edx ; ret ;
0x40200d: ror byte [edi], 0x84 ; mov esp, 0xC7000000 ; add eax, 0x004050E8 ; add  [eax], eax ; add byte [eax], al ; add esp, 0x18 ; mov eax, 0x00000001 ; pop ebx ; ret ;
0x401cc0: ror byte [edi], 0x84 ; ret ;
0x40198c: ror byte [edi], 0x85 ; retn 0x0001 ;
0x401c45: sal byte [eax+esi-0x27], 0xCA ; mov edx,  [esp+0x40] ; fstp qword [esp+0x18] ; fstp qword [esp+0x20] ; mov  [esp+0x10], edx ; mov edx,  [esp+0x44] ; fstp qword [esp+0x28] ; mov  [esp+0x14], edx ; lea edx,  [esp+0x10] ; mov  [esp+0x00], edx ; call eax ;
0x401ea3: sal byte [ebp+0x08], 0x8B ; inc ebx ; add al, 0x89 ; xor al, 0x24 ; call eax ;
0x401f5e: sal byte [ebp+0x0F], 0x83 ; les ebx,  [eax] ; xor eax, eax ; pop ebx ; ret ;
0x401310: sal byte [ebp+ebp*2-0x73], cl ; lock pop ecx ; pop ebx ; pop esi ; pop edi ; pop ebp ; lea esp,  [ecx-0x04] ; ret ;
0x401504: sal byte [ebp-0x17], 0x83 ; les ecx,  [ebx+eax*8] ; lea esi,  [esi+0x00] ; ret ;
0x4021ef: sal byte [ebp-0x22], 0x83 ; les ebx,  [ecx+ecx*4] ; fcomp  [ebx+0x5E] ; pop edi ; pop ebp ; ret ;
0x4014e8: sal byte [ebp-0x7D], 0xEC ; or al, 0x66 ; nop ; call eax ;
0x401d16: sal byte [edi+edx*2-0x77], 0x5C ; and al, 0x20 ; add esp, 0x18 ; pop ebx ; jmp eax ;
0x401efb: sal byte [edx+eax*2-0x75], 0x44 ; and al, 0x20 ; mov  [ebx], eax ; mov eax,  [esp+0x24] ; mov  [ebx+0x04], eax ; mov  [esp+0x00], 0x004050EC ; call  [0x004061B8] ;
0x4011f5: sal byte [esp+ebx-0x39], 0x44 ; and al, 0x08 ; add byte [eax], al ; add byte [eax], al ; mov  [esp+0x04], 0x00000002 ; mov  [esp+0x00], 0x00000000 ; call eax ;
0x4024c1: sal byte [esp+edx*8-0x7B], cl ; fstp tword [edi-0x18] ; mov ecx,  [eax+0x0C] ; pop ebx ; pop esi ; pop edi ; add ecx, 0x00400000 ; mov eax, ecx ; ret ;
0x402711: sar byte [eax+0x00000000], 0x0F ; inc esp ; ret ;
0x402543: sbb  [ebx], eax ; add byte [eax], al ; add esp, 0x2C ; ret ;
0x401532: sbb  [esi], ebp ; lea esi,  [esi+0x00000000] ; lea esi,  [esi+0x00] ; call  [0x0040457C+ebx*4] ;
0x401830: sbb al, 0x00 ; add byte [eax], al ; mov  [esp+0x04], edx ; mov  [esp+0x00], eax ; call  [0x004061D8] ;
0x402202: sbb al, 0x31 ; fisttp  [ecx+0x5F5E5BD8] ; pop ebp ; ret ;
0x401151: sbb al, 0x50 ; inc eax ; add al, ch ; out 0x14, al ; add byte [eax], al ; add esp, 0x2C ; ret ;
0x401ec7: sbb al, 0x5B ; pop esi ; pop edi ; pop ebp ; ret ;
0x4028aa: sbb al, 0x62 ; inc eax ; add byte [eax+0x2025FF90], dl ; bound eax,  [eax+0x00] ; nop ; nop ; jmp  [0x00406224] ;
0x4021f4: sbb al, 0x89 ; fcomp  [ebx+0x5E] ; pop edi ; pop ebp ; ret ;
0x4011f7: sbb al, 0xC7 ; inc esp ; and al, 0x08 ; add byte [eax], al ; add byte [eax], al ; mov  [esp+0x04], 0x00000002 ; mov  [esp+0x00], 0x00000000 ; call eax ;
0x402020: sbb byte [eax+0x00000001], bh ; pop ebx ; ret ;
0x4020b7: sbb byte [eax+0x00000001], bh ; pop ebx ; ret ;
0x401637: sbb byte [eax+0x00000001], bh ; pop ebx ; retn 0x000C ;
0x401675: sbb byte [eax+0x00000001], bh ; pop ebx ; retn 0x000C ;
0x40169e: sbb byte [eax+0x00000001], bh ; pop ebx ; retn 0x000C ;
0x40114a: sbb byte [eax+0x40], dl ; add bh, al ; add al, 0x24 ; sbb al, 0x50 ; inc eax ; add al, ch ; out 0x14, al ; add byte [eax], al ; add esp, 0x2C ; ret ;
0x4010a9: sbb byte [eax], al ; add bl, ch ; retn 0x9066 ;
0x402373: sbb byte [eax], al ; inc eax ; add byte [ebx], cl ; add  [ebp-0x0C], esi ; mov eax, 0x00400000 ; ret ;
0x4022b3: sbb byte [eax], al ; inc eax ; add byte [ebx], cl ; add  [ebp-0x0C], esi ; movzx eax, word [edx+0x00400006] ; ret ;
0x40162f: sbb byte [ebx+0x4B7401F8], al ; add esp, 0x18 ; mov eax, 0x00000001 ; pop ebx ; retn 0x000C ;
0x402125: sbb byte [ebx], cl ; add  [edi], ecx ; xchg eax, esp ; retn 0xD089 ;
0x401f63: sbb byte [ecx], dh ; rcr byte [ebx-0x3D], 0x2E ; lea esi,  [esi+0x00000000] ; mov  [esp+0x00], 0x004050EC ; call  [0x004061B8] ;
0x4028a2: sbb byte [edx+0x40], ah ; add byte [eax+0x1C25FF90], dl ; bound eax,  [eax+0x00] ; nop ; nop ; jmp  [0x00406220] ;
0x401c51: sbb ch, bl ; pop esp ; and al, 0x20 ; mov  [esp+0x10], edx ; mov edx,  [esp+0x44] ; fstp qword [esp+0x28] ; mov  [esp+0x14], edx ; lea edx,  [esp+0x10] ; mov  [esp+0x00], edx ; call eax ;
0x401826: sbb cl, byte [0xC7142454+ecx*4] ; inc esp ; and al, 0x08 ; sbb al, 0x00 ; add byte [eax], al ; mov  [esp+0x04], edx ; mov  [esp+0x00], eax ; call  [0x004061D8] ;
0x401bd1: sbb cl, byte [ecx-0x76F3DB8C] ; push esp ; and al, 0x08 ; mov edx,  [eax+0x08] ; mov  [esp+0x04], edx ; mov eax,  [eax+0x04] ; mov  [esp+0x00], eax ; call ebx ;
0x401889: sbb eax, 0x004050D4 ; mov  [ebx+0x08], ecx ; mov  [ebx+0x04], edx ; mov  [esp+0x0C], ebx ; mov  [esp+0x08], eax ; mov  [esp+0x04], ecx ; mov  [esp+0x00], edx ; call  [0x004061D4] ;
0x401f21: sbb eax, 0x004050E4 ; mov  [ebx+0x08], eax ; mov  [esp+0x00], 0x004050EC ; call  [0x004061C4] ;
0x401412: sbb eax, eax ; add esp, 0x1C ; ret ;
0x402128: sete dl ; mov eax, edx ; ret ;
0x401e83: shl byte [ecx+0x40], 1 ; add byte [ebx+0x4061BC3D], cl ; add byte [ebp+0x038B0076], cl ; mov  [esp+0x00], eax ; call ebp ;
0x401d63: shr bl, 1 ; push edx ; lea esi,  [esi+0x00000000] ; nop ; xor eax, eax ; add esp, 0x18 ; pop ebx ; retn 0x0004 ;
0x402341: shr byte [eax], 0x39 ; fidiv  [ebp-0x17] ; xor eax, eax ; pop ebx ; ret ;
0x402417: shr edx, 0x1F ; mov eax, edx ; ret ;
0x40166c: sti ; mov esp, 0x75004045 ; in eax, dx ; add esp, 0x18 ; mov eax, 0x00000001 ; pop ebx ; retn 0x000C ;
0x4028ca: sub al, 0x62 ; inc eax ; add byte [eax+0x3025FF90], dl ; bound eax,  [eax+0x00] ; nop ; nop ; jmp  [0x00406234] ;
0x4027b9: sub al, 0xC3 ; lea esi,  [esi+0x00] ; sub esp, 0x0C ; call  [0x00406298] ;
0x402629: sub al, 0xC3 ; nop ; nop ; nop ; nop ; nop ; xor eax, eax ; ret ;
0x401c61: sub byte [ecx-0x72EBDBAC], cl ; push esp ; and al, 0x10 ; mov  [esp+0x00], edx ; call eax ;
0x402493: sub byte [ecx], bh ; div  [ebp-0x18] ; xor ecx, ecx ; pop ebx ; pop esi ; mov eax, ecx ; pop edi ; ret ;
0x402342: sub byte [ecx], bh ; fidiv  [ebp-0x17] ; xor eax, eax ; pop ebx ; ret ;
0x4028c2: sub byte [edx+0x40], ah ; add byte [eax+0x2C25FF90], dl ; bound eax,  [eax+0x00] ; nop ; nop ; jmp  [0x00406230] ;
0x401e82: sub eax, 0x004061D0 ; mov edi,  [0x004061BC] ; lea esi,  [esi+0x00] ; mov eax,  [ebx] ; mov  [esp+0x00], eax ; call ebp ;
0x402502: sub ecx, eax ; or  [ecx], 0x00000000 ; pop eax ; pop ecx ; ret ;
0x401f38: sub esp, 0x04 ; add esp, 0x18 ; pop ebx ; ret ;
0x401fcf: sub esp, 0x04 ; add esp, 0x18 ; pop ebx ; ret ;
0x401ec2: sub esp, 0x04 ; add esp, 0x1C ; pop ebx ; pop esi ; pop edi ; pop ebp ; ret ;
0x401e99: sub esp, 0x04 ; call edi ;
0x401f1d: sub esp, 0x04 ; mov  [0x004050E4], ebx ; mov  [ebx+0x08], eax ; mov  [esp+0x00], 0x004050EC ; call  [0x004061C4] ;
0x4027c0: sub esp, 0x0C ; call  [0x00406298] ;
0x4027f0: sub esp, 0x0C ; call  [0x00406298] ;
0x4014eb: sub esp, 0x0C ; nop ; call eax ;
0x401e64: sub esp, 0x1C ; mov  [esp+0x00], 0x004050EC ; call  [0x004061B8] ;
0x401999: test  [edi-0x74FFFFFF], esi ; inc ebx ; or byte [ebx-0x7AF0FE08], al ; push 0x83000002 ; ret ;
0x4011ea: test byte [ecx+eax+0x60A10000], al ; inc eax ; inc eax ; add byte [ebp-0x38E38B40], al ; inc esp ; and al, 0x08 ; add byte [eax], al ; add byte [eax], al ; mov  [esp+0x04], 0x00000002 ; mov  [esp+0x00], 0x00000000 ; call eax ;
0x402842: test byte [edx+0x40], ah ; add byte [eax+0x5825FF90], dl ; bound eax,  [eax+0x00] ; nop ; nop ; jmp  [0x0040625C] ;
0x401304: test dh, al ; add byte [eax], al ; add byte [ebx+0x40500815], cl ; add byte [ebp-0x72928B2E], al ; lock pop ecx ; pop ebx ; pop esi ; pop edi ; pop ebp ; lea esp,  [ecx-0x04] ; ret ;
0x402710: test eax, eax ; mov eax, 0x00000000 ; cmove eax, ebx ; add esp, 0x18 ; pop ebx ; ret ;
0x4022f3: xchg eax, ebx ; add byte [eax], al ; inc eax ; add byte [esi+eax+0x5B], dh ; ret ;
0x401cbd: xchg eax, ebx ; add byte [eax], al ; ror byte [edi], 0x84 ; ret ;
0x402693: xchg eax, ecx ; add al, byte [eax] ; add byte [ebx-0x3FCEE73C], al ; pop ebx ; ret ;
0x402832: xchg eax, esp ; bound eax,  [eax+0x00] ; nop ; nop ; jmp  [0x00406280] ;
0x402129: xchg eax, esp ; retn 0xD089 ;
0x40152e: xor  [ebp+0x2E1974DB], eax ; lea esi,  [esi+0x00000000] ; lea esi,  [esi+0x00] ; call  [0x0040457C+ebx*4] ;
0x4026f3: xor  [edx], eax ; add byte [eax], al ; add esp, 0x18 ; xor eax, eax ; pop ebx ; ret ;
0x401eaa: xor al, 0x24 ; call eax ;
0x4028da: xor al, 0x62 ; inc eax ; add byte [eax+0x3825FF90], dl ; bound eax,  [eax+0x00] ; nop ; nop ; jmp  [0x0040623C] ;
0x401e80: xor al, 0x8B ; sub eax, 0x004061D0 ; mov edi,  [0x004061BC] ; lea esi,  [esi+0x00] ; mov eax,  [ebx] ; mov  [esp+0x00], eax ; call ebp ;
0x4027e4: xor byte [eax+0x00], al ; add esp, 0x0C ; ret ;
0x402814: xor byte [eax+0x00], al ; add esp, 0x0C ; ret ;
0x401869: xor byte [ebx+0x5E], bl ; pop edi ; ret ;
0x40253d: xor byte [ecx-0x17F7DBBC], cl ; sbb  [ebx], eax ; add byte [eax], al ; add esp, 0x2C ; ret ;
0x4028d2: xor byte [edx+0x40], ah ; add byte [eax+0x3425FF90], dl ; bound eax,  [eax+0x00] ; nop ; nop ; jmp  [0x00406238] ;
0x401817: xor eax, 0x8B00000B ; adc eax, 0x004050D4 ; add eax,  [edi+0x0C] ; mov  [edx+ebx+0x0C], eax ; lea edx,  [esp+0x14] ; mov  [esp+0x08], 0x0000001C ; mov  [esp+0x04], edx ; mov  [esp+0x00], eax ; call  [0x004061D8] ;
0x401d70: xor eax, eax ; add esp, 0x18 ; pop ebx ; retn 0x0004 ;
0x401098: xor eax, eax ; add esp, 0x1C ; ret ;
0x4010ec: xor eax, eax ; add esp, 0x1C ; ret ;
0x401736: xor eax, eax ; pop ebx ; pop esi ; ret ;
0x402168: xor eax, eax ; pop ebx ; pop esi ; ret ;
0x402288: xor eax, eax ; pop ebx ; pop esi ; ret ;
0x401f64: xor eax, eax ; pop ebx ; ret ;
0x402347: xor eax, eax ; pop ebx ; ret ;
0x40269a: xor eax, eax ; pop ebx ; ret ;
0x4026fa: xor eax, eax ; pop ebx ; ret ;
0x4015b0: xor eax, eax ; ret ;
0x4016b0: xor eax, eax ; ret ;
0x401ed9: xor eax, eax ; ret ;
0x402630: xor eax, eax ; ret ;
0x40272d: xor eax, eax ; ret ;
0x401f36: xor eax, eax ; sub esp, 0x04 ; add esp, 0x18 ; pop ebx ; ret ;
0x401fcd: xor eax, eax ; sub esp, 0x04 ; add esp, 0x18 ; pop ebx ; ret ;
0x402203: xor ebx, ebx ; mov eax, ebx ; pop ebx ; pop esi ; pop edi ; pop ebp ; ret ;
0x402498: xor ecx, ecx ; pop ebx ; pop esi ; mov eax, ecx ; pop edi ; ret ;
0x402120: xor edx, edx ; cmp word [eax+0x18], 0x010B ; sete dl ; mov eax, edx ; ret ;
0x402408: xor edx, edx ; mov eax, edx ; pop ebx ; pop esi ; ret ;
