No rop gadget length was specified via --rop, so setting it to 5..
Trying to open 'python.exe'..
Loading PE information..
FileFormat: PE, Arch: x64

Wait a few seconds, rp++ is looking for gadgets (2 threads max)..
A total of 8082 gadgets found.
0x14000e1eb: aad 0x01 ; add bh, bh ; ret ; \xd5\x01\x00\xff\xc3 (1 found)
0x14000dfec: aad 0x01 ; add byte [rax], al ; mov al, 0x01 ; add rsp, 0x28 ; ret ; \xd5\x01\x00\x00\xb0\x01\x48\x83\xc4\x28\xc3 (1 found)
0x140002f80: aad 0x41 ; mov  [rdi+0x48], eax ; mov r8d,  [rbx+rcx*8+0x0C] ; mov cl, 0x01 ; add r8, r12 ; call r8 ; \xd5\x41\x89\x47\x48\x44\x8b\x44\xcb\x0c\xb1\x01\x4d\x03\xc4\x41\xff\xd0 (1 found)
0x140002e40: aad 0x49 ; add eax, esp ; lea rcx, qword [rsp+0x30] ; call rax ; \xd5\x49\x03\xc4\x48\x8d\x4c\x24\x30\xff\xd0 (1 found)
0x1400158e7: aad 0x64 ; add  [rax], eax ; ret ; \xd5\x64\x01\x00\xc3 (1 found)
0x140019762: aad 0xF2 ; addps xmm0, xmm2 ; movdqa xmm6,  [rsp+0x20] ; add rsp, 0x58 ; ret ; \xd5\xf2\x0f\x58\xc2\x66\x0f\x6f\x74\x24\x20\x48\x83\xc4\x58\xc3 (1 found)
0x14000ed54: aad 0xFE ; retn 0x1188 ; \xd5\xfe\xc2\x88\x11 (1 found)
0x14000dfe4: aam 0x07 ; add byte [rax], al ; and qword [0x000000014002B508], 0x0000000000000000 ; mov al, 0x01 ; add rsp, 0x28 ; ret ; \xd4\x07\x00\x00\x48\x83\x25\x18\xd5\x01\x00\x00\xb0\x01\x48\x83\xc4\x28\xc3 (1 found)
0x14001aff7: aas ; add rsp, 0x28 ; ret ; \x3f\x48\x83\xc4\x28\xc3 (1 found)
0x140019e82: aas ; or eax, ecx ; mov  [rsp+0x08], eax ; ldmxcsr  [rsp+0x08] ; ret ; \x3f\x0b\xc1\x89\x44\x24\x08\x0f\xae\x54\x24\x08\xc3 (1 found)
0x14000cf61: aas ; ror rdx, cl ; test rdx, rdx ; setne al ; ret ; \x3f\x48\xd3\xca\x48\x85\xd2\x0f\x95\xc0\xc3 (1 found)
0x14000cfc4: aas ; sub ecx, edx ; ror r9, cl ; xor r9, r8 ; mov qword [0x000000014002B2B0], r9 ; ret ; \x3f\x2b\xca\x49\xd3\xc9\x4d\x33\xc8\x4c\x89\x0d\xdc\xe2\x01\x00\xc3 (1 found)
0x14000a06f: adc  [rax+rdi+0x69], eax ; sbb byte [rsp+rax-0x01], dh ; retn 0x03EB ; \x11\x44\x38\x69\x18\x74\x04\xff\xc2\xeb\x03 (1 found)
0x140013556: adc  [rax-0x75], ecx ; or ebp, eax ; pop rbp ; mov dl, 0xFF ; dec  [rax-0x7D] ; ret ; \x11\x48\x8b\x0b\xe8\x5d\xb2\xff\xff\x48\x83\xc3 (1 found)
0x14001be97: adc  [rax], edx ; movups  [rcx], xmm0 ; ret ; \x11\x10\x0f\x11\x01\xc3 (1 found)
0x140007a7a: adc  [rcx-0x76], eax ; ret ; \x11\x41\x8a\xc3 (1 found)
0x140007b1a: adc  [rcx-0x76], eax ; ret ; \x11\x41\x8a\xc3 (1 found)
0x140007bba: adc  [rcx-0x76], eax ; ret ; \x11\x41\x8a\xc3 (1 found)
0x14000803e: adc  [rcx-0x76], eax ; ret ; \x11\x41\x8a\xc3 (1 found)
0x1400080de: adc  [rcx-0x76], eax ; ret ; \x11\x41\x8a\xc3 (1 found)
0x14000817e: adc  [rcx-0x76], eax ; ret ; \x11\x41\x8a\xc3 (1 found)
0x14001be9a: adc  [rcx], eax ; ret ; \x11\x01\xc3 (1 found)
0x14000e6eb: adc  [rdi+0x06], esi ; mov eax, 0x0000000D ; ret ; \x11\x77\x06\xb8\x0d\x00\x00\x00\xc3 (1 found)
0x14001b252: adc al, 0x24 ; mov r11, qword [rsp+0x08] ; add rsp, 0x10 ; ret ; \x14\x24\x4c\x8b\x5c\x24\x08\x48\x83\xc4\x10\xc3 (1 found)
0x14001415b: adc al, 0x2B ; retn 0x7A8D ; \x14\x2b\xc2\x8d\x7a (1 found)
0x14000d8d9: adc al, byte [rax-0x77BD7F37] ; retn 0x4A38 ; \x12\x80\xc9\x80\x42\x88\x4c\xc2\x38\x4a (1 found)
0x1400011b5: adc al, byte [rax] ; add byte [rbx], dh ; sar bh, cl ; adc eax, 0x0001BED8 ; add rsp, 0x48 ; ret ; \x12\x00\x00\x33\xd2\xff\x15\xd8\xbe\x01\x00\x48\x83\xc4\x48\xc3 (1 found)
0x140003091: adc bh, bh ; adc eax, 0x0001A268 ; add rsp, 0x48 ; ret ; \x10\xff\x15\x68\xa2\x01\x00\x48\x83\xc4\x48\xc3 (1 found)
0x140002da4: adc bl, ch ; in al, 0x48 ; mov eax, edx ; ret ; \x10\xeb\xe4\x48\x8b\xc2\xc3 (1 found)
0x140017110: adc byte [0x0000000121EA7116], al ; add byte [rax], al ; add byte [rbx], dh ; fild  [rbp-0x75] ; retn 0x8545 ; \x10\x05\x00\x00\xe9\xe1\x00\x00\x00\x33\xdb\x45\x8b\xc2\x45\x85 (1 found)
0x140016caa: adc byte [0x0000000124EA6CB0], al ; add byte [rax], al ; add byte [rbp+0x33], al ; fild  [rbp-0x75] ; retn 0x8545 ; \x10\x05\x00\x00\xe9\xe4\x00\x00\x00\x45\x33\xdb\x45\x8b\xc2\x45\x85 (1 found)
0x14001913d: adc byte [gs:rcx+0x5F], al ; pop r14 ; pop r13 ; pop r12 ; pop rbp ; ret ; \x65\x10\x41\x5f\x41\x5e\x41\x5d\x41\x5c\x5d\xc3 (1 found)
0x14001ad16: adc byte [r11-0x09EFF3B7], r8L ; retn 0x7404 ; \x4d\x10\x83\x49\x0c\x10\xf6\xc2\x04\x74 (1 found)
0x14001ad23: adc byte [r11-0x09F7F3B7], r8L ; retn 0x7408 ; \x4d\x10\x83\x49\x0c\x08\xf6\xc2\x08\x74 (1 found)
0x14001ad30: adc byte [r11-0x09FBF3B8], r8L ; retn 0x7410 ; \x45\x10\x83\x48\x0c\x04\xf6\xc2\x10\x74 (1 found)
0x14001ad3d: adc byte [r11-0x09FDF3B8], r8L ; retn 0x7420 ; \x45\x10\x83\x48\x0c\x02\xf6\xc2\x20\x74 (1 found)
0x140011ea6: adc byte [r8-0x77], cl ; sbb al, 0x48 ; mov  [rcx+0x28], eax ; xchg  [rcx+0x14], eax ; ret ; \x41\x10\x48\x89\x41\x1c\x48\x89\x41\x28\x87\x41\x14\xc3 (1 found)
0x140015550: adc byte [rax+0x00000001], bh ; lock xadd  [rcx+0x0000015C], eax ; inc eax ; ret ; \x10\xb8\x01\x00\x00\x00\xf0\x0f\xc1\x81\x5c\x01\x00\x00\xff\xc0\xc3 (1 found)
0x14000844b: adc byte [rax-0x01], cl ; retn 0x0288 ; \x10\x48\xff\xc2\x88\x02 (1 found)
0x140001d38: adc byte [rax-0x3F], cl ; rcl  [rax], 0x66 ; test ecx, 0x0175FFFF ; ret ; \x10\x48\xc1\xc1\x10\x66\xf7\xc1\xff\xff\x75\x01\xc3 (1 found)
0x140011ea7: adc byte [rax-0x77], cl ; sbb al, 0x48 ; mov  [rcx+0x28], eax ; xchg  [rcx+0x14], eax ; ret ; \x10\x48\x89\x41\x1c\x48\x89\x41\x28\x87\x41\x14\xc3 (1 found)
0x14000bc9e: adc byte [rax], al ; mov eax,  [rbp+0x20] ; cmovne eax,  [rbp+0x28] ; add rsp, 0x40 ; pop rbp ; ret ; \x10\x00\x8b\x45\x20\x0f\x45\x45\x28\x48\x83\xc4\x40\x5d\xc3 (1 found)
0x140018e07: adc byte [rax], al ; mov qword [rbx], rax ; mov rbx, qword [rsp+0x30] ; add rsp, 0x20 ; pop rdi ; ret ; \x10\x00\x48\x89\x03\x48\x8b\x5c\x24\x30\x48\x83\xc4\x20\x5f\xc3 (1 found)
0x140002a88: adc byte [rbp+0x0F], cl ; enter 0x8B49, 0xC1 ; ret ; \x10\x4d\x0f\x44\xc8\x49\x8b\xc1\xc3 (1 found)
0x14000d919: adc byte [rbx+rcx*4+0x74], cl ; and al, 0x18 ; ret ; \x10\x4c\x8b\x74\x24\x18\xc3 (1 found)
0x14001ad17: adc byte [rbx-0x09EFF3B7], al ; retn 0x7404 ; \x10\x83\x49\x0c\x10\xf6\xc2\x04\x74 (1 found)
0x14001ad24: adc byte [rbx-0x09F7F3B7], al ; retn 0x7408 ; \x10\x83\x49\x0c\x08\xf6\xc2\x08\x74 (1 found)
0x14001ad31: adc byte [rbx-0x09FBF3B8], al ; retn 0x7410 ; \x10\x83\x48\x0c\x04\xf6\xc2\x10\x74 (1 found)
0x14001ad3e: adc byte [rbx-0x09FDF3B8], al ; retn 0x7420 ; \x10\x83\x48\x0c\x02\xf6\xc2\x20\x74 (1 found)
0x140015c10: adc byte [rbx-0x3974B735], cl ; mov r8, qword [0x000000014001D308] ; call r8 ; \x10\x8b\xcb\x48\x8b\xc6\x4c\x8b\x05\xeb\x76\x00\x00\x41\xff\xd0 (1 found)
0x140002a08: adc byte [rcx+0x5E], al ; pop rdi ; pop rbp ; ret ; \x10\x41\x5e\x5f\x5d\xc3 (1 found)
0x14001913e: adc byte [rcx+0x5F], al ; pop r14 ; pop r13 ; pop r12 ; pop rbp ; ret ; \x10\x41\x5f\x41\x5e\x41\x5d\x41\x5c\x5d\xc3 (1 found)
0x14000dc1d: adc byte [rcx-0x75], cl ; retn 0x8B49 ; \x10\x49\x8b\xc2\x49\x8b (1 found)
0x140004c5c: adc byte [rdi-0x76B7FFFF], 0x03 ; mov rax, rbx ; add rsp, 0x20 ; pop rbx ; ret ; \x80\x97\x01\x00\x48\x89\x03\x48\x8b\xc3\x48\x83\xc4\x20\x5b\xc3 (1 found)
0x14001be98: adc byte [rdi], cl ; adc  [rcx], eax ; ret ; \x10\x0f\x11\x01\xc3 (1 found)
0x14001b854: adc byte [rdx+rax+0x00], ah ; add r9, r10 ; jmp r9 ; \x10\x64\x02\x00\x4d\x03\xca\x41\xff\xe1 (1 found)
0x14001aa2c: adc byte [rsp+0x08], al ; ret ; \x10\x44\x24\x08\xc3 (1 found)
0x14001a827: adc byte [rsp+0x40], al ; add rsp, 0x50 ; pop rbx ; ret ; \x10\x44\x24\x40\x48\x83\xc4\x50\x5b\xc3 (1 found)
0x140015ad4: adc ch, al ; retn 0xFF8C ; \x12\xe8\xc2\x8c\xff (1 found)
0x1400032f4: adc cl, byte [rax-0x75] ; ret ; \x12\x48\x8b\xc3 (1 found)
0x1400116ac: adc cl, byte [rbx+0x01302444] ; add al, 0x3B ; ret ; \x12\x8b\x44\x24\x30\x01\x47\x04\x3b\xc3 (1 found)
0x1400117c7: adc cl, byte [rbx+0x01302444] ; add al, 0x3B ; ret ; \x12\x8b\x44\x24\x30\x01\x47\x04\x3b\xc3 (1 found)
0x140005673: adc dh, al ; add byte [rcx], al ; add rsp, 0x30 ; pop rbx ; ret ; \x10\xc6\x00\x01\x48\x83\xc4\x30\x5b\xc3 (1 found)
0x14001ad1b: adc dh, dh ; retn 0x7404 ; \x10\xf6\xc2\x04\x74 (1 found)
0x140003090: adc dil, dil ; adc eax, 0x0001A268 ; add rsp, 0x48 ; ret ; \x40\x10\xff\x15\x68\xa2\x01\x00\x48\x83\xc4\x48\xc3 (1 found)
0x14000d4b9: adc eax,  [rax] ; add byte [rax-0x75], cl ; ret ; \x13\x00\x00\x48\x8b\xc3 (1 found)
0x14000d3be: adc eax,  [rax] ; add byte [rbx+0x5C8B48C7], cl ; and al, 0x30 ; add rsp, 0x20 ; pop rdi ; ret ; \x13\x00\x00\x8b\xc7\x48\x8b\x5c\x24\x30\x48\x83\xc4\x20\x5f\xc3 (1 found)
0x14001a0ee: adc eax, 0x00002FBD ; add rsp, 0x28 ; ret ; \x15\xbd\x2f\x00\x00\x48\x83\xc4\x28\xc3 (1 found)
0x140015c33: adc eax, 0x000076D0 ; call rdx ; \x15\xd0\x76\x00\x00\xff\xd2 (1 found)
0x1400157e5: adc eax, 0x00007ABE ; test rax, rax ; mov qword [0x000000014002BDB8], rax ; setne al ; add rsp, 0x28 ; ret ; \x15\xbe\x7a\x00\x00\x48\x85\xc0\x48\x89\x05\xc4\x65\x01\x00\x0f\x95\xc0\x48\x83\xc4\x28\xc3 (1 found)
0x140010ca3: adc eax, 0x0000C4C8 ; mov rbx, qword [rsp+0x30] ; mov rsi, qword [rsp+0x38] ; add rsp, 0x20 ; pop rdi ; ret ; \x15\xc8\xc4\x00\x00\x48\x8b\x5c\x24\x30\x48\x8b\x74\x24\x38\x48\x83\xc4\x20\x5f\xc3 (1 found)
0x14000d932: adc eax, 0x0000F711 ; mov qword [0x000000014002B518], rax ; mov al, 0x01 ; add rsp, 0x28 ; ret ; \x15\x11\xf7\x00\x00\x48\x89\x05\xda\xdb\x01\x00\xb0\x01\x48\x83\xc4\x28\xc3 (1 found)
0x140005807: adc eax, 0x00017984 ; nop ; add rsp, 0x30 ; pop rbx ; ret ; \x15\x84\x79\x01\x00\x90\x48\x83\xc4\x30\x5b\xc3 (1 found)
0x14000556a: adc eax, 0x00017C41 ; mov rbx, qword [rsp+0x70] ; mov rsi, qword [rsp+0x78] ; add rsp, 0x50 ; pop rdi ; ret ; \x15\x41\x7c\x01\x00\x48\x8b\x5c\x24\x70\x48\x8b\x74\x24\x78\x48\x83\xc4\x50\x5f\xc3 (1 found)
0x1400036ec: adc eax, 0x00019A7F ; mov rbx, qword [rsp+0x30] ; mov rsi, qword [rsp+0x38] ; add rsp, 0x20 ; pop rdi ; ret ; \x15\x7f\x9a\x01\x00\x48\x8b\x5c\x24\x30\x48\x8b\x74\x24\x38\x48\x83\xc4\x20\x5f\xc3 (1 found)
0x14000368d: adc eax, 0x00019AEE ; mov rbx, qword [rsp+0x30] ; add rsp, 0x20 ; pop rdi ; ret ; \x15\xee\x9a\x01\x00\x48\x8b\x5c\x24\x30\x48\x83\xc4\x20\x5f\xc3 (1 found)
0x140003093: adc eax, 0x0001A268 ; add rsp, 0x48 ; ret ; \x15\x68\xa2\x01\x00\x48\x83\xc4\x48\xc3 (1 found)
0x1400011bb: adc eax, 0x0001BED8 ; add rsp, 0x48 ; ret ; \x15\xd8\xbe\x01\x00\x48\x83\xc4\x48\xc3 (1 found)
0x140005876: adc eax, 0x00025A0D ; add rsp, 0x28 ; ret ; \x15\x0d\x5a\x02\x00\x48\x83\xc4\x28\xc3 (1 found)
0x1400022f5: adc eax, 0x00028DAE ; add rsp, 0x20 ; pop rbx ; ret ; \x15\xae\x8d\x02\x00\x48\x83\xc4\x20\x5b\xc3 (1 found)
0x140002d7b: adc eax, 0x6348EF75 ; ror  [rcx-0x73], 0x04 ; ret ; \x15\x75\xef\x48\x63\xc1\x49\x8d\x04\x40\xc3 (1 found)
0x14000d1c9: adc eax, 0x8B480000 ; ret ; \x15\x00\x00\x48\x8b\xc3 (1 found)
0x140010e81: adc ebx, 0xFFFFFFFF ; call qword [rax+0x000003BB] ; \x83\xd3\xff\xff\x90\xbb\x03\x00\x00 (1 found)
0x14001764c: adc ebx, ebp ; out 0xF7, al ; retn 0xF800 ; \x11\xeb\xe6\xf7\xc2\x00\xf8 (1 found)
0x140013fc6: adc ecx,  [rax-0x75] ; ret ; \x13\x48\x8b\xc3 (1 found)
0x14001b2f3: adc ecx,  [rax-0x7D] ; retn 0x0F10 ; \x13\x48\x83\xc2\x10\x0f (1 found)
0x14000d933: adc edi, esi ; add byte [rax], al ; mov qword [0x000000014002B518], rax ; mov al, 0x01 ; add rsp, 0x28 ; ret ; \x11\xf7\x00\x00\x48\x89\x05\xda\xdb\x01\x00\xb0\x01\x48\x83\xc4\x28\xc3 (1 found)
0x140005672: adc r14L, al ; add byte [rcx], al ; add rsp, 0x30 ; pop rbx ; ret ; \x43\x10\xc6\x00\x01\x48\x83\xc4\x30\x5b\xc3 (1 found)
0x140004d05: add  [fs:rax], eax ; mov rbx, qword [rsp+0x30] ; mov rax, rdi ; add rsp, 0x20 ; pop rdi ; ret ; \x64\x01\x00\x48\x8b\x5c\x24\x30\x48\x8b\xc7\x48\x83\xc4\x20\x5f\xc3 (1 found)
0x140004d49: add  [fs:rax], eax ; mov rbx, qword [rsp+0x30] ; mov rax, rdi ; add rsp, 0x20 ; pop rdi ; ret ; \x64\x01\x00\x48\x8b\x5c\x24\x30\x48\x8b\xc7\x48\x83\xc4\x20\x5f\xc3 (1 found)
0x1400158e8: add  [fs:rax], eax ; ret ; \x64\x01\x00\xc3 (1 found)
0x1400157f1: add  [gs:rax], eax ; setne al ; add rsp, 0x28 ; ret ; \x65\x01\x00\x0f\x95\xc0\x48\x83\xc4\x28\xc3 (1 found)
0x140001b42: add  [r8-0x01], ecx ; ret ; \x43\x01\x48\xff\xc3 (1 found)
0x14000d906: add  [rax+0x00010000], edi ; cmove eax, r14d ; mov rbx, qword [rsp+0x08] ; mov rdi, qword [rsp+0x10] ; mov r14, qword [rsp+0x18] ; ret ; \x01\xb8\x00\x00\x01\x00\x41\x0f\x44\xc6\x48\x8b\x5c\x24\x08\x48\x8b\x7c\x24\x10\x4c\x8b\x74\x24\x18\xc3 (1 found)
0x14000fc60: add  [rax+0x39], ecx ; or eax, 0x0001BB40 ; sete al ; ret ; \x01\x48\x39\x0d\x40\xbb\x01\x00\x0f\x94\xc0\xc3 (1 found)
0x1400101b8: add  [rax+0x3B], ecx ; retn 0x0C74 ; \x01\x48\x3b\xc2\x74\x0c (1 found)
0x14000ada1: add  [rax+0x5C8B4801], esi ; and al, 0x40 ; add rsp, 0x30 ; pop rdi ; ret ; \x01\xb0\x01\x48\x8b\x5c\x24\x40\x48\x83\xc4\x30\x5f\xc3 (1 found)
0x14000ae59: add  [rax+0x5C8B4801], esi ; and al, 0x40 ; add rsp, 0x30 ; pop rdi ; ret ; \x01\xb0\x01\x48\x8b\x5c\x24\x40\x48\x83\xc4\x30\x5f\xc3 (1 found)
0x14000af11: add  [rax+0x5C8B4801], esi ; and al, 0x40 ; add rsp, 0x30 ; pop rdi ; ret ; \x01\xb0\x01\x48\x8b\x5c\x24\x40\x48\x83\xc4\x30\x5f\xc3 (1 found)
0x14000edfb: add  [rax+0x69], ecx ; retn 0xFC18 ; \x01\x48\x69\xc2\x18\xfc (1 found)
0x140001b43: add  [rax-0x01], ecx ; ret ; \x01\x48\xff\xc3 (1 found)
0x14000308d: add  [rax-0x75], ecx ; adc dil, dil ; adc eax, 0x0001A268 ; add rsp, 0x48 ; ret ; \x01\x48\x8b\x40\x10\xff\x15\x68\xa2\x01\x00\x48\x83\xc4\x48\xc3 (1 found)
0x14000566f: add  [rax-0x75], ecx ; adc r14L, al ; add byte [rcx], al ; add rsp, 0x30 ; pop rbx ; ret ; \x01\x48\x8b\x43\x10\xc6\x00\x01\x48\x83\xc4\x30\x5b\xc3 (1 found)
0x14000ada3: add  [rax-0x75], ecx ; pop rsp ; and al, 0x40 ; add rsp, 0x30 ; pop rdi ; ret ; \x01\x48\x8b\x5c\x24\x40\x48\x83\xc4\x30\x5f\xc3 (1 found)
0x14000ae5b: add  [rax-0x75], ecx ; pop rsp ; and al, 0x40 ; add rsp, 0x30 ; pop rdi ; ret ; \x01\x48\x8b\x5c\x24\x40\x48\x83\xc4\x30\x5f\xc3 (1 found)
0x14000af13: add  [rax-0x75], ecx ; pop rsp ; and al, 0x40 ; add rsp, 0x30 ; pop rdi ; ret ; \x01\x48\x8b\x5c\x24\x40\x48\x83\xc4\x30\x5f\xc3 (1 found)
0x14000f6b9: add  [rax-0x75], ecx ; pushfq ; and al, 0x98 ; add byte [rax], al ; add dh, dh ; ret ; \x01\x48\x8b\x9c\x24\x98\x00\x00\x00\xf6\xc3 (1 found)
0x140011ea0: add  [rax-0x77], ecx ; or byte [r9-0x76B7EFBF], cl ; sbb al, 0x48 ; mov  [rcx+0x28], eax ; xchg  [rcx+0x14], eax ; ret ; \x01\x48\x89\x41\x08\x89\x41\x10\x48\x89\x41\x1c\x48\x89\x41\x28\x87\x41\x14\xc3 (1 found)
0x1400184e3: add  [rax], 0x85FFFC00 ; retn 0x1F75 ; \x81\x00\x00\xfc\xff\x85\xc2\x75\x1f (1 found)
0x1400184d9: add  [rax], 0x85FFFE00 ; retn 0x2174 ; \x81\x00\x00\xfe\xff\x85\xc2\x74\x21 (1 found)
0x140013c85: add  [rax], 0xFF000001 ; retn 0xFF48 ; \x81\x00\x01\x00\x00\xff\xc2\x48\xff (1 found)
0x140015663: add  [rax], eax ; add al, ch ; xor eax, 0x48FFFFFF ; add esp, 0x28 ; ret ; \x01\x00\x00\xe8\x35\xff\xff\xff\x48\x83\xc4\x28\xc3 (1 found)
0x140013c87: add  [rax], eax ; add bh, bh ; retn 0xFF48 ; \x01\x00\x00\xff\xc2\x48\xff (1 found)
0x14001ba6a: add  [rax], eax ; add byte [rax-0x007F], cl ; retn 0x0100 ; \x01\x00\x00\x48\x81\xc2\x00\x01 (1 found)
0x14001bb9a: add  [rax], eax ; add byte [rax-0x007F], cl ; retn 0x0100 ; \x01\x00\x00\x48\x81\xc2\x00\x01 (1 found)
0x14000dfed: add  [rax], eax ; add byte [rax-0x3B7CB7FF], dh ; sub bl, al ; int3 ; mov al, 0x01 ; ret ; \x01\x00\x00\xb0\x01\x48\x83\xc4\x28\xc3\xcc\xb0\x01\xc3 (1 found)
0x14000e88b: add  [rax], eax ; add byte [rax-0x7D], cl ; retn 0x4802 ; \x01\x00\x00\x48\x83\xc2\x02\x48 (1 found)
0x140013c42: add  [rax], eax ; add byte [rax-0x7D], cl ; retn 0x4802 ; \x01\x00\x00\x48\x83\xc2\x02\x48 (1 found)
0x14001c515: add  [rax], eax ; add byte [rax], al ; add rsp, 0x20 ; pop rbp ; ret ; \x01\x00\x00\x00\x48\x83\xc4\x20\x5d\xc3 (1 found)
0x14001c541: add  [rax], eax ; add byte [rax], al ; add rsp, 0x20 ; pop rbp ; ret ; \x01\x00\x00\x00\x48\x83\xc4\x20\x5d\xc3 (1 found)
0x140019516: add  [rax], eax ; add byte [rax], al ; add rsp, 0x20 ; pop rbx ; ret ; \x01\x00\x00\x00\x48\x83\xc4\x20\x5b\xc3 (1 found)
0x14001b10c: add  [rax], eax ; add byte [rax], al ; add rsp, 0x28 ; ret ; \x01\x00\x00\x00\x48\x83\xc4\x28\xc3 (1 found)
0x140015552: add  [rax], eax ; add byte [rax], al ; lock xadd  [rcx+0x0000015C], eax ; inc eax ; ret ; \x01\x00\x00\x00\xf0\x0f\xc1\x81\x5c\x01\x00\x00\xff\xc0\xc3 (1 found)
0x1400194c1: add  [rax], eax ; add byte [rax], al ; mov rbx, qword [rsp+0x38] ; add rsp, 0x20 ; pop rdi ; ret ; \x01\x00\x00\x00\x48\x8b\x5c\x24\x38\x48\x83\xc4\x20\x5f\xc3 (1 found)
0x1400012ff: add  [rax], eax ; add byte [rax], al ; mov rbx, qword [rsp+0x50] ; add rsp, 0x40 ; pop rdi ; ret ; \x01\x00\x00\x00\x48\x8b\x5c\x24\x50\x48\x83\xc4\x40\x5f\xc3 (1 found)
0x140001331: add  [rax], eax ; add byte [rax], al ; ret ; \x01\x00\x00\x00\xc3 (1 found)
0x140002431: add  [rax], eax ; add byte [rax], al ; ret ; \x01\x00\x00\x00\xc3 (1 found)
0x140017636: add  [rax], eax ; add byte [rax], al ; ret ; \x01\x00\x00\x00\xc3 (1 found)
0x14000d9cd: add  [rax], eax ; add byte [rax], al ; xchg  [0x000000014002B520], eax ; ret ; \x01\x00\x00\x00\x87\x05\x49\xdb\x01\x00\xc3 (1 found)
0x140013ac0: add  [rax], eax ; add byte [rbx+0x48], bh ; mov ebx,  [rsp+0x30] ; add rsp, 0x20 ; pop rdi ; ret ; \x01\x00\x00\x7c\xe3\x48\x8b\x5c\x24\x30\x48\x83\xc4\x20\x5f\xc3 (1 found)
0x140016889: add  [rax], eax ; add byte [rcx-0x73], al ; inc  [rcx+0x3B] ; ret ; \x01\x00\x00\x41\x8d\x46\xff\x41\x3b\xc3 (1 found)
0x14001b841: add  [rax], eax ; add byte [rsi+0x66], ah ; nop word [rax+rax+0x00000000] ; mov r9d,  [r10+r8*4+0x00026410] ; add r9, r10 ; jmp r9 ; \x01\x00\x00\x66\x66\x66\x66\x0f\x1f\x84\x00\x00\x00\x00\x00\x47\x8b\x8c\x82\x10\x64\x02\x00\x4d\x03\xca\x41\xff\xe1 (1 found)
0x14001a6d9: add  [rax], eax ; add byte [rsi+rsi-0x0A], dh ; ret ; \x01\x00\x00\x74\x36\xf6\xc3 (1 found)
0x14000d69c: add  [rax], eax ; add rsp, 0x28 ; ret ; \x01\x00\x48\x83\xc4\x28\xc3 (1 found)
0x14000d72f: add  [rax], eax ; add rsp, 0x28 ; ret ; \x01\x00\x48\x83\xc4\x28\xc3 (1 found)
0x1400011be: add  [rax], eax ; add rsp, 0x48 ; ret ; \x01\x00\x48\x83\xc4\x48\xc3 (1 found)
0x140003096: add  [rax], eax ; add rsp, 0x48 ; ret ; \x01\x00\x48\x83\xc4\x48\xc3 (1 found)
0x14000d90a: add  [rax], eax ; cmove eax, r14d ; mov rbx, qword [rsp+0x08] ; mov rdi, qword [rsp+0x10] ; mov r14, qword [rsp+0x18] ; ret ; \x01\x00\x41\x0f\x44\xc6\x48\x8b\x5c\x24\x08\x48\x8b\x7c\x24\x10\x4c\x8b\x74\x24\x18\xc3 (1 found)
0x14000538e: add  [rax], eax ; cmovne rax, qword [rcx+0x08] ; ret ; \x01\x00\x48\x0f\x45\x41\x08\xc3 (1 found)
0x14000b9b3: add  [rax], eax ; imul rax, rax, 0x58 ; add rax, rcx ; ret ; \x01\x00\x48\x6b\xc0\x58\x48\x03\xc1\xc3 (1 found)
0x140002458: add  [rax], eax ; int3 ; int3 ; mov al, 0x01 ; ret ; \x01\x00\xcc\xcc\xb0\x01\xc3 (1 found)
0x140002664: add  [rax], eax ; int3 ; int3 ; xor eax, eax ; ret ; \x01\x00\xcc\xcc\x33\xc0\xc3 (1 found)
0x14001aa9f: add  [rax], eax ; mov  [0x000000014002BDF8], r8d ; xor eax, eax ; add rsp, 0x10 ; pop rbx ; ret ; \x01\x00\x44\x89\x05\x50\x13\x01\x00\x33\xc0\x48\x83\xc4\x10\x5b\xc3 (1 found)
0x14000df92: add  [rax], eax ; mov al, 0x01 ; add rsp, 0x20 ; pop rbx ; ret ; \x01\x00\xb0\x01\x48\x83\xc4\x20\x5b\xc3 (1 found)
0x14000d93c: add  [rax], eax ; mov al, 0x01 ; add rsp, 0x28 ; ret ; \x01\x00\xb0\x01\x48\x83\xc4\x28\xc3 (1 found)
0x14000dec8: add  [rax], eax ; mov al, 0x01 ; ret ; \x01\x00\xb0\x01\xc3 (1 found)
0x14000da9e: add  [rax], eax ; mov eax, ecx ; add rsp, 0x28 ; ret ; \x01\x00\x8b\xc1\x48\x83\xc4\x28\xc3 (1 found)
0x140010e15: add  [rax], eax ; mov ecx, 0x0000001F ; rep stosq ; mov rdi, qword [rsp+0x08] ; mov al, 0x01 ; ret ; \x01\x00\xb9\x1f\x00\x00\x00\xf3\x48\xab\x48\x8b\x7c\x24\x08\xb0\x01\xc3 (1 found)
0x14000d728: add  [rax], eax ; mov qword [0x000000014002B4E0], rax ; add rsp, 0x28 ; ret ; \x01\x00\x48\x89\x05\xaf\xdd\x01\x00\x48\x83\xc4\x28\xc3 (1 found)
0x14000dec1: add  [rax], eax ; mov qword [0x000000014002B7C0], rax ; mov al, 0x01 ; ret ; \x01\x00\x48\x89\x05\xf6\xd8\x01\x00\xb0\x01\xc3 (1 found)
0x1400159e1: add  [rax], eax ; mov qword [0x000000014002BDD0], rcx ; mov qword [0x000000014002BDD8], rcx ; mov qword [0x000000014002BDE0], rcx ; ret ; \x01\x00\x48\x89\x0d\xe6\x63\x01\x00\x48\x89\x0d\xe7\x63\x01\x00\x48\x89\x0d\xe8\x63\x01\x00\xc3 (1 found)
0x1400159e8: add  [rax], eax ; mov qword [0x000000014002BDD8], rcx ; mov qword [0x000000014002BDE0], rcx ; ret ; \x01\x00\x48\x89\x0d\xe7\x63\x01\x00\x48\x89\x0d\xe8\x63\x01\x00\xc3 (1 found)
0x1400159ef: add  [rax], eax ; mov qword [0x000000014002BDE0], rcx ; ret ; \x01\x00\x48\x89\x0d\xe8\x63\x01\x00\xc3 (1 found)
0x140004c5e: add  [rax], eax ; mov qword [rbx], rax ; mov rax, rbx ; add rsp, 0x20 ; pop rbx ; ret ; \x01\x00\x48\x89\x03\x48\x8b\xc3\x48\x83\xc4\x20\x5b\xc3 (1 found)
0x140004c76: add  [rax], eax ; mov qword [rcx+0x08], rax ; lea rax, qword [0x000000014001E3E0] ; mov qword [rcx], rax ; mov rax, rcx ; ret ; \x01\x00\x48\x89\x41\x08\x48\x8d\x05\x5d\x97\x01\x00\x48\x89\x01\x48\x8b\xc1\xc3 (1 found)
0x14000de63: add  [rax], eax ; mov qword [rcx], rax ; mov qword [rcx+0x08], rax ; mov qword [rcx+0x10], rax ; xor eax, eax ; ret ; \x01\x00\x48\x89\x01\x48\x89\x41\x08\x48\x89\x41\x10\x33\xc0\xc3 (1 found)
0x140004c81: add  [rax], eax ; mov qword [rcx], rax ; mov rax, rcx ; ret ; \x01\x00\x48\x89\x01\x48\x8b\xc1\xc3 (1 found)
0x140003690: add  [rax], eax ; mov rbx, qword [rsp+0x30] ; add rsp, 0x20 ; pop rdi ; ret ; \x01\x00\x48\x8b\x5c\x24\x30\x48\x83\xc4\x20\x5f\xc3 (1 found)
0x140004d06: add  [rax], eax ; mov rbx, qword [rsp+0x30] ; mov rax, rdi ; add rsp, 0x20 ; pop rdi ; ret ; \x01\x00\x48\x8b\x5c\x24\x30\x48\x8b\xc7\x48\x83\xc4\x20\x5f\xc3 (1 found)
0x140004d4a: add  [rax], eax ; mov rbx, qword [rsp+0x30] ; mov rax, rdi ; add rsp, 0x20 ; pop rdi ; ret ; \x01\x00\x48\x8b\x5c\x24\x30\x48\x8b\xc7\x48\x83\xc4\x20\x5f\xc3 (1 found)
0x1400036ef: add  [rax], eax ; mov rbx, qword [rsp+0x30] ; mov rsi, qword [rsp+0x38] ; add rsp, 0x20 ; pop rdi ; ret ; \x01\x00\x48\x8b\x5c\x24\x30\x48\x8b\x74\x24\x38\x48\x83\xc4\x20\x5f\xc3 (1 found)
0x14000556d: add  [rax], eax ; mov rbx, qword [rsp+0x70] ; mov rsi, qword [rsp+0x78] ; add rsp, 0x50 ; pop rdi ; ret ; \x01\x00\x48\x8b\x5c\x24\x70\x48\x8b\x74\x24\x78\x48\x83\xc4\x50\x5f\xc3 (1 found)
0x14000580a: add  [rax], eax ; nop ; add rsp, 0x30 ; pop rbx ; ret ; \x01\x00\x90\x48\x83\xc4\x30\x5b\xc3 (1 found)
0x14000d7f0: add  [rax], eax ; nop ; mov  [rcx], eax ; xor eax, eax ; add rsp, 0x28 ; ret ; \x01\x00\x90\x89\x01\x33\xc0\x48\x83\xc4\x28\xc3 (1 found)
0x14000da78: add  [rax], eax ; nop ; ret ; \x01\x00\x90\xc3 (1 found)
0x14000cf40: add  [rax], eax ; ret ; \x01\x00\xc3 (1 found)
0x14000cf48: add  [rax], eax ; ret ; \x01\x00\xc3 (1 found)
0x14000cf71: add  [rax], eax ; ret ; \x01\x00\xc3 (1 found)
0x14000cfd2: add  [rax], eax ; ret ; \x01\x00\xc3 (1 found)
0x14000d951: add  [rax], eax ; ret ; \x01\x00\xc3 (1 found)
0x14000d959: add  [rax], eax ; ret ; \x01\x00\xc3 (1 found)
0x14000d9d5: add  [rax], eax ; ret ; \x01\x00\xc3 (1 found)
0x14000daad: add  [rax], eax ; ret ; \x01\x00\xc3 (1 found)
0x14000e4f5: add  [rax], eax ; ret ; \x01\x00\xc3 (1 found)
0x1400158e9: add  [rax], eax ; ret ; \x01\x00\xc3 (1 found)
0x1400159f6: add  [rax], eax ; ret ; \x01\x00\xc3 (1 found)
0x14000fc66: add  [rax], eax ; sete al ; ret ; \x01\x00\x0f\x94\xc0\xc3 (1 found)
0x1400157f2: add  [rax], eax ; setne al ; add rsp, 0x28 ; ret ; \x01\x00\x0f\x95\xc0\x48\x83\xc4\x28\xc3 (1 found)
0x14001aaa6: add  [rax], eax ; xor eax, eax ; add rsp, 0x10 ; pop rbx ; ret ; \x01\x00\x33\xc0\x48\x83\xc4\x10\x5b\xc3 (1 found)
0x14000fc59: add  [rax], eax ; xor eax, eax ; or rcx, 0x01 ; cmp qword [0x000000014002B7A8], rcx ; sete al ; ret ; \x01\x00\x33\xc0\x48\x83\xc9\x01\x48\x39\x0d\x40\xbb\x01\x00\x0f\x94\xc0\xc3 (1 found)
0x140014ebc: add  [rax], eax ; xor eax, eax ; ret ; \x01\x00\x33\xc0\xc3 (1 found)
0x1400087de: add  [rbp+0x0FC88BC0], eax ; iretq ; \x01\x85\xc0\x8b\xc8\x0f\x48\xcf (1 found)
0x140008abb: add  [rbp+0x0FC88BC0], eax ; iretq ; \x01\x85\xc0\x8b\xc8\x0f\x48\xcf (1 found)
0x140008d8e: add  [rbp+0x0FC88BC0], eax ; iretq ; \x01\x85\xc0\x8b\xc8\x0f\x48\xcf (1 found)
0x14000269d: add  [rbp+rcx+0x48], esi ; mov ebx,  [rsp+0x30] ; xor eax, eax ; add rsp, 0x20 ; pop rdi ; ret ; \x01\x74\x0d\x48\x8b\x5c\x24\x30\x33\xc0\x48\x83\xc4\x20\x5f\xc3 (1 found)
0x14000cca8: add  [rbp-0x1B], esi ; movzx eax, word [rcx] ; movzx ecx, word [rdx] ; sub eax, ecx ; ret ; \x01\x75\xe5\x0f\xb7\x01\x0f\xb7\x0a\x2b\xc1\xc3 (1 found)
0x1400181d7: add  [rbp-0x3C], esi ; ret ; \x01\x75\xc4\xc3 (1 found)
0x14001b28d: add  [rbx+rcx+0x48], esi ; mov ebx,  [rsp+0x30] ; add rsp, 0x20 ; pop rdi ; ret ; \x01\x74\x0b\x48\x8b\x5c\x24\x30\x48\x83\xc4\x20\x5f\xc3 (1 found)
0x140004cea: add  [rbx-0x3E7CB726], ecx ; or al, ch ; mov edx, 0xF6000007 ; ret ; \x01\x8b\xda\x48\x83\xc1\x08\xe8\xba\x07\x00\x00\xf6\xc3 (1 found)
0x14001710c: add  [rcx+rcx*4-0x4B], eax ; adc byte [0x0000000121EA7116], al ; add byte [rax], al ; add byte [rbx], dh ; fild  [rbp-0x75] ; retn 0x8545 ; \x01\x44\x89\xb5\x10\x05\x00\x00\xe9\xe1\x00\x00\x00\x33\xdb\x45\x8b\xc2\x45\x85 (1 found)
0x140016ca6: add  [rcx+rcx*4-0x5B], eax ; adc byte [0x0000000124EA6CB0], al ; add byte [rax], al ; add byte [rbp+0x33], al ; fild  [rbp-0x75] ; retn 0x8545 ; \x01\x44\x89\xa5\x10\x05\x00\x00\xe9\xe4\x00\x00\x00\x45\x33\xdb\x45\x8b\xc2\x45\x85 (1 found)
0x14001a59d: add  [rcx-0x7B], eax ; ret ; \x01\x41\x85\xc3 (1 found)
0x14000ccad: add  [rdi], ecx ; mov bh, 0x0A ; sub eax, ecx ; ret ; \x01\x0f\xb7\x0a\x2b\xc1\xc3 (1 found)
0x14000e2cf: add  [rdi], ecx ; xchg eax, ebp ; ret ; \x01\x0f\x95\xc3 (1 found)
0x140011786: add ah, byte [rsi-0x77] ; add ecx,  [rax-0x7D] ; ret ; \x02\x66\x89\x03\x48\x83\xc3 (1 found)
0x1400031ea: add ah, cl ; int3 ; int3 ; int3 ; int3 ; ret ; \x00\xcc\xcc\xcc\xcc\xcc\xc3 (1 found)
0x1400025fc: add ah, cl ; int3 ; int3 ; xor eax, eax ; ret ; \x00\xcc\xcc\xcc\x33\xc0\xc3 (1 found)
0x140002459: add ah, cl ; int3 ; mov al, 0x01 ; ret ; \x00\xcc\xcc\xb0\x01\xc3 (1 found)
0x140002665: add ah, cl ; int3 ; xor eax, eax ; ret ; \x00\xcc\xcc\x33\xc0\xc3 (1 found)
0x140002466: add ah, cl ; lea rax, qword [0x000000014002B100] ; ret ; \x00\xcc\x48\x8d\x05\x91\x8c\x02\x00\xc3 (1 found)
0x140002462: add ah, cl ; retn 0x0000 ; \x00\xcc\xc2\x00\x00 (1 found)
0x140001ecd: add al, 0x00 ; add al, ch ; ret ; \x04\x00\x00\xe8\xc3 (1 found)
0x140002fe0: add al, 0x00 ; add bl, ch ; in al, dx ; mov al, 0x01 ; add rsp, 0x28 ; ret ; \x04\x00\x00\xeb\xec\xb0\x01\x48\x83\xc4\x28\xc3 (1 found)
0x14000c654: add al, 0x00 ; add byte [rcx+0x5E], al ; pop r13 ; pop r12 ; ret ; \x04\x00\x00\x41\x5e\x41\x5d\x41\x5c\xc3 (1 found)
0x140001005: add al, 0x00 ; ret ; \x04\x00\xc3 (1 found)
0x14000249c: add al, 0x00 ; ret ; \x47\x04\x00\xc3 (1 found)
0x14000249d: add al, 0x00 ; ret ; \x04\x00\xc3 (1 found)
0x1400024a4: add al, 0x00 ; ret ; \x47\x04\x00\xc3 (1 found)
0x1400024a5: add al, 0x00 ; ret ; \x04\x00\xc3 (1 found)
0x140002a15: add al, 0x00 ; setne al ; ret ; \x42\x04\x00\x0f\x95\xc0\xc3 (1 found)
0x140002a16: add al, 0x00 ; setne al ; ret ; \x04\x00\x0f\x95\xc0\xc3 (1 found)
0x140003d2d: add al, 0x02 ; ret ; \x04\x02\xc3 (1 found)
0x140010628: add al, 0x06 ; add byte [rax], al ; or  [0x000000014002A198], 0xFFFFFFFF ; mov al, 0x01 ; add rsp, 0x28 ; ret ; \x04\x06\x00\x00\x83\x0d\x65\x9b\x01\x00\xff\xb0\x01\x48\x83\xc4\x28\xc3 (1 found)
0x1400030ee: add al, 0x0A ; add r8, r9 ; add rax, r8 ; ret ; \x04\x0a\x4d\x03\xc1\x49\x03\xc0\xc3 (1 found)
0x14001ab89: add al, 0x24 ; add rsp, 0x08 ; ret ; \x04\x24\x48\x83\xc4\x08\xc3 (1 found)
0x14001c50f: add al, 0x33 ; shr bl, 0x05 ; mov eax, 0x00000001 ; add rsp, 0x20 ; pop rbp ; ret ; \x04\x33\xc0\xeb\x05\xb8\x01\x00\x00\x00\x48\x83\xc4\x20\x5d\xc3 (1 found)
0x14001c53b: add al, 0x33 ; shr bl, 0x05 ; mov eax, 0x00000001 ; add rsp, 0x20 ; pop rbp ; ret ; \x04\x33\xc0\xeb\x05\xb8\x01\x00\x00\x00\x48\x83\xc4\x20\x5d\xc3 (1 found)
0x1400116b2: add al, 0x3B ; ret ; \x47\x04\x3b\xc3 (1 found)
0x1400116b3: add al, 0x3B ; ret ; \x04\x3b\xc3 (1 found)
0x1400117cd: add al, 0x3B ; ret ; \x47\x04\x3b\xc3 (1 found)
0x1400117ce: add al, 0x3B ; ret ; \x04\x3b\xc3 (1 found)
0x140006012: add al, 0x3B ; retn 0x6D77 ; \x04\x3b\xc2\x77\x6d (1 found)
0x140002d83: add al, 0x40 ; ret ; \x04\x40\xc3 (1 found)
0x14001b8b1: add al, 0x44 ; mov byte [rax+0x06], cl ; ret ; \x40\x04\x44\x88\x48\x06\xc3 (1 found)
0x14001b8b2: add al, 0x44 ; mov byte [rax+0x06], cl ; ret ; \x04\x44\x88\x48\x06\xc3 (1 found)
0x14001b8a5: add al, 0x44 ; movzx ecx, byte [rdx+0x06] ; mov  [rax], ecx ; mov word [rax+0x04], r8w ; mov byte [rax+0x06], r9L ; ret ; \x42\x04\x44\x0f\xb6\x4a\x06\x89\x08\x66\x44\x89\x40\x04\x44\x88\x48\x06\xc3 (1 found)
0x14001b8a6: add al, 0x44 ; movzx ecx, byte [rdx+0x06] ; mov  [rax], ecx ; mov word [rax+0x04], r8w ; mov byte [rax+0x06], r9L ; ret ; \x04\x44\x0f\xb6\x4a\x06\x89\x08\x66\x44\x89\x40\x04\x44\x88\x48\x06\xc3 (1 found)
0x14001b7ac: add al, 0x47 ; mov ebx,  [rdx+rbx*4+0x000263E8] ; add r11, r10 ; jmp r11 ; \x04\x47\x8b\x9c\x9a\xe8\x63\x02\x00\x4d\x03\xda\x41\xff\xe3 (1 found)
0x14001bd3a: add al, 0x47 ; mov ebx,  [rdx+rbx*4+0x00026498] ; add r11, r10 ; jmp r11 ; \x04\x47\x8b\x9c\x9a\x98\x64\x02\x00\x4d\x03\xda\x41\xff\xe3 (1 found)
0x14000e7b2: add al, 0x48 ; add eax, 0x20 ; add rsp, 0x28 ; ret ; \x04\x48\x83\xc0\x20\x48\x83\xc4\x28\xc3 (1 found)
0x14000e792: add al, 0x48 ; add eax, 0x24 ; add rsp, 0x28 ; ret ; \x04\x48\x83\xc0\x24\x48\x83\xc4\x28\xc3 (1 found)
0x140003d1a: add al, 0x48 ; add esp, 0x20 ; pop rbx ; ret ; \x04\x48\x83\xc4\x20\x5b\xc3 (1 found)
0x140003dc8: add al, 0x48 ; add esp, 0x20 ; pop rbx ; ret ; \x04\x48\x83\xc4\x20\x5b\xc3 (1 found)
0x14000e74a: add al, 0x48 ; lea ecx,  [rax+0x20] ; mov  [rcx], ebx ; add rsp, 0x20 ; pop rbx ; ret ; \x04\x48\x8d\x48\x20\x89\x19\x48\x83\xc4\x20\x5b\xc3 (1 found)
0x140003d5f: add al, 0x48 ; mov ebx,  [rsp+0x30] ; add rsp, 0x20 ; pop rdi ; ret ; \x04\x48\x8b\x5c\x24\x30\x48\x83\xc4\x20\x5f\xc3 (1 found)
0x14000cc0a: add al, 0x58 ; and eax, 0x08 ; mov rbx, qword [rsp+0x30] ; add rsp, 0x20 ; pop rdi ; ret ; \x04\x58\x83\xe0\x08\x48\x8b\x5c\x24\x30\x48\x83\xc4\x20\x5f\xc3 (1 found)
0x14000cc4a: add al, 0x59 ; and eax, 0x08 ; mov rbx, qword [rsp+0x30] ; add rsp, 0x20 ; pop rdi ; ret ; \x04\x59\x83\xe0\x08\x48\x8b\x5c\x24\x30\x48\x83\xc4\x20\x5f\xc3 (1 found)
0x14001ad1e: add al, 0x74 ; or byte [rax-0x75], cl ; adc byte [r11-0x09F7F3B7], r8L ; retn 0x7408 ; \x04\x74\x08\x48\x8b\x4d\x10\x83\x49\x0c\x08\xf6\xc2\x08\x74 (1 found)
0x14001787b: add al, 0x75 ; add ecx,  [rax-0x01] ; ret ; \x04\x75\x03\x48\xff\xc3 (1 found)
0x140013258: add al, 0x83 ; enter 0xC3FF, 0x33 ; ror byte [rax+0x3B], 0xCA ; setnbe al ; ret ; \x04\x83\xc8\xff\xc3\x33\xc0\x48\x3b\xca\x0f\x97\xc0\xc3 (1 found)
0x14001764a: add al, 0x88 ; adc ebx, ebp ; out 0xF7, al ; retn 0xF800 ; \x04\x88\x11\xeb\xe6\xf7\xc2\x00\xf8 (1 found)
0x14001b934: add al, 0x89 ; or byte [rax+rcx*4+0x40], al ; add al, 0xC3 ; mov rcx, qword [rdx] ; mov qword [rax], rcx ; ret ; \x42\x04\x89\x08\x44\x88\x40\x04\xc3\x48\x8b\x0a\x48\x89\x08\xc3 (1 found)
0x14001b935: add al, 0x89 ; or byte [rax+rcx*4+0x40], al ; add al, 0xC3 ; mov rcx, qword [rdx] ; mov qword [rax], rcx ; ret ; \x04\x89\x08\x44\x88\x40\x04\xc3\x48\x8b\x0a\x48\x89\x08\xc3 (1 found)
0x14001b925: add al, 0x89 ; or byte [rsi+0x44], ah ; mov  [rax+0x04], eax ; ret ; \x42\x04\x89\x08\x66\x44\x89\x40\x04\xc3 (1 found)
0x14001b926: add al, 0x89 ; or byte [rsi+0x44], ah ; mov  [rax+0x04], eax ; ret ; \x04\x89\x08\x66\x44\x89\x40\x04\xc3 (1 found)
0x14000fc49: add al, 0x8B ; sbb byte [r8+0x28C48348], dl ; ret ; \x04\x8b\x41\x18\x90\x48\x83\xc4\x28\xc3 (1 found)
0x14001b92c: add al, 0xC3 ; mov ecx,  [rdx] ; movzx r8d, byte [rdx+0x04] ; mov  [rax], ecx ; mov byte [rax+0x04], r8L ; ret ; \x40\x04\xc3\x8b\x0a\x44\x0f\xb6\x42\x04\x89\x08\x44\x88\x40\x04\xc3 (1 found)
0x14001b92d: add al, 0xC3 ; mov ecx,  [rdx] ; movzx r8d, byte [rdx+0x04] ; mov  [rax], ecx ; mov byte [rax+0x04], r8L ; ret ; \x04\xc3\x8b\x0a\x44\x0f\xb6\x42\x04\x89\x08\x44\x88\x40\x04\xc3 (1 found)
0x14001b93a: add al, 0xC3 ; mov rcx, qword [rdx] ; mov qword [rax], rcx ; ret ; \x40\x04\xc3\x48\x8b\x0a\x48\x89\x08\xc3 (1 found)
0x14001b93b: add al, 0xC3 ; mov rcx, qword [rdx] ; mov qword [rax], rcx ; ret ; \x04\xc3\x48\x8b\x0a\x48\x89\x08\xc3 (1 found)
0x140003dc2: add al, 0xCA ; mov eax,  [rax+r11+0x04] ; add rsp, 0x20 ; pop rbx ; ret ; \x04\xca\x42\x8b\x44\x18\x04\x48\x83\xc4\x20\x5b\xc3 (1 found)
0x14000df90: add al, 0xDE ; add  [rax], eax ; mov al, 0x01 ; add rsp, 0x20 ; pop rbx ; ret ; \x04\xde\x01\x00\xb0\x01\x48\x83\xc4\x20\x5b\xc3 (1 found)
0x14000e382: add al, 0xDE ; mov rbx, qword [rsp+0x30] ; mov rsi, qword [rsp+0x38] ; add rsp, 0x20 ; pop rdi ; ret ; \x04\xde\x48\x8b\x5c\x24\x30\x48\x8b\x74\x24\x38\x48\x83\xc4\x20\x5f\xc3 (1 found)
0x14001a4f1: add al, 0xF6 ; ret ; \x04\xf6\xc3 (1 found)
0x14001ad35: add al, 0xF6 ; retn 0x7410 ; \x04\xf6\xc2\x10\x74 (1 found)
0x140019e47: add al, 0xF7 ; fcomp  [rbx] ; rol byte [rbx-0x37F4F720], 0x8B ; retn 0xE083 ; \x04\xf7\xd8\x1b\xc0\x83\xe0\x08\x0b\xc8\x8b\xc2\x83\xe0 (1 found)
0x14000a075: add al, 0xFF ; retn 0x03EB ; \x04\xff\xc2\xeb\x03 (1 found)
0x140010b34: add al, al ; add rsp, 0x20 ; pop rbx ; ret ; \x00\xc0\x48\x83\xc4\x20\x5b\xc3 (1 found)
0x14001c562: add al, al ; sete cl ; mov eax, ecx ; add rsp, 0x20 ; pop rbp ; ret ; \x00\xc0\x0f\x94\xc1\x8b\xc1\x48\x83\xc4\x20\x5d\xc3 (1 found)
0x14001bedc: add al, al ; sete cl ; mov eax, ecx ; pop rbp ; ret ; \x00\xc0\x0f\x94\xc1\x8b\xc1\x5d\xc3 (1 found)
0x14001ba9c: add al, byte [fs:rax] ; add r11, r10 ; jmp r11 ; \x64\x02\x00\x4d\x03\xda\x41\xff\xe3 (1 found)
0x14001bbcc: add al, byte [fs:rax] ; add r11, r10 ; jmp r11 ; \x64\x02\x00\x4d\x03\xda\x41\xff\xe3 (1 found)
0x14001bd40: add al, byte [fs:rax] ; add r11, r10 ; jmp r11 ; \x64\x02\x00\x4d\x03\xda\x41\xff\xe3 (1 found)
0x14001b855: add al, byte [fs:rax] ; add r9, r10 ; jmp r9 ; \x64\x02\x00\x4d\x03\xca\x41\xff\xe1 (1 found)
0x140015dd0: add al, byte [rax+rax*8-0x00B7FA8C] ; retn 0x02EB ; \x02\x84\xc0\x74\x05\x48\xff\xc2\xeb\x02 (1 found)
0x140003391: add al, byte [rax] ; add byte [rbx+0x026CD50D], al ; add bh, bh ; mov al, 0x01 ; add rsp, 0x28 ; ret ; \x02\x00\x00\x83\x0d\xd5\x6c\x02\x00\xff\xb0\x01\x48\x83\xc4\x28\xc3 (1 found)
0x140019c02: add al, byte [rax] ; add byte [rcx+0x23], al ; retn 0x2774 ; \x02\x00\x00\x41\x23\xc2\x74\x27 (1 found)
0x1400162a6: add al, byte [rax] ; add byte [rcx-0x01], al ; retn 0x8B41 ; \x02\x00\x00\x41\xff\xc2\x41\x8b (1 found)
0x140016238: add al, byte [rax] ; add byte [rcx-0x7D], cl ; ret ; \x02\x00\x00\x49\x83\xc3 (1 found)
0x14001b5ff: add al, byte [rax] ; add r11, r10 ; jmp r11 ; \x02\x00\x4d\x03\xda\x41\xff\xe3 (1 found)
0x14001b6bf: add al, byte [rax] ; add r11, r10 ; jmp r11 ; \x02\x00\x4d\x03\xda\x41\xff\xe3 (1 found)
0x14001b7b3: add al, byte [rax] ; add r11, r10 ; jmp r11 ; \x02\x00\x4d\x03\xda\x41\xff\xe3 (1 found)
0x14001ba9d: add al, byte [rax] ; add r11, r10 ; jmp r11 ; \x02\x00\x4d\x03\xda\x41\xff\xe3 (1 found)
0x14001bbcd: add al, byte [rax] ; add r11, r10 ; jmp r11 ; \x02\x00\x4d\x03\xda\x41\xff\xe3 (1 found)
0x14001bd41: add al, byte [rax] ; add r11, r10 ; jmp r11 ; \x02\x00\x4d\x03\xda\x41\xff\xe3 (1 found)
0x14001b4a9: add al, byte [rax] ; add r9, r10 ; jmp r9 ; \x02\x00\x4d\x03\xca\x41\xff\xe1 (1 found)
0x14001b856: add al, byte [rax] ; add r9, r10 ; jmp r9 ; \x02\x00\x4d\x03\xca\x41\xff\xe1 (1 found)
0x1400022f8: add al, byte [rax] ; add rsp, 0x20 ; pop rbx ; ret ; \x02\x00\x48\x83\xc4\x20\x5b\xc3 (1 found)
0x140005879: add al, byte [rax] ; add rsp, 0x28 ; ret ; \x02\x00\x48\x83\xc4\x28\xc3 (1 found)
0x140002424: add al, byte [rax] ; add rsp, 0x30 ; pop rbp ; ret ; \x02\x00\x48\x83\xc4\x30\x5d\xc3 (1 found)
0x140002227: add al, byte [rax] ; mov byte [0x000000014002B0B1], 0x01 ; mov al, 0x01 ; add rsp, 0x20 ; pop rbx ; ret ; \x02\x00\xc6\x05\x81\x8e\x02\x00\x01\xb0\x01\x48\x83\xc4\x20\x5b\xc3 (1 found)
0x14000246d: add al, byte [rax] ; ret ; \x02\x00\xc3 (1 found)
0x140005819: add al, byte [rax] ; ret ; \x02\x00\xc3 (1 found)
0x140002492: add al, byte [rax] ; sete al ; ret ; \x02\x00\x0f\x94\xc0\xc3 (1 found)
0x140007883: add al, byte [rbp-0x77] ; mov qword [r9+0x40], rax ; ret ; \x02\x45\x89\x41\x48\x49\x89\x41\x40\xc3 (1 found)
0x140007943: add al, byte [rbp-0x77] ; mov qword [r9+0x40], rax ; ret ; \x02\x45\x89\x41\x48\x49\x89\x41\x40\xc3 (1 found)
0x140007a03: add al, byte [rbp-0x77] ; mov qword [r9+0x40], rax ; ret ; \x02\x45\x89\x41\x48\x49\x89\x41\x40\xc3 (1 found)
0x140007e41: add al, byte [rbp-0x77] ; mov qword [r9+0x40], rax ; ret ; \x02\x45\x89\x41\x48\x49\x89\x41\x40\xc3 (1 found)
0x140007f05: add al, byte [rbp-0x77] ; mov qword [r9+0x40], rax ; ret ; \x02\x45\x89\x41\x48\x49\x89\x41\x40\xc3 (1 found)
0x140007fc9: add al, byte [rbp-0x77] ; mov qword [r9+0x40], rax ; ret ; \x02\x45\x89\x41\x48\x49\x89\x41\x40\xc3 (1 found)
0x140010e7f: add al, ch ; adc ebx, 0xFFFFFFFF ; call qword [rax+0x000003BB] ; \x00\xe8\x83\xd3\xff\xff\x90\xbb\x03\x00\x00 (1 found)
0x140017d0e: add al, ch ; imul r15, rdi, 0x48C033FF ; add esp, 0x28 ; ret ; \x00\xe8\x4c\x69\xff\xff\x33\xc0\x48\x83\xc4\x28\xc3 (1 found)
0x140019b20: add al, ch ; mov cl, byte [rdi] ; add byte [rax], al ; vmovdqa xmm6,  [rsp+0x20] ; add rsp, 0x58 ; ret ; \x00\xe8\x8a\x0f\x00\x00\xc5\xf9\x6f\x74\x24\x20\x48\x83\xc4\x58\xc3 (1 found)
0x140019b4e: add al, ch ; pop rsp ; sldt word [rax] ; vmovdqa xmm6,  [rsp+0x20] ; add rsp, 0x58 ; ret ; \x00\xe8\x5c\x0f\x00\x00\xc5\xf9\x6f\x74\x24\x20\x48\x83\xc4\x58\xc3 (1 found)
0x140001ecf: add al, ch ; ret ; \x00\xe8\xc3 (1 found)
0x140014016: add al, ch ; xchg eax, esp ; ret ; \x00\xe8\x94\xc3 (1 found)
0x14000d829: add al, ch ; xor  [rsi], ecx ; add byte [rax], al ; mov eax, 0x00000016 ; add rsp, 0x28 ; ret ; \x00\xe8\x31\x0e\x00\x00\xb8\x16\x00\x00\x00\x48\x83\xc4\x28\xc3 (1 found)
0x140015665: add al, ch ; xor eax, 0x48FFFFFF ; add esp, 0x28 ; ret ; \x00\xe8\x35\xff\xff\xff\x48\x83\xc4\x28\xc3 (1 found)
0x140015555: add al, dh ; xadd  [rcx+0x0000015C], eax ; inc eax ; ret ; \x00\xf0\x0f\xc1\x81\x5c\x01\x00\x00\xff\xc0\xc3 (1 found)
0x14000d930: add bh, bh ; adc eax, 0x0000F711 ; mov qword [0x000000014002B518], rax ; mov al, 0x01 ; add rsp, 0x28 ; ret ; \x00\xff\x15\x11\xf7\x00\x00\x48\x89\x05\xda\xdb\x01\x00\xb0\x01\x48\x83\xc4\x28\xc3 (1 found)
0x140002d64: add bh, bh ; jmp qword [rsi+0x0F] ; \x00\xff\xff\x66\x0f (1 found)
0x14000da66: add bh, bh ; lea eax,  [rcx+0x02] ; add rsp, 0x20 ; pop rbx ; ret ; \x00\xff\x8d\x41\x02\x48\x83\xc4\x20\x5b\xc3 (1 found)
0x14000212d: add bh, bh ; mov  [rbx-0x4E83FD01], 0x40C48348 ; pop rdi ; pop rsi ; pop rbx ; ret ; \x00\xff\xc7\x83\xff\x02\x7c\xb1\x48\x83\xc4\x40\x5f\x5e\x5b\xc3 (1 found)
0x140003399: add bh, bh ; mov al, 0x01 ; add rsp, 0x28 ; ret ; \x00\xff\xb0\x01\x48\x83\xc4\x28\xc3 (1 found)
0x140010631: add bh, bh ; mov al, 0x01 ; add rsp, 0x28 ; ret ; \x00\xff\xb0\x01\x48\x83\xc4\x28\xc3 (1 found)
0x1400033d1: add bh, bh ; ret ; \x00\xff\xc3 (1 found)
0x14000e1ed: add bh, bh ; ret ; \x00\xff\xc3 (1 found)
0x140010f00: add bh, bh ; ret ; \x00\xff\xc3 (1 found)
0x140013c89: add bh, bh ; retn 0xFF48 ; \x00\xff\xc2\x48\xff (1 found)
0x140002132: add bh, byte [rcx+rsi*4+0x48] ; add esp, 0x40 ; pop rdi ; pop rsi ; pop rbx ; ret ; \x02\x7c\xb1\x48\x83\xc4\x40\x5f\x5e\x5b\xc3 (1 found)
0x14000e6f2: add bl, al ; add ecx, 0xFFFFFF44 ; mov eax, 0x00000016 ; cmp ecx, 0x0E ; cmovbe eax, r8d ; ret ; \x00\xc3\x81\xc1\x44\xff\xff\xff\xb8\x16\x00\x00\x00\x83\xf9\x0e\x41\x0f\x46\xc0\xc3 (1 found)
0x1400024a6: add bl, al ; and  [0x000000014002B108], 0x00000000 ; ret ; \x00\xc3\x83\x25\x59\x8c\x02\x00\x00\xc3 (1 found)
0x140002434: add bl, al ; int3 ; int3 ; xor eax, eax ; ret ; \x00\xc3\xcc\xcc\x33\xc0\xc3 (1 found)
0x140002440: add bl, al ; int3 ; int3 ; xor eax, eax ; ret ; \x00\xc3\xcc\xcc\x33\xc0\xc3 (1 found)
0x14000cf41: add bl, al ; int3 ; mov  [0x000000014002B2AC], ecx ; ret ; \x00\xc3\xcc\x89\x0d\x62\xe3\x01\x00\xc3 (1 found)
0x14000d952: add bl, al ; lea rax, qword [0x000000014002B508] ; ret ; \x00\xc3\x48\x8d\x05\xad\xdb\x01\x00\xc3 (1 found)
0x14000249e: add bl, al ; lea rax, qword [0x0000000140046C50] ; ret ; \x00\xc3\x48\x8d\x05\xa9\x47\x04\x00\xc3 (1 found)
0x14000e7b0: add bl, ch ; add al, 0x48 ; add eax, 0x20 ; add rsp, 0x28 ; ret ; \x00\xeb\x04\x48\x83\xc0\x20\x48\x83\xc4\x28\xc3 (1 found)
0x14000e790: add bl, ch ; add al, 0x48 ; add eax, 0x24 ; add rsp, 0x28 ; ret ; \x00\xeb\x04\x48\x83\xc0\x24\x48\x83\xc4\x28\xc3 (1 found)
0x140003748: add bl, ch ; add byte [rbx+0x48402444], cl ; add esp, 0x70 ; pop rbx ; ret ; \x00\xeb\x00\x8b\x44\x24\x40\x48\x83\xc4\x70\x5b\xc3 (1 found)
0x140002fe2: add bl, ch ; in al, dx ; mov al, 0x01 ; add rsp, 0x28 ; ret ; \x00\xeb\xec\xb0\x01\x48\x83\xc4\x28\xc3 (1 found)
0x14000d7e9: add bl, ch ; or ecx,  [rbx+0x01E5B605] ; add byte [rax-0x3FCCFE77], dl ; add rsp, 0x28 ; ret ; \x00\xeb\x0b\x8b\x05\xb6\xe5\x01\x00\x90\x89\x01\x33\xc0\x48\x83\xc4\x28\xc3 (1 found)
0x140010e1b: add bl, dh ; stosq ; mov rdi, qword [rsp+0x08] ; mov al, 0x01 ; ret ; \x00\xf3\x48\xab\x48\x8b\x7c\x24\x08\xb0\x01\xc3 (1 found)
0x14000cc6b: add byte [fs:rax], al ; mov rbx, qword [rsp+0x30] ; add rsp, 0x20 ; pop rdi ; ret ; \x64\x00\x00\x48\x8b\x5c\x24\x30\x48\x83\xc4\x20\x5f\xc3 (1 found)
0x14001b10a: add byte [rax+0x00000001], bh ; add rsp, 0x28 ; ret ; \x00\xb8\x01\x00\x00\x00\x48\x83\xc4\x28\xc3 (1 found)
0x140017634: add byte [rax+0x00000001], bh ; ret ; \x00\xb8\x01\x00\x00\x00\xc3 (1 found)
0x14000d82e: add byte [rax+0x00000016], bh ; add rsp, 0x28 ; ret ; \x00\xb8\x16\x00\x00\x00\x48\x83\xc4\x28\xc3 (1 found)
0x14000243d: add byte [rax+0x00], al ; add bl, al ; int3 ; int3 ; xor eax, eax ; ret ; \x00\x40\x00\x00\xc3\xcc\xcc\x33\xc0\xc3 (1 found)
0x140014eaf: add byte [rax+0x00], al ; add byte [rbp-0x3EBBF040], al ; mov  [0x000000014002BDA8], eax ; xor eax, eax ; ret ; \x00\x40\x00\x00\x85\xc0\x0f\x44\xc1\x89\x05\xea\x6e\x01\x00\x33\xc0\xc3 (1 found)
0x14001aa21: add byte [rax+0x0B], cl ; enter 0x8948, 0x4C ; and al, 0x08 ; movsd xmm0, qword [rsp+0x08] ; ret ; \x00\x48\x0b\xc8\x48\x89\x4c\x24\x08\xf2\x0f\x10\x44\x24\x08\xc3 (1 found)
0x140009098: add byte [rax+0x0F], cl ; mov  [0x00093441C70773C2], eax ; add byte [rax], al ; mov al, 0x01 ; add rsp, 0x38 ; ret ; \x00\x48\x0f\xa3\xc2\x73\x07\xc7\x41\x34\x09\x00\x00\x00\xb0\x01\x48\x83\xc4\x38\xc3 (1 found)
0x140009248: add byte [rax+0x0F], cl ; mov  [0x00093441C70773C2], eax ; add byte [rax], al ; mov al, 0x01 ; add rsp, 0x38 ; ret ; \x00\x48\x0f\xa3\xc2\x73\x07\xc7\x41\x34\x09\x00\x00\x00\xb0\x01\x48\x83\xc4\x38\xc3 (1 found)
0x1400093f8: add byte [rax+0x0F], cl ; mov  [0x00093441C70773C2], eax ; add byte [rax], al ; mov al, 0x01 ; add rsp, 0x38 ; ret ; \x00\x48\x0f\xa3\xc2\x73\x07\xc7\x41\x34\x09\x00\x00\x00\xb0\x01\x48\x83\xc4\x38\xc3 (1 found)
0x1400163b7: add byte [rax+0x23], cl ; retn 0x2175 ; \x00\x48\x23\xc2\x75\x21 (1 found)
0x1400023fb: add byte [rax+0x23], cl ; ror  [rax-0x47], 0x33 ; mov byte [0x3B4800002B992DDF], al ; ret ; \x00\x48\x23\xc1\x48\xb9\x33\xa2\xdf\x2d\x99\x2b\x00\x00\x48\x3b\xc3 (1 found)
0x1400133f8: add byte [rax+0x2B], cl ; test  [rax-0x3F], 0x8B4C03FE ; out 0x33, al ; jmp qword [rsi-0x7D] ; \x00\x48\x2b\xf7\x48\xc1\xfe\x03\x4c\x8b\xe6\x33\xff\x66\x83 (1 found)
0x14000580b: add byte [rax+0x30C48348], dl ; pop rbx ; ret ; \x00\x90\x48\x83\xc4\x30\x5b\xc3 (1 found)
0x140011276: add byte [rax+0x38], al ; cmp  [rsi+rcx-0x01], esi ; retn 0xFF49 ; \x00\x40\x38\x39\x74\x0e\xff\xc2\x49\xff (1 found)
0x14001006d: add byte [rax+0x3B], cl ; enter 0x0674, 0xE8 ; out 0xFF, eax ; call qword [rax-0x2317F475] ; \x00\x48\x3b\xc8\x74\x06\xe8\x44\xe7\xff\xff\x90\x8b\x0b\xe8\xdc (1 found)
0x140010e5b: add byte [rax+0x3B], cl ; fdiv  [rbp-0x28] ; mov al, 0x01 ; add rsp, 0x20 ; pop rbx ; ret ; \x00\x48\x3b\xd8\x75\xd8\xb0\x01\x48\x83\xc4\x20\x5b\xc3 (1 found)
0x14000239d: add byte [rax+0x3B], cl ; ret ; \x00\x48\x3b\xc3 (1 found)
0x140002408: add byte [rax+0x3B], cl ; ret ; \x00\x48\x3b\xc3 (1 found)
0x140012572: add byte [rax+0x3B], cl ; ret ; \x00\x48\x3b\xc3 (1 found)
0x14001b90e: add byte [rax+0x4CC30848], cl ; mov eax,  [rdx] ; mov ecx,  [rdx+0x08] ; mov qword [rax], r8 ; mov  [rax+0x08], ecx ; ret ; \x00\x88\x48\x08\xc3\x4c\x8b\x02\x8b\x4a\x08\x4c\x89\x00\x89\x48\x08\xc3 (1 found)
0x14001b3ee: add byte [rax+0x74], al ; retn 0x8349 ; \x00\x40\x74\xc2\x49\x83 (1 found)
0x14001583c: add byte [rax+rax*8-0x7CB7F68C], al ; ret ; \x00\x84\xc0\x74\x09\x48\x83\xc3 (1 found)
0x14000e849: add byte [rax+rax], cl ; add byte [rax], al ; xor eax, eax ; add rsp, 0x20 ; pop rbx ; ret ; \x00\x0c\x00\x00\x00\x33\xc0\x48\x83\xc4\x20\x5b\xc3 (1 found)
0x140010918: add byte [rax+rax], cl ; add byte [rax], al ; xor eax, eax ; add rsp, 0x20 ; pop rbx ; ret ; \x00\x0c\x00\x00\x00\x33\xc0\x48\x83\xc4\x20\x5b\xc3 (1 found)
0x14001bd14: add byte [rax-0x007F], cl ; retn 0x0080 ; \x00\x48\x81\xc2\x80\x00 (1 found)
0x14001ba6c: add byte [rax-0x007F], cl ; retn 0x0100 ; \x00\x48\x81\xc2\x00\x01 (1 found)
0x14001bb9c: add byte [rax-0x007F], cl ; retn 0x0100 ; \x00\x48\x81\xc2\x00\x01 (1 found)
0x14000265e: add byte [rax-0x01], cl ; and eax, 0x0001AA92 ; int3 ; int3 ; xor eax, eax ; ret ; \x00\x48\xff\x25\x92\xaa\x01\x00\xcc\xcc\x33\xc0\xc3 (1 found)
0x140002452: add byte [rax-0x01], cl ; and eax, 0x0001ACD6 ; int3 ; int3 ; mov al, 0x01 ; ret ; \x00\x48\xff\x25\xd6\xac\x01\x00\xcc\xcc\xb0\x01\xc3 (1 found)
0x140014b10: add byte [rax-0x01], cl ; ret ; \x00\x48\xff\xc3 (1 found)
0x14000dfef: add byte [rax-0x3B7CB7FF], dh ; sub bl, al ; int3 ; mov al, 0x01 ; ret ; \x00\xb0\x01\x48\x83\xc4\x28\xc3\xcc\xb0\x01\xc3 (1 found)
0x14000d7f1: add byte [rax-0x3FCCFE77], dl ; add rsp, 0x28 ; ret ; \x00\x90\x89\x01\x33\xc0\x48\x83\xc4\x28\xc3 (1 found)
0x140010b30: add byte [rax-0x3FFFFDDB], bh ; add rsp, 0x20 ; pop rbx ; ret ; \x00\xb8\x25\x02\x00\xc0\x48\x83\xc4\x20\x5b\xc3 (1 found)
0x140005388: add byte [rax-0x73], cl ; add eax, 0x00019030 ; cmovne rax, qword [rcx+0x08] ; ret ; \x00\x48\x8d\x05\x30\x90\x01\x00\x48\x0f\x45\x41\x08\xc3 (1 found)
0x14000460b: add byte [rax-0x73], cl ; test al, 0xE8 ; ret ; \x00\x48\x8d\x4d\xa8\xe8\xc3 (1 found)
0x1400129da: add byte [rax-0x74C307B4], cl ; retn 0x2B48 ; \x00\x88\x4c\xf8\x3c\x8b\xc2\x48\x2b (1 found)
0x14000fe01: add byte [rax-0x75], cl ; add cl, byte [rax+0x02FF4808] ; movzx eax, cl ; ret ; \x00\x48\x8b\x02\x88\x08\x48\xff\x02\x0f\xb6\xc1\xc3 (1 found)
0x1400028e7: add byte [rax-0x75], cl ; and byte [r10], r12L ; ret ; \x00\x48\x8b\x45\x20\x22\xc3 (1 found)
0x140018cc8: add byte [rax-0x75], cl ; iretq ; \x00\x48\x8b\x4d\xcf (1 found)
0x1400134da: add byte [rax-0x75], cl ; or ebp, eax ; fstenv  [rdx-0x7CB70001] ; ret ; \x00\x48\x8b\x0b\xe8\xd9\xb2\xff\xff\x48\x83\xc3 (1 found)
0x1400047be: add byte [rax-0x75], cl ; pop rbp ; or byte [rax-0x7D], cl ; ret ; \x00\x48\x8b\x5d\x08\x48\x83\xc3 (1 found)
0x140003691: add byte [rax-0x75], cl ; pop rsp ; and al, 0x30 ; add rsp, 0x20 ; pop rdi ; ret ; \x00\x48\x8b\x5c\x24\x30\x48\x83\xc4\x20\x5f\xc3 (1 found)
0x1400055ac: add byte [rax-0x75], cl ; pop rsp ; and al, 0x30 ; add rsp, 0x20 ; pop rdi ; ret ; \x00\x48\x8b\x5c\x24\x30\x48\x83\xc4\x20\x5f\xc3 (1 found)
0x14000cc6d: add byte [rax-0x75], cl ; pop rsp ; and al, 0x30 ; add rsp, 0x20 ; pop rdi ; ret ; \x00\x48\x8b\x5c\x24\x30\x48\x83\xc4\x20\x5f\xc3 (1 found)
0x14000d521: add byte [rax-0x75], cl ; pop rsp ; and al, 0x30 ; add rsp, 0x20 ; pop rdi ; ret ; \x00\x48\x8b\x5c\x24\x30\x48\x83\xc4\x20\x5f\xc3 (1 found)
0x14000d565: add byte [rax-0x75], cl ; pop rsp ; and al, 0x30 ; add rsp, 0x20 ; pop rdi ; ret ; \x00\x48\x8b\x5c\x24\x30\x48\x83\xc4\x20\x5f\xc3 (1 found)
0x1400102cf: add byte [rax-0x75], cl ; pop rsp ; and al, 0x30 ; add rsp, 0x20 ; pop rdi ; ret ; \x00\x48\x8b\x5c\x24\x30\x48\x83\xc4\x20\x5f\xc3 (1 found)
0x140010df5: add byte [rax-0x75], cl ; pop rsp ; and al, 0x30 ; add rsp, 0x20 ; pop rdi ; ret ; \x00\x48\x8b\x5c\x24\x30\x48\x83\xc4\x20\x5f\xc3 (1 found)
0x1400194c4: add byte [rax-0x75], cl ; pop rsp ; and al, 0x38 ; add rsp, 0x20 ; pop rdi ; ret ; \x00\x48\x8b\x5c\x24\x38\x48\x83\xc4\x20\x5f\xc3 (1 found)
0x140001302: add byte [rax-0x75], cl ; pop rsp ; and al, 0x50 ; add rsp, 0x40 ; pop rdi ; ret ; \x00\x48\x8b\x5c\x24\x50\x48\x83\xc4\x40\x5f\xc3 (1 found)
0x140004cb4: add byte [rax-0x75], cl ; ret ; \x00\x48\x8b\xc3 (1 found)
0x140005475: add byte [rax-0x75], cl ; ret ; \x00\x48\x8b\xc3 (1 found)
0x14000d1cb: add byte [rax-0x75], cl ; ret ; \x00\x48\x8b\xc3 (1 found)
0x14000d4bb: add byte [rax-0x75], cl ; ret ; \x00\x48\x8b\xc3 (1 found)
0x1400163a1: add byte [rax-0x75], cl ; ret ; \x00\x48\x8b\xc3 (1 found)
0x1400163e6: add byte [rax-0x75], cl ; ret ; \x00\x48\x8b\xc3 (1 found)
0x14001b0ed: add byte [rax-0x75], cl ; ret ; \x00\x48\x8b\xc3 (1 found)
0x14000f6ef: add byte [rax-0x75], cl ; retn 0xB841 ; \x00\x48\x8b\xc2\x41\xb8 (1 found)
0x140014b2d: add byte [rax-0x75], cl ; retn 0xE283 ; \x00\x48\x8b\xc2\x83\xe2 (1 found)
0x140014c15: add byte [rax-0x75], cl ; retn 0xE283 ; \x00\x48\x8b\xc2\x83\xe2 (1 found)
0x1400188dc: add byte [rax-0x75], cl ; ror  [rax-0x75], cl ; ret ; \x00\x48\x8b\xd3\x48\x8b\xc3 (1 found)
0x14000dec2: add byte [rax-0x77], cl ; add eax, 0x0001D8F6 ; mov al, 0x01 ; ret ; \x00\x48\x89\x05\xf6\xd8\x01\x00\xb0\x01\xc3 (1 found)
0x14000d936: add byte [rax-0x77], cl ; add eax, 0x0001DBDA ; mov al, 0x01 ; add rsp, 0x28 ; ret ; \x00\x48\x89\x05\xda\xdb\x01\x00\xb0\x01\x48\x83\xc4\x28\xc3 (1 found)
0x14000d729: add byte [rax-0x77], cl ; add eax, 0x0001DDAF ; add rsp, 0x28 ; ret ; \x00\x48\x89\x05\xaf\xdd\x01\x00\x48\x83\xc4\x28\xc3 (1 found)
0x140004c5f: add byte [rax-0x77], cl ; add ecx,  [rax-0x75] ; ret ; \x00\x48\x89\x03\x48\x8b\xc3 (1 found)
0x14000d9a9: add byte [rax-0x77], cl ; add ecx,  [rax-0x7D] ; ret ; \x00\x48\x89\x03\x48\x83\xc3 (1 found)
0x140004c77: add byte [rax-0x77], cl ; or byte [r8-0x73], cl ; add eax, 0x0001975D ; mov qword [rcx], rax ; mov rax, rcx ; ret ; \x00\x48\x89\x41\x08\x48\x8d\x05\x5d\x97\x01\x00\x48\x89\x01\x48\x8b\xc1\xc3 (1 found)
0x1400159e2: add byte [rax-0x77], cl ; or eax, 0x000163E6 ; mov qword [0x000000014002BDD8], rcx ; mov qword [0x000000014002BDE0], rcx ; ret ; \x00\x48\x89\x0d\xe6\x63\x01\x00\x48\x89\x0d\xe7\x63\x01\x00\x48\x89\x0d\xe8\x63\x01\x00\xc3 (1 found)
0x1400159e9: add byte [rax-0x77], cl ; or eax, 0x000163E7 ; mov qword [0x000000014002BDE0], rcx ; ret ; \x00\x48\x89\x0d\xe7\x63\x01\x00\x48\x89\x0d\xe8\x63\x01\x00\xc3 (1 found)
0x1400159f0: add byte [rax-0x77], cl ; or eax, 0x000163E8 ; ret ; \x00\x48\x89\x0d\xe8\x63\x01\x00\xc3 (1 found)
0x14000df8c: add byte [rax-0x77], cl ; sbb eax, 0x0001DE04 ; mov al, 0x01 ; add rsp, 0x20 ; pop rbx ; ret ; \x00\x48\x89\x1d\x04\xde\x01\x00\xb0\x01\x48\x83\xc4\x20\x5b\xc3 (1 found)
0x140003560: add byte [rax-0x7B], cl ; sal byte [rax+rbp*4+0x48], 0x8B ; enter 0x8749, 0x8C ; call qword [rax-0x4E] ; \x00\x48\x85\xc0\x74\xa8\x48\x8b\xc8\x49\x87\x8c\xff\x50\xb2 (1 found)
0x140010890: add byte [rax-0x7D], cl ; and al, 0x3B ; add byte [rax-0x7D], cl ; ret ; \x00\x48\x83\x24\x3b\x00\x48\x83\xc3 (1 found)
0x140010efb: add byte [rax-0x7D], cl ; and al, 0xF8 ; add bh, bh ; ret ; \x00\x48\x83\x24\xf8\x00\xff\xc3 (1 found)
0x14000ff56: add byte [rax-0x7D], cl ; and eax,  [rax] ; add rsp, 0x20 ; pop rbx ; ret ; \x00\x48\x83\x23\x00\x48\x83\xc4\x20\x5b\xc3 (1 found)
0x1400054c6: add byte [rax-0x7D], cl ; and eax,  [rax] ; mov byte [rbx+0x08], 0x00 ; add rsp, 0x20 ; pop rbx ; ret ; \x00\x48\x83\x23\x00\xc6\x43\x08\x00\x48\x83\xc4\x20\x5b\xc3 (1 found)
0x14001a0ca: add byte [rax-0x7D], cl ; clc ; dec  [rdi] ; xchg eax, ebp ; ret ; \x00\x48\x83\xf8\xff\x0f\x95\xc3 (1 found)
0x140019e9b: add byte [rax-0x7D], cl ; enter 0xC6FF, 0x42 ; xor byte [rcx], al ; mov  [rdx+0x2C], 0x0000002A ; ret ; \x00\x48\x83\xc8\xff\xc6\x42\x30\x01\xc7\x42\x2c\x2a\x00\x00\x00\xc3 (1 found)
0x1400026ef: add byte [rax-0x7D], cl ; ret ; \x00\x48\x83\xc3 (1 found)
0x14000272b: add byte [rax-0x7D], cl ; ret ; \x00\x48\x83\xc3 (1 found)
0x14000b9f6: add byte [rax-0x7D], cl ; ret ; \x00\x48\x83\xc3 (1 found)
0x14000d76c: add byte [rax-0x7D], cl ; ret ; \x00\x48\x83\xc3 (1 found)
0x140010895: add byte [rax-0x7D], cl ; ret ; \x00\x48\x83\xc3 (1 found)
0x140010e50: add byte [rax-0x7D], cl ; ret ; \x00\x48\x83\xc3 (1 found)
0x140015297: add byte [rax-0x7D], cl ; ret ; \x00\x48\x83\xc3 (1 found)
0x140018f23: add byte [rax-0x7D], cl ; ret ; \x00\x48\x83\xc3 (1 found)
0x14000e88d: add byte [rax-0x7D], cl ; retn 0x4802 ; \x00\x48\x83\xc2\x02\x48 (1 found)
0x14000e962: add byte [rax-0x7D], cl ; retn 0x4802 ; \x00\x48\x83\xc2\x02\x48 (1 found)
0x140013c44: add byte [rax-0x7D], cl ; retn 0x4802 ; \x00\x48\x83\xc2\x02\x48 (1 found)
0x140003168: add byte [rax-0x7D], cl ; shl byte [rax], 0x48 ; add esp, 0x28 ; ret ; \x00\x48\x83\xc0\x20\x48\x83\xc4\x28\xc3 (1 found)
0x14000317c: add byte [rax-0x7D], cl ; shr byte [rax], 0x48 ; add esp, 0x28 ; ret ; \x00\x48\x83\xc0\x28\x48\x83\xc4\x28\xc3 (1 found)
0x14001bd11: add byte [rax], 0x00 ; add byte [rax-0x007F], cl ; retn 0x0080 ; \x80\x00\x00\x00\x48\x81\xc2\x80\x00 (1 found)
0x1400025fa: add byte [rax], al ; add ah, cl ; int3 ; int3 ; xor eax, eax ; ret ; \x00\x00\x00\xcc\xcc\xcc\x33\xc0\xc3 (1 found)
0x140010e7d: add byte [rax], al ; add al, ch ; adc ebx, 0xFFFFFFFF ; call qword [rax+0x000003BB] ; \x00\x00\x00\xe8\x83\xd3\xff\xff\x90\xbb\x03\x00\x00 (1 found)
0x140017d0c: add byte [rax], al ; add al, ch ; imul r15, rdi, 0x48C033FF ; add esp, 0x28 ; ret ; \x00\x00\x00\xe8\x4c\x69\xff\xff\x33\xc0\x48\x83\xc4\x28\xc3 (1 found)
0x140015553: add byte [rax], al ; add al, dh ; xadd  [rcx+0x0000015C], eax ; inc eax ; ret ; \x00\x00\x00\xf0\x0f\xc1\x81\x5c\x01\x00\x00\xff\xc0\xc3 (1 found)
0x140002432: add byte [rax], al ; add bl, al ; int3 ; int3 ; xor eax, eax ; ret ; \x00\x00\x00\xc3\xcc\xcc\x33\xc0\xc3 (1 found)
0x140003746: add byte [rax], al ; add bl, ch ; add byte [rbx+0x48402444], cl ; add esp, 0x70 ; pop rbx ; ret ; \x00\x00\x00\xeb\x00\x8b\x44\x24\x40\x48\x83\xc4\x70\x5b\xc3 (1 found)
0x14000d7e7: add byte [rax], al ; add bl, ch ; or ecx,  [rbx+0x01E5B605] ; add byte [rax-0x3FCCFE77], dl ; add rsp, 0x28 ; ret ; \x00\x00\x00\xeb\x0b\x8b\x05\xb6\xe5\x01\x00\x90\x89\x01\x33\xc0\x48\x83\xc4\x28\xc3 (1 found)
0x140010e19: add byte [rax], al ; add bl, dh ; stosq ; mov rdi, qword [rsp+0x08] ; mov al, 0x01 ; ret ; \x00\x00\x00\xf3\x48\xab\x48\x8b\x7c\x24\x08\xb0\x01\xc3 (1 found)
0x14001b108: add byte [rax], al ; add byte [rax+0x00000001], bh ; add rsp, 0x28 ; ret ; \x00\x00\x00\xb8\x01\x00\x00\x00\x48\x83\xc4\x28\xc3 (1 found)
0x1400133f6: add byte [rax], al ; add byte [rax+0x2B], cl ; test  [rax-0x3F], 0x8B4C03FE ; out 0x33, al ; jmp qword [rsi-0x7D] ; \x00\x00\x00\x48\x2b\xf7\x48\xc1\xfe\x03\x4c\x8b\xe6\x33\xff\x66\x83 (1 found)
0x14001bd12: add byte [rax], al ; add byte [rax-0x007F], cl ; retn 0x0080 ; \x00\x00\x00\x48\x81\xc2\x80\x00 (1 found)
0x1400028e5: add byte [rax], al ; add byte [rax-0x75], cl ; and byte [r10], r12L ; ret ; \x00\x00\x00\x48\x8b\x45\x20\x22\xc3 (1 found)
0x1400134d8: add byte [rax], al ; add byte [rax-0x75], cl ; or ebp, eax ; fstenv  [rdx-0x7CB70001] ; ret ; \x00\x00\x00\x48\x8b\x0b\xe8\xd9\xb2\xff\xff\x48\x83\xc3 (1 found)
0x1400047bc: add byte [rax], al ; add byte [rax-0x75], cl ; pop rbp ; or byte [rax-0x7D], cl ; ret ; \x00\x00\x00\x48\x8b\x5d\x08\x48\x83\xc3 (1 found)
0x1400163e4: add byte [rax], al ; add byte [rax-0x75], cl ; ret ; \x00\x00\x00\x48\x8b\xc3 (1 found)
0x14001b0eb: add byte [rax], al ; add byte [rax-0x75], cl ; ret ; \x00\x00\x00\x48\x8b\xc3 (1 found)
0x14000e960: add byte [rax], al ; add byte [rax-0x7D], cl ; retn 0x4802 ; \x00\x00\x00\x48\x83\xc2\x02\x48 (1 found)
0x140003165: add byte [rax], al ; add byte [rax-0x7D], cl ; shl byte [rax], 0x48 ; add esp, 0x28 ; ret ; \xf3\x00\x00\x00\x48\x83\xc0\x20\x48\x83\xc4\x28\xc3 (1 found)
0x140003166: add byte [rax], al ; add byte [rax-0x7D], cl ; shl byte [rax], 0x48 ; add esp, 0x28 ; ret ; \x00\x00\x00\x48\x83\xc0\x20\x48\x83\xc4\x28\xc3 (1 found)
0x14000317a: add byte [rax], al ; add byte [rax-0x7D], cl ; shr byte [rax], 0x48 ; add esp, 0x28 ; ret ; \x00\x00\x00\x48\x83\xc0\x28\x48\x83\xc4\x28\xc3 (1 found)
0x14001b4db: add byte [rax], al ; add byte [rax], al ; add byte [rcx+rcx*4+0x59], cl ; mov  [rcx-0x05], r11d ; mov byte [rcx-0x01], r11L ; ret ; \x00\x00\x00\x00\x00\x4c\x89\x59\xf3\x44\x89\x59\xfb\x44\x88\x59\xff\xc3 (1 found)
0x14001b84b: add byte [rax], al ; add byte [rax], al ; add byte [rdi-0x75], al ; mov word [rdx+0x00026410], es ; add r9, r10 ; jmp r9 ; \x00\x00\x00\x00\x00\x47\x8b\x8c\x82\x10\x64\x02\x00\x4d\x03\xca\x41\xff\xe1 (1 found)
0x14001b45b: add byte [rax], al ; add byte [rax], al ; add byte [rdi-0x75], dl ; retn 0x8B48 ; \x00\x00\x00\x00\x00\x57\x8b\xc2\x48\x8b (1 found)
0x14001b40c: add byte [rax], al ; add byte [rax], al ; jmp rax ; \x00\x00\x00\x00\xff\xe0 (1 found)
0x14001b4dc: add byte [rax], al ; add byte [rax], al ; mov qword [rcx-0x0D], r11 ; mov  [rcx-0x05], r11d ; mov byte [rcx-0x01], r11L ; ret ; \x00\x00\x00\x00\x4c\x89\x59\xf3\x44\x89\x59\xfb\x44\x88\x59\xff\xc3 (1 found)
0x14001b84c: add byte [rax], al ; add byte [rax], al ; mov r9d,  [r10+r8*4+0x00026410] ; add r9, r10 ; jmp r9 ; \x00\x00\x00\x00\x47\x8b\x8c\x82\x10\x64\x02\x00\x4d\x03\xca\x41\xff\xe1 (1 found)
0x140019c7e: add byte [rax], al ; add byte [rax], al ; or eax, ecx ; shl eax, 0x16 ; or eax, edx ; ret ; \x00\x00\x00\x00\x0b\xc1\xc1\xe0\x16\x0b\xc2\xc3 (1 found)
0x140016cb0: add byte [rax], al ; add byte [rbp+0x33], al ; fild  [rbp-0x75] ; retn 0x8545 ; \x00\x00\x00\x45\x33\xdb\x45\x8b\xc2\x45\x85 (1 found)
0x140017d47: add byte [rax], al ; add byte [rbp-0x47BEE0FC], cl ; push rbp ; add byte [rax], al ; add byte [rcx+0x2BCD8B48], bl ; retn 0xF8D1 ; \x00\x00\x00\x8d\x04\x1f\x41\xb8\x55\x00\x00\x00\x99\x48\x8b\xcd\x2b\xc2\xd1\xf8 (1 found)
0x140016a21: add byte [rax], al ; add byte [rbp-0x74B3F1FC], cl ; ret ; \x00\x00\x00\x8d\x04\x0e\x4c\x8b\xc3 (1 found)
0x140016f0e: add byte [rax], al ; add byte [rbp-0x74B3F1FC], cl ; ret ; \x00\x00\x00\x8d\x04\x0e\x4c\x8b\xc3 (1 found)
0x14001126b: add byte [rax], al ; add byte [rbx+0x03], cl ; mov bx, cs ; sal byte [rdi+0x38400002], 1 ; cmp  [rsi+rcx-0x01], esi ; retn 0xFF49 ; \x3e\x00\x00\x00\x4b\x03\x8c\xcb\xd0\xb7\x02\x00\x40\x38\x39\x74\x0e\xff\xc2\x49\xff (1 found)
0x14001126c: add byte [rax], al ; add byte [rbx+0x03], cl ; mov bx, cs ; sal byte [rdi+0x38400002], 1 ; cmp  [rsi+rcx-0x01], esi ; retn 0xFF49 ; \x00\x00\x00\x4b\x03\x8c\xcb\xd0\xb7\x02\x00\x40\x38\x39\x74\x0e\xff\xc2\x49\xff (1 found)
0x14000e6fc: add byte [rax], al ; add byte [rbx+0x0F410EF9], al ; rol bl, 0x41 ; mov eax,  [rcx+rax*8+0x04] ; ret ; \x00\x00\x00\x83\xf9\x0e\x41\x0f\x46\xc0\xc3\x41\x8b\x44\xc1\x04\xc3 (1 found)
0x14000dd03: add byte [rax], al ; add byte [rbx+rcx*4+0x05], cl ; retn 0x0001 ; \x00\x00\x00\x4c\x8b\x05\xf3\xc2\x01\x00 (1 found)
0x14000cfbe: add byte [rax], al ; add byte [rbx-0x35D4C01E], al ; ror r9, cl ; xor r9, r8 ; mov qword [0x000000014002B2B0], r9 ; ret ; \x40\x00\x00\x00\x83\xe2\x3f\x2b\xca\x49\xd3\xc9\x4d\x33\xc8\x4c\x89\x0d\xdc\xe2\x01\x00\xc3 (1 found)
0x14000cfbf: add byte [rax], al ; add byte [rbx-0x35D4C01E], al ; ror r9, cl ; xor r9, r8 ; mov qword [0x000000014002B2B0], r9 ; ret ; \x00\x00\x00\x83\xe2\x3f\x2b\xca\x49\xd3\xc9\x4d\x33\xc8\x4c\x89\x0d\xdc\xe2\x01\x00\xc3 (1 found)
0x140017116: add byte [rax], al ; add byte [rbx], dh ; fild  [rbp-0x75] ; retn 0x8545 ; \x00\x00\x00\x33\xdb\x45\x8b\xc2\x45\x85 (1 found)
0x140012f2e: add byte [rax], al ; add byte [rcx+0x03], cl ; ret ; \x00\x00\x00\x49\x03\xc3 (1 found)
0x140017d50: add byte [rax], al ; add byte [rcx+0x2BCD8B48], bl ; retn 0xF8D1 ; \x00\x00\x00\x99\x48\x8b\xcd\x2b\xc2\xd1\xf8 (1 found)
0x14001b4dd: add byte [rax], al ; add byte [rcx+rcx*4+0x59], cl ; mov  [rcx-0x05], r11d ; mov byte [rcx-0x01], r11L ; ret ; \x00\x00\x00\x4c\x89\x59\xf3\x44\x89\x59\xfb\x44\x88\x59\xff\xc3 (1 found)
0x14000b57d: add byte [rax], al ; add byte [rdi+0x5B], bl ; pop rbp ; ret ; \x00\x00\x00\x5f\x5b\x5d\xc3 (1 found)
0x14000b6a1: add byte [rax], al ; add byte [rdi+0x5B], bl ; pop rbp ; ret ; \x00\x00\x00\x5f\x5b\x5d\xc3 (1 found)
0x14000cbbe: add byte [rax], al ; add byte [rdi+0x5B], bl ; pop rbp ; ret ; \x00\x00\x00\x5f\x5b\x5d\xc3 (1 found)
0x14001b84d: add byte [rax], al ; add byte [rdi-0x75], al ; mov word [rdx+0x00026410], es ; add r9, r10 ; jmp r9 ; \x00\x00\x00\x47\x8b\x8c\x82\x10\x64\x02\x00\x4d\x03\xca\x41\xff\xe1 (1 found)
0x14001b45d: add byte [rax], al ; add byte [rdi-0x75], dl ; retn 0x8B48 ; \x00\x00\x00\x57\x8b\xc2\x48\x8b (1 found)
0x14001177d: add byte [rax], al ; add byte [rsi-0x77], ah ; or ecx,  [rax-0x7D] ; ret ; \x00\x00\x00\x66\x89\x0b\x48\x83\xc3 (1 found)
0x14000f6bf: add byte [rax], al ; add dh, dh ; ret ; \x00\x00\x00\xf6\xc3 (1 found)
0x140003167: add byte [rax], al ; add rax, 0x20 ; add rsp, 0x28 ; ret ; \x00\x00\x48\x83\xc0\x20\x48\x83\xc4\x28\xc3 (1 found)
0x14000317b: add byte [rax], al ; add rax, 0x28 ; add rsp, 0x28 ; ret ; \x00\x00\x48\x83\xc0\x28\x48\x83\xc4\x28\xc3 (1 found)
0x1400025ed: add byte [rax], al ; add rsp, 0x00000000000005C0 ; pop rbp ; ret ; \x00\x00\x48\x81\xc4\xc0\x05\x00\x00\x5d\xc3 (1 found)
0x14001c517: add byte [rax], al ; add rsp, 0x20 ; pop rbp ; ret ; \x00\x00\x48\x83\xc4\x20\x5d\xc3 (1 found)
0x14001c543: add byte [rax], al ; add rsp, 0x20 ; pop rbp ; ret ; \x00\x00\x48\x83\xc4\x20\x5d\xc3 (1 found)
0x14000ba13: add byte [rax], al ; add rsp, 0x20 ; pop rbx ; ret ; \x00\x00\x48\x83\xc4\x20\x5b\xc3 (1 found)
0x140019518: add byte [rax], al ; add rsp, 0x20 ; pop rbx ; ret ; \x00\x00\x48\x83\xc4\x20\x5b\xc3 (1 found)
0x140003254: add byte [rax], al ; add rsp, 0x28 ; ret ; \x00\x00\x48\x83\xc4\x28\xc3 (1 found)
0x140003cf0: add byte [rax], al ; add rsp, 0x28 ; ret ; \x00\x00\x48\x83\xc4\x28\xc3 (1 found)
0x14000d832: add byte [rax], al ; add rsp, 0x28 ; ret ; \x00\x00\x48\x83\xc4\x28\xc3 (1 found)
0x140018188: add byte [rax], al ; add rsp, 0x28 ; ret ; \x00\x00\x48\x83\xc4\x28\xc3 (1 found)
0x14001a0f1: add byte [rax], al ; add rsp, 0x28 ; ret ; \x00\x00\x48\x83\xc4\x28\xc3 (1 found)
0x14001af29: add byte [rax], al ; add rsp, 0x28 ; ret ; \x00\x00\x48\x83\xc4\x28\xc3 (1 found)
0x14001b10e: add byte [rax], al ; add rsp, 0x28 ; ret ; \x00\x00\x48\x83\xc4\x28\xc3 (1 found)
0x14000104a: add byte [rax], al ; add rsp, 0x30 ; pop rdi ; pop rsi ; pop rbx ; ret ; \x00\x00\x48\x83\xc4\x30\x5f\x5e\x5b\xc3 (1 found)
0x14001aac9: add byte [rax], al ; add rsp, 0x38 ; ret ; \x00\x00\x48\x83\xc4\x38\xc3 (1 found)
0x14001abf0: add byte [rax], al ; add rsp, 0x48 ; ret ; \x00\x00\x48\x83\xc4\x48\xc3 (1 found)
0x14000bc42: add byte [rax], al ; add rsp, 0x60 ; pop r14 ; pop rdi ; pop rsi ; ret ; \x00\x00\x48\x83\xc4\x60\x41\x5e\x5f\x5e\xc3 (1 found)
0x14000e58b: add byte [rax], al ; add rsp, 0x70 ; pop rbp ; ret ; \x00\x00\x48\x83\xc4\x70\x5d\xc3 (1 found)
0x14000ba0b: add byte [rax], al ; and qword [0x000000014002B2A0], 0x0000000000000000 ; add rsp, 0x20 ; pop rbx ; ret ; \x00\x00\x48\x83\x25\x8b\xf8\x01\x00\x00\x48\x83\xc4\x20\x5b\xc3 (1 found)
0x14000dfe6: add byte [rax], al ; and qword [0x000000014002B508], 0x0000000000000000 ; mov al, 0x01 ; add rsp, 0x28 ; ret ; \x00\x00\x48\x83\x25\x18\xd5\x01\x00\x00\xb0\x01\x48\x83\xc4\x28\xc3 (1 found)
0x1400054c5: add byte [rax], al ; and qword [rbx], 0x0000000000000000 ; mov byte [rbx+0x08], 0x00 ; add rsp, 0x20 ; pop rbx ; ret ; \x00\x00\x48\x83\x23\x00\xc6\x43\x08\x00\x48\x83\xc4\x20\x5b\xc3 (1 found)
0x140015c1b: add byte [rax], al ; call r8 ; \x00\x00\x41\xff\xd0 (1 found)
0x140015c36: add byte [rax], al ; call rdx ; \x00\x00\xff\xd2 (1 found)
0x14000e6fd: add byte [rax], al ; cmp ecx, 0x0E ; cmovbe eax, r8d ; ret ; \x00\x00\x83\xf9\x0e\x41\x0f\x46\xc0\xc3 (1 found)
0x14001b0be: add byte [rax], al ; cmp word [rdx+0x18], cx ; sete al ; ret ; \x00\x00\x66\x39\x4a\x18\x0f\x94\xc0\xc3 (1 found)
0x1400155ba: add byte [rax], al ; dec eax ; ret ; \x00\x00\xff\xc8\xc3 (1 found)
0x14001555c: add byte [rax], al ; inc eax ; ret ; \x00\x00\xff\xc0\xc3 (1 found)
0x140003236: add byte [rax], al ; int 0x29 ; ret ; \x00\x00\xcd\x29\xc3 (1 found)
0x1400025fb: add byte [rax], al ; int3 ; int3 ; int3 ; xor eax, eax ; ret ; \x00\x00\xcc\xcc\xcc\x33\xc0\xc3 (1 found)
0x140002465: add byte [rax], al ; int3 ; lea rax, qword [0x000000014002B100] ; ret ; \x00\x00\xcc\x48\x8d\x05\x91\x8c\x02\x00\xc3 (1 found)
0x140002461: add byte [rax], al ; int3 ; retn 0x0000 ; \x00\x00\xcc\xc2\x00\x00 (1 found)
0x14001b40e: add byte [rax], al ; jmp rax ; \x00\x00\xff\xe0 (1 found)
0x140015554: add byte [rax], al ; lock xadd  [rcx+0x0000015C], eax ; inc eax ; ret ; \x00\x00\xf0\x0f\xc1\x81\x5c\x01\x00\x00\xff\xc0\xc3 (1 found)
0x14001946b: add byte [rax], al ; mov  [rbx+0x04], eax ; xor eax, eax ; add rsp, 0x20 ; pop rbx ; ret ; \x00\x00\x89\x43\x04\x33\xc0\x48\x83\xc4\x20\x5b\xc3 (1 found)
0x14000231f: add byte [rax], al ; mov al, 0x01 ; add rsp, 0x20 ; pop rbx ; ret ; \x00\x00\xb0\x01\x48\x83\xc4\x20\x5b\xc3 (1 found)
0x140002ffc: add byte [rax], al ; mov al, 0x01 ; add rsp, 0x28 ; ret ; \x00\x00\xb0\x01\x48\x83\xc4\x28\xc3 (1 found)
0x14000dfee: add byte [rax], al ; mov al, 0x01 ; add rsp, 0x28 ; ret ; \x00\x00\xb0\x01\x48\x83\xc4\x28\xc3 (1 found)
0x1400090a4: add byte [rax], al ; mov al, 0x01 ; add rsp, 0x38 ; ret ; \x00\x00\xb0\x01\x48\x83\xc4\x38\xc3 (1 found)
0x140009254: add byte [rax], al ; mov al, 0x01 ; add rsp, 0x38 ; ret ; \x00\x00\xb0\x01\x48\x83\xc4\x38\xc3 (1 found)
0x140009404: add byte [rax], al ; mov al, 0x01 ; add rsp, 0x38 ; ret ; \x00\x00\xb0\x01\x48\x83\xc4\x38\xc3 (1 found)
0x140015802: add byte [rax], al ; mov al, 0x01 ; ret ; \x00\x00\xb0\x01\xc3 (1 found)
0x14001bf6f: add byte [rax], al ; mov eax,  [rbp+0x20] ; add rsp, 0x28 ; pop rbp ; pop rbx ; ret ; \x00\x00\x8b\x45\x20\x48\x83\xc4\x28\x5d\x5b\xc3 (1 found)
0x14001b109: add byte [rax], al ; mov eax, 0x00000001 ; add rsp, 0x28 ; ret ; \x00\x00\xb8\x01\x00\x00\x00\x48\x83\xc4\x28\xc3 (1 found)
0x14000d82d: add byte [rax], al ; mov eax, 0x00000016 ; add rsp, 0x28 ; ret ; \x00\x00\xb8\x16\x00\x00\x00\x48\x83\xc4\x28\xc3 (1 found)
0x140010b2f: add byte [rax], al ; mov eax, 0xC0000225 ; add rsp, 0x20 ; pop rbx ; ret ; \x00\x00\xb8\x25\x02\x00\xc0\x48\x83\xc4\x20\x5b\xc3 (1 found)
0x14000c18d: add byte [rax], al ; mov eax, ebx ; add rsp, 0x20 ; pop rbx ; ret ; \x00\x00\x8b\xc3\x48\x83\xc4\x20\x5b\xc3 (1 found)
0x14000c1f8: add byte [rax], al ; mov eax, ebx ; add rsp, 0x20 ; pop rbx ; ret ; \x00\x00\x8b\xc3\x48\x83\xc4\x20\x5b\xc3 (1 found)
0x14000e09c: add byte [rax], al ; mov eax, ebx ; add rsp, 0x20 ; pop rbx ; ret ; \x00\x00\x8b\xc3\x48\x83\xc4\x20\x5b\xc3 (1 found)
0x1400110d4: add byte [rax], al ; mov eax, ebx ; mov rbx, qword [rsp+0x30] ; add rsp, 0x20 ; pop rdi ; ret ; \x00\x00\x8b\xc3\x48\x8b\x5c\x24\x30\x48\x83\xc4\x20\x5f\xc3 (1 found)
0x1400123a8: add byte [rax], al ; mov eax, ebx ; mov rbx, qword [rsp+0x30] ; add rsp, 0x20 ; pop rdi ; ret ; \x00\x00\x8b\xc3\x48\x8b\x5c\x24\x30\x48\x83\xc4\x20\x5f\xc3 (1 found)
0x140019ba0: add byte [rax], al ; mov eax, ecx ; ret ; \x00\x00\x8b\xc1\xc3 (1 found)
0x1400058c2: add byte [rax], al ; mov eax, edi ; mov rbx, qword [rsp+0x30] ; add rsp, 0x20 ; pop rdi ; ret ; \x00\x00\x8b\xc7\x48\x8b\x5c\x24\x30\x48\x83\xc4\x20\x5f\xc3 (1 found)
0x140005902: add byte [rax], al ; mov eax, edi ; mov rbx, qword [rsp+0x30] ; add rsp, 0x20 ; pop rdi ; ret ; \x00\x00\x8b\xc7\x48\x8b\x5c\x24\x30\x48\x83\xc4\x20\x5f\xc3 (1 found)
0x14000d3bf: add byte [rax], al ; mov eax, edi ; mov rbx, qword [rsp+0x30] ; add rsp, 0x20 ; pop rdi ; ret ; \x00\x00\x8b\xc7\x48\x8b\x5c\x24\x30\x48\x83\xc4\x20\x5f\xc3 (1 found)
0x14000dadc: add byte [rax], al ; mov eax, edi ; mov rbx, qword [rsp+0x30] ; add rsp, 0x20 ; pop rdi ; ret ; \x00\x00\x8b\xc7\x48\x8b\x5c\x24\x30\x48\x83\xc4\x20\x5f\xc3 (1 found)
0x14000db18: add byte [rax], al ; mov eax, edi ; mov rbx, qword [rsp+0x30] ; add rsp, 0x20 ; pop rdi ; ret ; \x00\x00\x8b\xc7\x48\x8b\x5c\x24\x30\x48\x83\xc4\x20\x5f\xc3 (1 found)
0x14000d935: add byte [rax], al ; mov qword [0x000000014002B518], rax ; mov al, 0x01 ; add rsp, 0x28 ; ret ; \x00\x00\x48\x89\x05\xda\xdb\x01\x00\xb0\x01\x48\x83\xc4\x28\xc3 (1 found)
0x14000df8b: add byte [rax], al ; mov qword [0x000000014002BD98], rbx ; mov al, 0x01 ; add rsp, 0x20 ; pop rbx ; ret ; \x00\x00\x48\x89\x1d\x04\xde\x01\x00\xb0\x01\x48\x83\xc4\x20\x5b\xc3 (1 found)
0x14000ea56: add byte [rax], al ; mov qword [rbx], rax ; add rsp, 0x20 ; pop rbx ; ret ; \x00\x00\x48\x89\x03\x48\x83\xc4\x20\x5b\xc3 (1 found)
0x14000ea8e: add byte [rax], al ; mov qword [rbx], rax ; add rsp, 0x20 ; pop rbx ; ret ; \x00\x00\x48\x89\x03\x48\x83\xc4\x20\x5b\xc3 (1 found)
0x14000eac2: add byte [rax], al ; mov qword [rbx], rax ; add rsp, 0x20 ; pop rbx ; ret ; \x00\x00\x48\x89\x03\x48\x83\xc4\x20\x5b\xc3 (1 found)
0x14000eafa: add byte [rax], al ; mov qword [rbx], rax ; add rsp, 0x20 ; pop rbx ; ret ; \x00\x00\x48\x89\x03\x48\x83\xc4\x20\x5b\xc3 (1 found)
0x14001b4de: add byte [rax], al ; mov qword [rcx-0x0D], r11 ; mov  [rcx-0x05], r11d ; mov byte [rcx-0x01], r11L ; ret ; \x00\x00\x4c\x89\x59\xf3\x44\x89\x59\xfb\x44\x88\x59\xff\xc3 (1 found)
0x14001b84e: add byte [rax], al ; mov r9d,  [r10+r8*4+0x00026410] ; add r9, r10 ; jmp r9 ; \x00\x00\x47\x8b\x8c\x82\x10\x64\x02\x00\x4d\x03\xca\x41\xff\xe1 (1 found)
0x14000fe00: add byte [rax], al ; mov rax, qword [rdx] ; mov byte [rax], cl ; inc qword [rdx] ; movzx eax, cl ; ret ; \x00\x00\x48\x8b\x02\x88\x08\x48\xff\x02\x0f\xb6\xc1\xc3 (1 found)
0x140004cb3: add byte [rax], al ; mov rax, rbx ; add rsp, 0x20 ; pop rbx ; ret ; \x00\x00\x48\x8b\xc3\x48\x83\xc4\x20\x5b\xc3 (1 found)
0x14001b0ec: add byte [rax], al ; mov rax, rbx ; add rsp, 0x20 ; pop rbx ; ret ; \x00\x00\x48\x8b\xc3\x48\x83\xc4\x20\x5b\xc3 (1 found)
0x140013ca8: add byte [rax], al ; mov rbx, qword [r11+0x18] ; mov rdi, qword [r11+0x20] ; mov rsp, r11 ; pop rbp ; ret ; \x00\x00\x49\x8b\x5b\x18\x49\x8b\x7b\x20\x49\x8b\xe3\x5d\xc3 (1 found)
0x1400055ab: add byte [rax], al ; mov rbx, qword [rsp+0x30] ; add rsp, 0x20 ; pop rdi ; ret ; \x00\x00\x48\x8b\x5c\x24\x30\x48\x83\xc4\x20\x5f\xc3 (1 found)
0x14000cc6c: add byte [rax], al ; mov rbx, qword [rsp+0x30] ; add rsp, 0x20 ; pop rdi ; ret ; \x00\x00\x48\x8b\x5c\x24\x30\x48\x83\xc4\x20\x5f\xc3 (1 found)
0x14000d520: add byte [rax], al ; mov rbx, qword [rsp+0x30] ; add rsp, 0x20 ; pop rdi ; ret ; \x00\x00\x48\x8b\x5c\x24\x30\x48\x83\xc4\x20\x5f\xc3 (1 found)
0x14000d564: add byte [rax], al ; mov rbx, qword [rsp+0x30] ; add rsp, 0x20 ; pop rdi ; ret ; \x00\x00\x48\x8b\x5c\x24\x30\x48\x83\xc4\x20\x5f\xc3 (1 found)
0x1400102ce: add byte [rax], al ; mov rbx, qword [rsp+0x30] ; add rsp, 0x20 ; pop rdi ; ret ; \x00\x00\x48\x8b\x5c\x24\x30\x48\x83\xc4\x20\x5f\xc3 (1 found)
0x140010df4: add byte [rax], al ; mov rbx, qword [rsp+0x30] ; add rsp, 0x20 ; pop rdi ; ret ; \x00\x00\x48\x8b\x5c\x24\x30\x48\x83\xc4\x20\x5f\xc3 (1 found)
0x14000383a: add byte [rax], al ; mov rbx, qword [rsp+0x30] ; mov rsi, qword [rsp+0x38] ; add rsp, 0x20 ; pop rdi ; ret ; \x00\x00\x48\x8b\x5c\x24\x30\x48\x8b\x74\x24\x38\x48\x83\xc4\x20\x5f\xc3 (1 found)
0x140010ca6: add byte [rax], al ; mov rbx, qword [rsp+0x30] ; mov rsi, qword [rsp+0x38] ; add rsp, 0x20 ; pop rdi ; ret ; \x00\x00\x48\x8b\x5c\x24\x30\x48\x8b\x74\x24\x38\x48\x83\xc4\x20\x5f\xc3 (1 found)
0x140017601: add byte [rax], al ; mov rbx, qword [rsp+0x30] ; mov rsi, qword [rsp+0x38] ; add rsp, 0x20 ; pop rdi ; ret ; \x00\x00\x48\x8b\x5c\x24\x30\x48\x8b\x74\x24\x38\x48\x83\xc4\x20\x5f\xc3 (1 found)
0x1400194c3: add byte [rax], al ; mov rbx, qword [rsp+0x38] ; add rsp, 0x20 ; pop rdi ; ret ; \x00\x00\x48\x8b\x5c\x24\x38\x48\x83\xc4\x20\x5f\xc3 (1 found)
0x14000d9b8: add byte [rax], al ; mov rbx, qword [rsp+0x40] ; mov rsi, qword [rsp+0x48] ; add rsp, 0x30 ; pop rdi ; ret ; \x00\x00\x48\x8b\x5c\x24\x40\x48\x8b\x74\x24\x48\x48\x83\xc4\x30\x5f\xc3 (1 found)
0x140001301: add byte [rax], al ; mov rbx, qword [rsp+0x50] ; add rsp, 0x40 ; pop rdi ; ret ; \x00\x00\x48\x8b\x5c\x24\x50\x48\x83\xc4\x40\x5f\xc3 (1 found)
0x14000e27f: add byte [rax], al ; mov rcx, qword [rax+0x60] ; mov eax,  [rcx+0x000000BC] ; shr eax, 0x08 ; and al, 0x01 ; ret ; \x00\x00\x48\x8b\x48\x60\x8b\x81\xbc\x00\x00\x00\xc1\xe8\x08\x24\x01\xc3 (1 found)
0x14000e29b: add byte [rax], al ; mov rcx, qword [rax+0x60] ; mov rax, qword [rcx+0x20] ; mov eax,  [rax+0x08] ; shr eax, 0x1F ; ret ; \x00\x00\x48\x8b\x48\x60\x48\x8b\x41\x20\x8b\x40\x08\xc1\xe8\x1f\xc3 (1 found)
0x14000117d: add byte [rax], al ; mov rsi, qword [rsp+0x38] ; add rsp, 0x40 ; pop rbx ; ret ; \x00\x00\x48\x8b\x74\x24\x38\x48\x83\xc4\x40\x5b\xc3 (1 found)
0x1400198d7: add byte [rax], al ; movq xmm0, xmm0 ; nop ; movdqa xmm6,  [rsp+0x20] ; add rsp, 0x58 ; ret ; \x00\x00\x66\x48\x0f\x6e\xc0\x66\x90\x66\x0f\x6f\x74\x24\x20\x48\x83\xc4\x58\xc3 (1 found)
0x14001a823: add byte [rax], al ; movsd xmm0, qword [rsp+0x40] ; add rsp, 0x50 ; pop rbx ; ret ; \x00\x00\xf2\x0f\x10\x44\x24\x40\x48\x83\xc4\x50\x5b\xc3 (1 found)
0x14001b49b: add byte [rax], al ; nop  [rax] ; add rcx, r8 ; mov r9d,  [r10+r8*4+0x00026360] ; add r9, r10 ; jmp r9 ; \x00\x00\x0f\x1f\x00\x49\x03\xc8\x47\x8b\x8c\x82\x60\x63\x02\x00\x4d\x03\xca\x41\xff\xe1 (1 found)
0x14001b842: add byte [rax], al ; nop word [rax+rax+0x00000000] ; mov r9d,  [r10+r8*4+0x00026410] ; add r9, r10 ; jmp r9 ; \x00\x00\x66\x66\x66\x66\x0f\x1f\x84\x00\x00\x00\x00\x00\x47\x8b\x8c\x82\x10\x64\x02\x00\x4d\x03\xca\x41\xff\xe1 (1 found)
0x140003392: add byte [rax], al ; or  [0x000000014002A070], 0xFFFFFFFF ; mov al, 0x01 ; add rsp, 0x28 ; ret ; \x00\x00\x83\x0d\xd5\x6c\x02\x00\xff\xb0\x01\x48\x83\xc4\x28\xc3 (1 found)
0x14001062a: add byte [rax], al ; or  [0x000000014002A198], 0xFFFFFFFF ; mov al, 0x01 ; add rsp, 0x28 ; ret ; \x00\x00\x83\x0d\x65\x9b\x01\x00\xff\xb0\x01\x48\x83\xc4\x28\xc3 (1 found)
0x14001aa1e: add byte [rax], al ; or byte [rax], al ; or rcx, rax ; mov qword [rsp+0x08], rcx ; movsd xmm0, qword [rsp+0x08] ; ret ; \x00\x00\x08\x00\x48\x0b\xc8\x48\x89\x4c\x24\x08\xf2\x0f\x10\x44\x24\x08\xc3 (1 found)
0x14000bf74: add byte [rax], al ; or eax, 0xFFFFFFFF ; mov rbx, qword [rsp+0x48] ; add rsp, 0x30 ; pop rdi ; ret ; \x26\x00\x00\x83\xc8\xff\x48\x8b\x5c\x24\x48\x48\x83\xc4\x30\x5f\xc3 (1 found)
0x14000bf75: add byte [rax], al ; or eax, 0xFFFFFFFF ; mov rbx, qword [rsp+0x48] ; add rsp, 0x30 ; pop rdi ; ret ; \x00\x00\x83\xc8\xff\x48\x8b\x5c\x24\x48\x48\x83\xc4\x30\x5f\xc3 (1 found)
0x140019c80: add byte [rax], al ; or eax, ecx ; shl eax, 0x16 ; or eax, edx ; ret ; \x00\x00\x0b\xc1\xc1\xe0\x16\x0b\xc2\xc3 (1 found)
0x14000c655: add byte [rax], al ; pop r14 ; pop r13 ; pop r12 ; ret ; \x00\x00\x41\x5e\x41\x5d\x41\x5c\xc3 (1 found)
0x1400025f4: add byte [rax], al ; pop rbp ; ret ; \x00\x00\x5d\xc3 (1 found)
0x140003b4f: add byte [rax], al ; pop rbp ; ret ; \x00\x00\x5d\xc3 (1 found)
0x14000b57e: add byte [rax], al ; pop rdi ; pop rbx ; pop rbp ; ret ; \x00\x00\x5f\x5b\x5d\xc3 (1 found)
0x14000b6a2: add byte [rax], al ; pop rdi ; pop rbx ; pop rbp ; ret ; \x00\x00\x5f\x5b\x5d\xc3 (1 found)
0x14000cbbf: add byte [rax], al ; pop rdi ; pop rbx ; pop rbp ; ret ; \x00\x00\x5f\x5b\x5d\xc3 (1 found)
0x140010e1a: add byte [rax], al ; rep stosq ; mov rdi, qword [rsp+0x08] ; mov al, 0x01 ; ret ; \x00\x00\xf3\x48\xab\x48\x8b\x7c\x24\x08\xb0\x01\xc3 (1 found)
0x140001333: add byte [rax], al ; ret ; \x00\x00\xc3 (1 found)
0x140002433: add byte [rax], al ; ret ; \x00\x00\xc3 (1 found)
0x14000243e: add byte [rax], al ; ret ; \x40\x00\x00\xc3 (1 found)
0x14000243f: add byte [rax], al ; ret ; \x00\x00\xc3 (1 found)
0x1400024ad: add byte [rax], al ; ret ; \x00\x00\xc3 (1 found)
0x14000e6f1: add byte [rax], al ; ret ; \x00\x00\xc3 (1 found)
0x140017638: add byte [rax], al ; ret ; \x00\x00\xc3 (1 found)
0x1400195df: add byte [rax], al ; ret ; \x00\x00\xc3 (1 found)
0x140019ea9: add byte [rax], al ; ret ; \x00\x00\xc3 (1 found)
0x14001c561: add byte [rax], al ; ror byte [rdi], 0x94 ; ror  [rbx-0x3B7CB73F], 0x20 ; pop rbp ; ret ; \x00\x00\xc0\x0f\x94\xc1\x8b\xc1\x48\x83\xc4\x20\x5d\xc3 (1 found)
0x14000e289: add byte [rax], al ; shr eax, 0x08 ; and al, 0x01 ; ret ; \x00\x00\xc1\xe8\x08\x24\x01\xc3 (1 found)
0x140013a2a: add byte [rax], al ; std ; mov eax, ebx ; add rsp, 0x40 ; pop rbx ; ret ; \x00\x00\xfd\x8b\xc3\x48\x83\xc4\x40\x5b\xc3 (1 found)
0x14001104a: add byte [rax], al ; std ; movzx eax, dx ; add rsp, 0x58 ; ret ; \x00\x00\xfd\x0f\xb7\xc2\x48\x83\xc4\x58\xc3 (1 found)
0x14001ab7e: add byte [rax], al ; sub rsp, 0x08 ; stmxcsr  [rsp+0x00] ; mov eax,  [rsp+0x00] ; add rsp, 0x08 ; ret ; \x00\x00\x48\x83\xec\x08\x0f\xae\x1c\x24\x8b\x04\x24\x48\x83\xc4\x08\xc3 (1 found)
0x140014eb0: add byte [rax], al ; test eax, eax ; cmove eax, ecx ; mov  [0x000000014002BDA8], eax ; xor eax, eax ; ret ; \x40\x00\x00\x85\xc0\x0f\x44\xc1\x89\x05\xea\x6e\x01\x00\x33\xc0\xc3 (1 found)
0x140014eb1: add byte [rax], al ; test eax, eax ; cmove eax, ecx ; mov  [0x000000014002BDA8], eax ; xor eax, eax ; ret ; \x00\x00\x85\xc0\x0f\x44\xc1\x89\x05\xea\x6e\x01\x00\x33\xc0\xc3 (1 found)
0x1400157e8: add byte [rax], al ; test rax, rax ; mov qword [0x000000014002BDB8], rax ; setne al ; add rsp, 0x28 ; ret ; \x00\x00\x48\x85\xc0\x48\x89\x05\xc4\x65\x01\x00\x0f\x95\xc0\x48\x83\xc4\x28\xc3 (1 found)
0x140019a1e: add byte [rax], al ; vaddsd xmm0, xmm0, xmm2 ; vmovdqa xmm6,  [rsp+0x20] ; add rsp, 0x58 ; ret ; \x00\x00\xc5\xfb\x58\xc2\xc5\xf9\x6f\x74\x24\x20\x48\x83\xc4\x58\xc3 (1 found)
0x140019b24: add byte [rax], al ; vmovdqa xmm6,  [rsp+0x20] ; add rsp, 0x58 ; ret ; \x00\x00\xc5\xf9\x6f\x74\x24\x20\x48\x83\xc4\x58\xc3 (1 found)
0x140019b52: add byte [rax], al ; vmovdqa xmm6,  [rsp+0x20] ; add rsp, 0x58 ; ret ; \x00\x00\xc5\xf9\x6f\x74\x24\x20\x48\x83\xc4\x58\xc3 (1 found)
0x14000d9cf: add byte [rax], al ; xchg  [0x000000014002B520], eax ; ret ; \x00\x00\x87\x05\x49\xdb\x01\x00\xc3 (1 found)
0x1400033e0: add byte [rax], al ; xor al, al ; add rsp, 0x20 ; pop rbx ; ret ; \x00\x00\x32\xc0\x48\x83\xc4\x20\x5b\xc3 (1 found)
0x14000e1fe: add byte [rax], al ; xor al, al ; add rsp, 0x20 ; pop rbx ; ret ; \x00\x00\x32\xc0\x48\x83\xc4\x20\x5b\xc3 (1 found)
0x140003376: add byte [rax], al ; xor al, al ; add rsp, 0x28 ; ret ; \x00\x00\x32\xc0\x48\x83\xc4\x28\xc3 (1 found)
0x14000e84c: add byte [rax], al ; xor eax, eax ; add rsp, 0x20 ; pop rbx ; ret ; \x00\x00\x33\xc0\x48\x83\xc4\x20\x5b\xc3 (1 found)
0x14001091b: add byte [rax], al ; xor eax, eax ; add rsp, 0x20 ; pop rbx ; ret ; \x00\x00\x33\xc0\x48\x83\xc4\x20\x5b\xc3 (1 found)
0x14001944d: add byte [rax], al ; xor eax, eax ; add rsp, 0x20 ; pop rbx ; ret ; \x00\x00\x33\xc0\x48\x83\xc4\x20\x5b\xc3 (1 found)
0x140001e0f: add byte [rax], al ; xor eax, eax ; add rsp, 0x28 ; ret ; \x00\x00\x33\xc0\x48\x83\xc4\x28\xc3 (1 found)
0x1400193b2: add byte [rax], al ; xor eax, eax ; mov rbx, qword [rsp+0x30] ; add rsp, 0x20 ; pop rdi ; ret ; \x00\x00\x33\xc0\x48\x8b\x5c\x24\x30\x48\x83\xc4\x20\x5f\xc3 (1 found)
0x14000f9ae: add byte [rax], bh ; pop rdi ; xor byte [rbx+rax-0x75], dh ; pop rdi ; sub al, 0x8B ; ret ; \x00\x38\x5f\x30\x74\x03\x8b\x5f\x2c\x8b\xc3 (1 found)
0x14001aa1f: add byte [rax], cl ; add byte [rax+0x0B], cl ; enter 0x8948, 0x4C ; and al, 0x08 ; movsd xmm0, qword [rsp+0x08] ; ret ; \x00\x08\x00\x48\x0b\xc8\x48\x89\x4c\x24\x08\xf2\x0f\x10\x44\x24\x08\xc3 (1 found)
0x14001b0b6: add byte [rbp+0x0F], dh ; xor eax, eax ; mov ecx, 0x0000020B ; cmp word [rdx+0x18], cx ; sete al ; ret ; \x00\x75\x0f\x33\xc0\xb9\x0b\x02\x00\x00\x66\x39\x4a\x18\x0f\x94\xc0\xc3 (1 found)
0x140016cb2: add byte [rbp+0x33], al ; fild  [rbp-0x75] ; retn 0x8545 ; \x00\x45\x33\xdb\x45\x8b\xc2\x45\x85 (1 found)
0x14001b24a: add byte [rbp+0x3B], cl ; sal  [rbp-0x10], cl ; mov r10, qword [rsp+0x00] ; mov r11, qword [rsp+0x08] ; add rsp, 0x10 ; ret ; \x00\x4d\x3b\xd3\x75\xf0\x4c\x8b\x14\x24\x4c\x8b\x5c\x24\x08\x48\x83\xc4\x10\xc3 (1 found)
0x140001df0: add byte [rbp+0x480675C0], al ; add esp, 0x20 ; pop rbx ; ret ; \x00\x85\xc0\x75\x06\x48\x83\xc4\x20\x5b\xc3 (1 found)
0x140014ef1: add byte [rbp+rax-0x18], dh ; ret ; \x00\x74\x05\xe8\xc3 (1 found)
0x14000bb99: add byte [rbp+rcx*4+0x34], cl ; ret ; \x00\x4c\x8d\x34\xc3 (1 found)
0x14001a3f5: add byte [rbp-0x0E], dh ; ret ; \x00\x75\xf2\xc3 (1 found)
0x14000216b: add byte [rbp-0x12], dh ; xor al, al ; add rsp, 0x28 ; ret ; \x00\x75\xee\x32\xc0\x48\x83\xc4\x28\xc3 (1 found)
0x140015917: add byte [rbp-0x3C6AF040], al ; mov eax, ebx ; mov rbx, qword [rsp+0x30] ; add rsp, 0x20 ; pop rdi ; ret ; \x00\x85\xc0\x0f\x95\xc3\x8b\xc3\x48\x8b\x5c\x24\x30\x48\x83\xc4\x20\x5f\xc3 (1 found)
0x1400010a7: add byte [rbp-0x3CB7F040], al ; mov rbx, qword [rsp+0x50] ; add rsp, 0x40 ; pop rdi ; ret ; \x00\x85\xc0\x0f\x48\xc3\x48\x8b\x5c\x24\x50\x48\x83\xc4\x40\x5f\xc3 (1 found)
0x140014eb2: add byte [rbp-0x3EBBF040], al ; mov  [0x000000014002BDA8], eax ; xor eax, eax ; ret ; \x00\x85\xc0\x0f\x44\xc1\x89\x05\xea\x6e\x01\x00\x33\xc0\xc3 (1 found)
0x140017d49: add byte [rbp-0x47BEE0FC], cl ; push rbp ; add byte [rax], al ; add byte [rcx+0x2BCD8B48], bl ; retn 0xF8D1 ; \x00\x8d\x04\x1f\x41\xb8\x55\x00\x00\x00\x99\x48\x8b\xcd\x2b\xc2\xd1\xf8 (1 found)
0x140016a23: add byte [rbp-0x74B3F1FC], cl ; ret ; \x00\x8d\x04\x0e\x4c\x8b\xc3 (1 found)
0x140016f10: add byte [rbp-0x74B3F1FC], cl ; ret ; \x00\x8d\x04\x0e\x4c\x8b\xc3 (1 found)
0x140015fa3: add byte [rbp-0x75], al ; retn 0x6349 ; \x00\x45\x8b\xc2\x49\x63 (1 found)
0x14000e2ca: add byte [rbx+0x0130247C], al ; setne bl ; mov eax, ebx ; add rsp, 0x20 ; pop rbx ; ret ; \x00\x83\x7c\x24\x30\x01\x0f\x95\xc3\x8b\xc3\x48\x83\xc4\x20\x5b\xc3 (1 found)
0x14001062b: add byte [rbx+0x019B650D], al ; add bh, bh ; mov al, 0x01 ; add rsp, 0x28 ; ret ; \x00\x83\x0d\x65\x9b\x01\x00\xff\xb0\x01\x48\x83\xc4\x28\xc3 (1 found)
0x140003393: add byte [rbx+0x026CD50D], al ; add bh, bh ; mov al, 0x01 ; add rsp, 0x28 ; ret ; \x00\x83\x0d\xd5\x6c\x02\x00\xff\xb0\x01\x48\x83\xc4\x28\xc3 (1 found)
0x14001126e: add byte [rbx+0x03], cl ; mov bx, cs ; sal byte [rdi+0x38400002], 1 ; cmp  [rsi+rcx-0x01], esi ; retn 0xFF49 ; \x00\x4b\x03\x8c\xcb\xd0\xb7\x02\x00\x40\x38\x39\x74\x0e\xff\xc2\x49\xff (1 found)
0x14000da94: add byte [rbx+0x08EBFFC8], al ; xchg  [0x000000014002B524], ecx ; mov eax, ecx ; add rsp, 0x28 ; ret ; \x00\x83\xc8\xff\xeb\x08\x87\x0d\x84\xda\x01\x00\x8b\xc1\x48\x83\xc4\x28\xc3 (1 found)
0x14000e6fe: add byte [rbx+0x0F410EF9], al ; rol bl, 0x41 ; mov eax,  [rcx+rax*8+0x04] ; ret ; \x00\x83\xf9\x0e\x41\x0f\x46\xc0\xc3\x41\x8b\x44\xc1\x04\xc3 (1 found)
0x14000374a: add byte [rbx+0x48402444], cl ; add esp, 0x70 ; pop rbx ; ret ; \x00\x8b\x44\x24\x40\x48\x83\xc4\x70\x5b\xc3 (1 found)
0x14000bf2c: add byte [rbx+0x48C38B18], cl ; mov ebx,  [rsp+0x30] ; add rsp, 0x20 ; pop rdi ; ret ; \x00\x8b\x18\x8b\xc3\x48\x8b\x5c\x24\x30\x48\x83\xc4\x20\x5f\xc3 (1 found)
0x140013ac2: add byte [rbx+0x48], bh ; mov ebx,  [rsp+0x30] ; add rsp, 0x20 ; pop rdi ; ret ; \x00\x7c\xe3\x48\x8b\x5c\x24\x30\x48\x83\xc4\x20\x5f\xc3 (1 found)
0x1400110d5: add byte [rbx+0x5C8B48C3], cl ; and al, 0x30 ; add rsp, 0x20 ; pop rdi ; ret ; \x00\x8b\xc3\x48\x8b\x5c\x24\x30\x48\x83\xc4\x20\x5f\xc3 (1 found)
0x1400123a9: add byte [rbx+0x5C8B48C3], cl ; and al, 0x30 ; add rsp, 0x20 ; pop rdi ; ret ; \x00\x8b\xc3\x48\x8b\x5c\x24\x30\x48\x83\xc4\x20\x5f\xc3 (1 found)
0x140001f78: add byte [rbx+0x5C8B48C3], cl ; and al, 0x40 ; mov rsi, qword [rsp+0x48] ; add rsp, 0x30 ; pop rdi ; ret ; \x00\x8b\xc3\x48\x8b\x5c\x24\x40\x48\x8b\x74\x24\x48\x48\x83\xc4\x30\x5f\xc3 (1 found)
0x14000c04a: add byte [rbx+0x5C8B48C6], cl ; and al, 0x40 ; mov rsi, qword [rsp+0x48] ; add rsp, 0x30 ; pop rdi ; ret ; \x00\x8b\xc6\x48\x8b\x5c\x24\x40\x48\x8b\x74\x24\x48\x48\x83\xc4\x30\x5f\xc3 (1 found)
0x1400058c3: add byte [rbx+0x5C8B48C7], cl ; and al, 0x30 ; add rsp, 0x20 ; pop rdi ; ret ; \x00\x8b\xc7\x48\x8b\x5c\x24\x30\x48\x83\xc4\x20\x5f\xc3 (1 found)
0x140005903: add byte [rbx+0x5C8B48C7], cl ; and al, 0x30 ; add rsp, 0x20 ; pop rdi ; ret ; \x00\x8b\xc7\x48\x8b\x5c\x24\x30\x48\x83\xc4\x20\x5f\xc3 (1 found)
0x14000d3c0: add byte [rbx+0x5C8B48C7], cl ; and al, 0x30 ; add rsp, 0x20 ; pop rdi ; ret ; \x00\x8b\xc7\x48\x8b\x5c\x24\x30\x48\x83\xc4\x20\x5f\xc3 (1 found)
0x14000dadd: add byte [rbx+0x5C8B48C7], cl ; and al, 0x30 ; add rsp, 0x20 ; pop rdi ; ret ; \x00\x8b\xc7\x48\x8b\x5c\x24\x30\x48\x83\xc4\x20\x5f\xc3 (1 found)
0x14000db19: add byte [rbx+0x5C8B48C7], cl ; and al, 0x30 ; add rsp, 0x20 ; pop rdi ; ret ; \x00\x8b\xc7\x48\x8b\x5c\x24\x30\x48\x83\xc4\x20\x5f\xc3 (1 found)
0x14000dd05: add byte [rbx+rcx*4+0x05], cl ; retn 0x0001 ; \x00\x4c\x8b\x05\xf3\xc2\x01\x00 (1 found)
0x14000ddb8: add byte [rbx+rcx*4+0x05], cl ; retn 0x0001 ; \x00\x4c\x8b\x05\x40\xc2\x01\x00 (1 found)
0x140005733: add byte [rbx+rcx+0x48], dh ; mov ebx,  [rsp+0x60] ; add rsp, 0x50 ; pop rbp ; ret ; \x00\x74\x0b\x48\x8b\x5c\x24\x60\x48\x83\xc4\x50\x5d\xc3 (1 found)
0x14000cf59: add byte [rbx-0x2FCCB738], cl ; and ecx, 0x3F ; ror rdx, cl ; test rdx, rdx ; setne al ; ret ; \x00\x8b\xc8\x48\x33\xd0\x83\xe1\x3f\x48\xd3\xca\x48\x85\xd2\x0f\x95\xc0\xc3 (1 found)
0x14000cfc1: add byte [rbx-0x35D4C01E], al ; ror r9, cl ; xor r9, r8 ; mov qword [0x000000014002B2B0], r9 ; ret ; \x00\x83\xe2\x3f\x2b\xca\x49\xd3\xc9\x4d\x33\xc8\x4c\x89\x0d\xdc\xe2\x01\x00\xc3 (1 found)
0x14000da9f: add byte [rbx-0x3B7CB73F], cl ; sub bl, al ; int3 ; lea rax, qword [0x000000014002B528] ; ret ; \x00\x8b\xc1\x48\x83\xc4\x28\xc3\xcc\x48\x8d\x05\x79\xda\x01\x00\xc3 (1 found)
0x14000bf76: add byte [rbx-0x74B70038], al ; pop rsp ; and al, 0x48 ; add rsp, 0x30 ; pop rdi ; ret ; \x00\x83\xc8\xff\x48\x8b\x5c\x24\x48\x48\x83\xc4\x30\x5f\xc3 (1 found)
0x140011116: add byte [rbx-0x74B7C01F], al ; retn 0xC148 ; \x00\x83\xe1\x3f\x48\x8b\xc2\x48\xc1 (1 found)
0x140019b9e: add byte [rbx], al ; add byte [rax], al ; mov eax, ecx ; ret ; \x00\x03\x00\x00\x8b\xc1\xc3 (1 found)
0x14000177b: add byte [rbx], bh ; ret ; \x00\x3b\xc3 (1 found)
0x140017118: add byte [rbx], dh ; fild  [rbp-0x75] ; retn 0x8545 ; \x00\x33\xdb\x45\x8b\xc2\x45\x85 (1 found)
0x140002354: add byte [rbx], dh ; rol byte [rbp+0x440F48C0], cl ; ror  [rax-0x75], cl ; retn 0x8348 ; \x00\x33\xd2\x85\xc0\x48\x0f\x44\xd3\x48\x8b\xc2\x48\x83 (1 found)
0x1400193b3: add byte [rbx], dh ; ror byte [rax-0x75], 0x5C ; and al, 0x30 ; add rsp, 0x20 ; pop rdi ; ret ; \x00\x33\xc0\x48\x8b\x5c\x24\x30\x48\x83\xc4\x20\x5f\xc3 (1 found)
0x14000fc5a: add byte [rbx], dh ; ror byte [rax-0x7D], 0xC9 ; add  [rax+0x39], ecx ; or eax, 0x0001BB40 ; sete al ; ret ; \x00\x33\xc0\x48\x83\xc9\x01\x48\x39\x0d\x40\xbb\x01\x00\x0f\x94\xc0\xc3 (1 found)
0x1400011b7: add byte [rbx], dh ; sar bh, cl ; adc eax, 0x0001BED8 ; add rsp, 0x48 ; ret ; \x00\x33\xd2\xff\x15\xd8\xbe\x01\x00\x48\x83\xc4\x48\xc3 (1 found)
0x140019510: add byte [rbx], dh ; shr bl, 0x05 ; mov eax, 0x00000001 ; add rsp, 0x20 ; pop rbx ; ret ; \x00\x33\xc0\xeb\x05\xb8\x01\x00\x00\x00\x48\x83\xc4\x20\x5b\xc3 (1 found)
0x140010e16: add byte [rcx+0x0000001F], bh ; rep stosq ; mov rdi, qword [rsp+0x08] ; mov al, 0x01 ; ret ; \x00\xb9\x1f\x00\x00\x00\xf3\x48\xab\x48\x8b\x7c\x24\x08\xb0\x01\xc3 (1 found)
0x140014ead: add byte [rcx+0x00004000], bh ; test eax, eax ; cmove eax, ecx ; mov  [0x000000014002BDA8], eax ; xor eax, eax ; ret ; \x00\xb9\x00\x40\x00\x00\x85\xc0\x0f\x44\xc1\x89\x05\xea\x6e\x01\x00\x33\xc0\xc3 (1 found)
0x14000a263: add byte [rcx+0x01B04843], cl ; mov rbx, qword [rsp+0x30] ; mov rsi, qword [rsp+0x38] ; add rsp, 0x20 ; pop rdi ; ret ; \x00\x89\x43\x48\xb0\x01\x48\x8b\x5c\x24\x30\x48\x8b\x74\x24\x38\x48\x83\xc4\x20\x5f\xc3 (1 found)
0x14000a2e3: add byte [rcx+0x01B04843], cl ; mov rbx, qword [rsp+0x30] ; mov rsi, qword [rsp+0x38] ; add rsp, 0x20 ; pop rdi ; ret ; \x00\x89\x43\x48\xb0\x01\x48\x8b\x5c\x24\x30\x48\x8b\x74\x24\x38\x48\x83\xc4\x20\x5f\xc3 (1 found)
0x14000a363: add byte [rcx+0x01B04843], cl ; mov rbx, qword [rsp+0x30] ; mov rsi, qword [rsp+0x38] ; add rsp, 0x20 ; pop rdi ; ret ; \x00\x89\x43\x48\xb0\x01\x48\x8b\x5c\x24\x30\x48\x8b\x74\x24\x38\x48\x83\xc4\x20\x5f\xc3 (1 found)
0x14000afae: add byte [rcx+0x01B04843], cl ; mov rbx, qword [rsp+0x30] ; mov rsi, qword [rsp+0x38] ; add rsp, 0x20 ; pop rdi ; ret ; \x00\x89\x43\x48\xb0\x01\x48\x8b\x5c\x24\x30\x48\x8b\x74\x24\x38\x48\x83\xc4\x20\x5f\xc3 (1 found)
0x14000b04a: add byte [rcx+0x01B04843], cl ; mov rbx, qword [rsp+0x30] ; mov rsi, qword [rsp+0x38] ; add rsp, 0x20 ; pop rdi ; ret ; \x00\x89\x43\x48\xb0\x01\x48\x8b\x5c\x24\x30\x48\x8b\x74\x24\x38\x48\x83\xc4\x20\x5f\xc3 (1 found)
0x14000b0e6: add byte [rcx+0x01B04843], cl ; mov rbx, qword [rsp+0x30] ; mov rsi, qword [rsp+0x38] ; add rsp, 0x20 ; pop rdi ; ret ; \x00\x89\x43\x48\xb0\x01\x48\x8b\x5c\x24\x30\x48\x8b\x74\x24\x38\x48\x83\xc4\x20\x5f\xc3 (1 found)
0x14000a261: add byte [rcx+0x01B04843], r9L ; mov rbx, qword [rsp+0x30] ; mov rsi, qword [rsp+0x38] ; add rsp, 0x20 ; pop rdi ; ret ; \x43\x4c\x00\x89\x43\x48\xb0\x01\x48\x8b\x5c\x24\x30\x48\x8b\x74\x24\x38\x48\x83\xc4\x20\x5f\xc3 (1 found)
0x14000a262: add byte [rcx+0x01B04843], r9L ; mov rbx, qword [rsp+0x30] ; mov rsi, qword [rsp+0x38] ; add rsp, 0x20 ; pop rdi ; ret ; \x4c\x00\x89\x43\x48\xb0\x01\x48\x8b\x5c\x24\x30\x48\x8b\x74\x24\x38\x48\x83\xc4\x20\x5f\xc3 (1 found)
0x14000a2e1: add byte [rcx+0x01B04843], r9L ; mov rbx, qword [rsp+0x30] ; mov rsi, qword [rsp+0x38] ; add rsp, 0x20 ; pop rdi ; ret ; \x43\x4c\x00\x89\x43\x48\xb0\x01\x48\x8b\x5c\x24\x30\x48\x8b\x74\x24\x38\x48\x83\xc4\x20\x5f\xc3 (1 found)
0x14000a2e2: add byte [rcx+0x01B04843], r9L ; mov rbx, qword [rsp+0x30] ; mov rsi, qword [rsp+0x38] ; add rsp, 0x20 ; pop rdi ; ret ; \x4c\x00\x89\x43\x48\xb0\x01\x48\x8b\x5c\x24\x30\x48\x8b\x74\x24\x38\x48\x83\xc4\x20\x5f\xc3 (1 found)
0x14000a361: add byte [rcx+0x01B04843], r9L ; mov rbx, qword [rsp+0x30] ; mov rsi, qword [rsp+0x38] ; add rsp, 0x20 ; pop rdi ; ret ; \x43\x4c\x00\x89\x43\x48\xb0\x01\x48\x8b\x5c\x24\x30\x48\x8b\x74\x24\x38\x48\x83\xc4\x20\x5f\xc3 (1 found)
0x14000a362: add byte [rcx+0x01B04843], r9L ; mov rbx, qword [rsp+0x30] ; mov rsi, qword [rsp+0x38] ; add rsp, 0x20 ; pop rdi ; ret ; \x4c\x00\x89\x43\x48\xb0\x01\x48\x8b\x5c\x24\x30\x48\x8b\x74\x24\x38\x48\x83\xc4\x20\x5f\xc3 (1 found)
0x140012f30: add byte [rcx+0x03], cl ; ret ; \x00\x49\x03\xc3 (1 found)
0x14000e096: add byte [rcx+0x05C2E818], cl ; add byte [rax], al ; mov eax, ebx ; add rsp, 0x20 ; pop rbx ; ret ; \x00\x89\x18\xe8\xc2\x05\x00\x00\x8b\xc3\x48\x83\xc4\x20\x5b\xc3 (1 found)
0x1400143c5: add byte [rcx+0x0F], al ; xchg eax, esi ; retn 0xFF33 ; \x00\x41\x0f\x96\xc2\x33\xff (1 found)
0x140019c04: add byte [rcx+0x23], al ; retn 0x2774 ; \x00\x41\x23\xc2\x74\x27 (1 found)
0x14000c1f2: add byte [rcx+0x2466E818], cl ; add byte [rax], al ; mov eax, ebx ; add rsp, 0x20 ; pop rbx ; ret ; \x00\x89\x18\xe8\x66\x24\x00\x00\x8b\xc3\x48\x83\xc4\x20\x5b\xc3 (1 found)
0x14000c187: add byte [rcx+0x24D1E818], cl ; add byte [rax], al ; mov eax, ebx ; add rsp, 0x20 ; pop rbx ; ret ; \x00\x89\x18\xe8\xd1\x24\x00\x00\x8b\xc3\x48\x83\xc4\x20\x5b\xc3 (1 found)
0x140017d52: add byte [rcx+0x2BCD8B48], bl ; retn 0xF8D1 ; \x00\x99\x48\x8b\xcd\x2b\xc2\xd1\xf8 (1 found)
0x14001b872: add byte [rcx+0x44660848], cl ; mov  [rax+0x0C], ecx ; mov byte [rax+0x0E], r10L ; ret ; \x00\x89\x48\x08\x66\x44\x89\x48\x0c\x44\x88\x50\x0e\xc3 (1 found)
0x14001b8c5: add byte [rcx+0x44660848], cl ; mov  [rax+0x0C], ecx ; ret ; \x00\x89\x48\x08\x66\x44\x89\x48\x0c\xc3 (1 found)
0x14000c656: add byte [rcx+0x5E], al ; pop r13 ; pop r12 ; ret ; \x00\x41\x5e\x41\x5d\x41\x5c\xc3 (1 found)
0x14001aa0f: add byte [rcx+0x5E], al ; pop rdi ; pop rsi ; pop rbx ; pop rbp ; ret ; \x00\x41\x5e\x5f\x5e\x5b\x5d\xc3 (1 found)
0x14001b4ef: add byte [rcx+rcx*4+0x59], cl ; hlt ; mov  [rcx-0x04], r11d ; ret ; \x00\x4c\x89\x59\xf4\x44\x89\x59\xfc\xc3 (1 found)
0x14001b4df: add byte [rcx+rcx*4+0x59], cl ; mov  [rcx-0x05], r11d ; mov byte [rcx-0x01], r11L ; ret ; \x00\x4c\x89\x59\xf3\x44\x89\x59\xfb\x44\x88\x59\xff\xc3 (1 found)
0x1400162a8: add byte [rcx-0x01], al ; retn 0x8B41 ; \x00\x41\xff\xc2\x41\x8b (1 found)
0x14001946c: add byte [rcx-0x3FCCFBBD], cl ; add rsp, 0x20 ; pop rbx ; ret ; \x00\x89\x43\x04\x33\xc0\x48\x83\xc4\x20\x5b\xc3 (1 found)
0x14001688b: add byte [rcx-0x73], al ; inc  [rcx+0x3B] ; ret ; \x00\x41\x8d\x46\xff\x41\x3b\xc3 (1 found)
0x14001b91b: add byte [rcx-0x743CF7B8], cl ; or al, byte [rdi+rcx-0x49] ; add al, 0x89 ; or byte [rsi+0x44], ah ; mov  [rax+0x04], eax ; ret ; \x00\x89\x48\x08\xc3\x8b\x0a\x44\x0f\xb7\x42\x04\x89\x08\x66\x44\x89\x40\x04\xc3 (1 found)
0x140010a4f: add byte [rcx-0x75], al ; ret ; \x00\x41\x8b\xc3 (1 found)
0x140017937: add byte [rcx-0x75], cl ; retn 0xC148 ; \x00\x49\x8b\xc2\x48\xc1 (1 found)
0x140017a33: add byte [rcx-0x75], cl ; retn 0xC148 ; \x00\x49\x8b\xc2\x48\xc1 (1 found)
0x14001623a: add byte [rcx-0x7D], cl ; ret ; \x00\x49\x83\xc3 (1 found)
0x14001a6d0: add byte [rcx-0x7FBFDBA4], cl ; cmp eax, 0x0001037C ; add byte [rsi+rsi-0x0A], dh ; ret ; \x00\x89\x5c\x24\x40\x80\x3d\x7c\x03\x01\x00\x00\x74\x36\xf6\xc3 (1 found)
0x140005675: add byte [rcx], al ; add rsp, 0x30 ; pop rbx ; ret ; \x00\x01\x48\x83\xc4\x30\x5b\xc3 (1 found)
0x14000222e: add byte [rcx], al ; mov al, 0x01 ; add rsp, 0x20 ; pop rbx ; ret ; \x00\x01\xb0\x01\x48\x83\xc4\x20\x5b\xc3 (1 found)
0x140014037: add byte [rcx], al ; mov al, 0x01 ; add rsp, 0x28 ; ret ; \x00\x01\xb0\x01\x48\x83\xc4\x28\xc3 (1 found)
0x14000566e: add byte [rcx], al ; mov rax, qword [rbx+0x10] ; mov byte [rax], 0x01 ; add rsp, 0x30 ; pop rbx ; ret ; \x00\x01\x48\x8b\x43\x10\xc6\x00\x01\x48\x83\xc4\x30\x5b\xc3 (1 found)
0x140017d0a: add byte [rcx], cl ; add byte [rax], al ; add al, ch ; imul r15, rdi, 0x48C033FF ; add esp, 0x28 ; ret ; \x00\x09\x00\x00\x00\xe8\x4c\x69\xff\xff\x33\xc0\x48\x83\xc4\x28\xc3 (1 found)
0x14000b57f: add byte [rdi+0x5B], bl ; pop rbp ; ret ; \x00\x5f\x5b\x5d\xc3 (1 found)
0x14000b6a3: add byte [rdi+0x5B], bl ; pop rbp ; ret ; \x00\x5f\x5b\x5d\xc3 (1 found)
0x14000cbc0: add byte [rdi+0x5B], bl ; pop rbp ; ret ; \x00\x5f\x5b\x5d\xc3 (1 found)
0x14001b84f: add byte [rdi-0x75], al ; mov word [rdx+0x00026410], es ; add r9, r10 ; jmp r9 ; \x00\x47\x8b\x8c\x82\x10\x64\x02\x00\x4d\x03\xca\x41\xff\xe1 (1 found)
0x14001b45f: add byte [rdi-0x75], dl ; retn 0x8B48 ; \x00\x57\x8b\xc2\x48\x8b (1 found)
0x14001b70e: add byte [rdi], cl ; scasb ; clc ; vzeroupper ; ret ; \x00\x0f\xae\xf8\xc5\xf8\x77\xc3 (1 found)
0x14001bc59: add byte [rdi], cl ; scasb ; clc ; vzeroupper ; ret ; \x00\x0f\xae\xf8\xc5\xf8\x77\xc3 (1 found)
0x140002648: add byte [rdi], cl ; xchg eax, ebp ; shr bl, 0x02 ; xor al, al ; add rsp, 0x28 ; ret ; \x00\x0f\x95\xc0\xeb\x02\x32\xc0\x48\x83\xc4\x28\xc3 (1 found)
0x140002493: add byte [rdi], cl ; xchg eax, esp ; rol bl, 0x48 ; lea eax,  [0x0000000140046C58] ; ret ; \x00\x0f\x94\xc0\xc3\x48\x8d\x05\xb9\x47\x04\x00\xc3 (1 found)
0x140002319: add byte [rdx+0x0CCBE8CB], cl ; add byte [rax], al ; mov al, 0x01 ; add rsp, 0x20 ; pop rbx ; ret ; \x00\x8a\xcb\xe8\xcb\x0c\x00\x00\xb0\x01\x48\x83\xc4\x20\x5b\xc3 (1 found)
0x1400108a0: add byte [rdx-0x27], dh ; mov rbx, qword [rsp+0x30] ; mov al, 0x01 ; add rsp, 0x20 ; pop rdi ; ret ; \x00\x72\xd9\x48\x8b\x5c\x24\x30\xb0\x01\x48\x83\xc4\x20\x5f\xc3 (1 found)
0x14000d8aa: add byte [rdx-0x78], 0x4C ; retn 0x4A38 ; \x80\x42\x88\x4c\xc2\x38\x4a (1 found)
0x14000d8be: add byte [rdx-0x78], 0x4C ; retn 0x4A38 ; \x80\x42\x88\x4c\xc2\x38\x4a (1 found)
0x14000d8dc: add byte [rdx-0x78], 0x4C ; retn 0x4A38 ; \x80\x42\x88\x4c\xc2\x38\x4a (1 found)
0x14001abbf: add byte [rsi+0x0A], dh ; cvtsd2si rcx, xmm0 ; cvtsi2sd xmm0, rcx ; ret ; \x00\x76\x0a\xf2\x48\x0f\x2d\xc8\xf2\x48\x0f\x2a\xc1\xc3 (1 found)
0x140002d75: add byte [rsi+0x0F], ah ; cmp ah, byte [rbx-0x38] ; adc eax, 0x6348EF75 ; ror  [rcx-0x73], 0x04 ; ret ; \x00\x66\x0f\x3a\x63\xc8\x15\x75\xef\x48\x63\xc1\x49\x8d\x04\x40\xc3 (1 found)
0x140002af5: add byte [rsi+0x0F], ah ; outsd ; enter 0x0F66, 0x74 ; ret ; \x00\x66\x0f\x6f\xc8\x66\x0f\x74\xc3 (1 found)
0x14001b35a: add byte [rsi+0x0F], ah ; outsd ; retn 0xE0D3 ; \x00\x66\x0f\x6f\xc2\xd3\xe0 (1 found)
0x14000b3e9: add byte [rsi+0x3B], ah ; retn 0x3B75 ; \x00\x66\x3b\xc2\x75\x3b (1 found)
0x1400198d8: add byte [rsi+0x48], ah ; movd mm0, mm0 ; nop ; movdqa xmm6,  [rsp+0x20] ; add rsp, 0x58 ; ret ; \x00\x66\x48\x0f\x6e\xc0\x66\x90\x66\x0f\x6f\x74\x24\x20\x48\x83\xc4\x58\xc3 (1 found)
0x14001b843: add byte [rsi+0x66], ah ; nop word [rax+rax+0x00000000] ; mov r9d,  [r10+r8*4+0x00026410] ; add r9, r10 ; jmp r9 ; \x00\x66\x66\x66\x66\x0f\x1f\x84\x00\x00\x00\x00\x00\x47\x8b\x8c\x82\x10\x64\x02\x00\x4d\x03\xca\x41\xff\xe1 (1 found)
0x14001a6db: add byte [rsi+rsi-0x0A], dh ; ret ; \x00\x74\x36\xf6\xc3 (1 found)
0x1400010a4: add byte [rsi-0x3F7B0000], ah ; cmovs eax, ebx ; mov rbx, qword [rsp+0x50] ; add rsp, 0x40 ; pop rdi ; ret ; \x00\xa6\x00\x00\x85\xc0\x0f\x48\xc3\x48\x8b\x5c\x24\x50\x48\x83\xc4\x40\x5f\xc3 (1 found)
0x14001b88e: add byte [rsi-0x77], ah ; or byte [rax+rcx*4+0x48], al ; or al, bl ; movzx ecx, word [rdx] ; mov word [rax], cx ; ret ; \x00\x66\x89\x48\x08\x44\x88\x48\x0a\xc3\x0f\xb7\x0a\x66\x89\x08\xc3 (1 found)
0x14001177f: add byte [rsi-0x77], ah ; or ecx,  [rax-0x7D] ; ret ; \x00\x66\x89\x0b\x48\x83\xc3 (1 found)
0x14001103e: add byte [rsp+rcx+0x48], dh ; mov ecx,  [rsp+0x30] ; and  [rcx+0x000003A8], 0xFFFFFFFD ; movzx eax, dx ; add rsp, 0x58 ; ret ; \x00\x74\x0c\x48\x8b\x4c\x24\x30\x83\xa1\xa8\x03\x00\x00\xfd\x0f\xb7\xc2\x48\x83\xc4\x58\xc3 (1 found)
0x14001103d: add byte [rsp+rcx+0x48], sil ; mov ecx,  [rsp+0x30] ; and  [rcx+0x000003A8], 0xFFFFFFFD ; movzx eax, dx ; add rsp, 0x58 ; ret ; \x48\x00\x74\x0c\x48\x8b\x4c\x24\x30\x83\xa1\xa8\x03\x00\x00\xfd\x0f\xb7\xc2\x48\x83\xc4\x58\xc3 (1 found)
0x140004caf: add ch, al ; imul eax,  [rdi], 0x00 ; add byte [rax-0x75], cl ; ret ; \x02\xe8\x6b\x07\x00\x00\x48\x8b\xc3 (1 found)
0x140019a1f: add ch, al ; sti ; pop rax ; retn 0xF9C5 ; \x00\xc5\xfb\x58\xc2\xc5\xf9 (1 found)
0x140019a99: add ch, al ; sti ; pop rsp ; ret ; \x00\xc5\xfb\x5c\xc3 (1 found)
0x140013a2b: add ch, bh ; mov eax, ebx ; add rsp, 0x40 ; pop rbx ; ret ; \x00\xfd\x8b\xc3\x48\x83\xc4\x40\x5b\xc3 (1 found)
0x14001104b: add ch, bh ; movzx eax, dx ; add rsp, 0x58 ; ret ; \x00\xfd\x0f\xb7\xc2\x48\x83\xc4\x58\xc3 (1 found)
0x140015293: add ch, bl ; fld qword [rax] ; add byte [rax-0x7D], cl ; ret ; \x00\xdd\xdd\x00\x00\x48\x83\xc3 (1 found)
0x140018f1f: add ch, bl ; fld qword [rax] ; add byte [rax-0x7D], cl ; ret ; \x00\xdd\xdd\x00\x00\x48\x83\xc3 (1 found)
0x1400151a2: add ch, bl ; salc ; mov rax, rcx ; ret ; \x02\xeb\xd6\x48\x8b\xc1\xc3 (1 found)
0x14000fe04: add cl, byte [rax+0x02FF4808] ; movzx eax, cl ; ret ; \x02\x88\x08\x48\xff\x02\x0f\xb6\xc1\xc3 (1 found)
0x14000ea1e: add cl, byte [rax+0x3B] ; sal byte [rbp-0x0E], 1 ; sub rdx, r8 ; sar rdx, 1 ; mov rax, rdx ; ret ; \x02\x48\x3b\xd0\x75\xf2\x49\x2b\xd0\x48\xd1\xfa\x48\x8b\xc2\xc3 (1 found)
0x14000ec24: add cl, byte [rax-0x01] ; ret ; \x02\x48\xff\xc3 (1 found)
0x14000a535: add cl, byte [rax-0x01] ; retn 0x028A ; \x02\x48\xff\xc2\x8a\x02 (1 found)
0x14000a79d: add cl, byte [rax-0x01] ; retn 0x028A ; \x02\x48\xff\xc2\x8a\x02 (1 found)
0x14000aa05: add cl, byte [rax-0x01] ; retn 0x028A ; \x02\x48\xff\xc2\x8a\x02 (1 found)
0x14000a540: add cl, byte [rax-0x01] ; retn 0x8A44 ; \x02\x48\xff\xc2\x44\x8a (1 found)
0x14000a7a8: add cl, byte [rax-0x01] ; retn 0x8A44 ; \x02\x48\xff\xc2\x44\x8a (1 found)
0x14000aa10: add cl, byte [rax-0x01] ; retn 0x8A44 ; \x02\x48\xff\xc2\x44\x8a (1 found)
0x140007aa4: add cl, byte [rax-0x2F] ; cli ; mov  [rcx+0x48], edx ; mov qword [rcx+0x40], rax ; ret ; \x02\x48\xd1\xfa\x89\x51\x48\x48\x89\x41\x40\xc3 (1 found)
0x140007b44: add cl, byte [rax-0x2F] ; cli ; mov  [rcx+0x48], edx ; mov qword [rcx+0x40], rax ; ret ; \x02\x48\xd1\xfa\x89\x51\x48\x48\x89\x41\x40\xc3 (1 found)
0x140007be4: add cl, byte [rax-0x2F] ; cli ; mov  [rcx+0x48], edx ; mov qword [rcx+0x40], rax ; ret ; \x02\x48\xd1\xfa\x89\x51\x48\x48\x89\x41\x40\xc3 (1 found)
0x140008068: add cl, byte [rax-0x2F] ; cli ; mov  [rcx+0x48], edx ; mov qword [rcx+0x40], rax ; ret ; \x02\x48\xd1\xfa\x89\x51\x48\x48\x89\x41\x40\xc3 (1 found)
0x140008108: add cl, byte [rax-0x2F] ; cli ; mov  [rcx+0x48], edx ; mov qword [rcx+0x40], rax ; ret ; \x02\x48\xd1\xfa\x89\x51\x48\x48\x89\x41\x40\xc3 (1 found)
0x1400081a8: add cl, byte [rax-0x2F] ; cli ; mov  [rcx+0x48], edx ; mov qword [rcx+0x40], rax ; ret ; \x02\x48\xd1\xfa\x89\x51\x48\x48\x89\x41\x40\xc3 (1 found)
0x1400076bb: add cl, byte [rax-0x2F] ; stc ; mov  [r8+0x48], ecx ; mov qword [r8+0x40], rax ; ret ; \x02\x48\xd1\xf9\x41\x89\x48\x48\x49\x89\x40\x40\xc3 (1 found)
0x14000773f: add cl, byte [rax-0x2F] ; stc ; mov  [r8+0x48], ecx ; mov qword [r8+0x40], rax ; ret ; \x02\x48\xd1\xf9\x41\x89\x48\x48\x49\x89\x40\x40\xc3 (1 found)
0x1400077c3: add cl, byte [rax-0x2F] ; stc ; mov  [r8+0x48], ecx ; mov qword [r8+0x40], rax ; ret ; \x02\x48\xd1\xf9\x41\x89\x48\x48\x49\x89\x40\x40\xc3 (1 found)
0x140007c69: add cl, byte [rax-0x2F] ; stc ; mov  [r8+0x48], ecx ; mov qword [r8+0x40], rax ; ret ; \x02\x48\xd1\xf9\x41\x89\x48\x48\x49\x89\x40\x40\xc3 (1 found)
0x140007cf1: add cl, byte [rax-0x2F] ; stc ; mov  [r8+0x48], ecx ; mov qword [r8+0x40], rax ; ret ; \x02\x48\xd1\xf9\x41\x89\x48\x48\x49\x89\x40\x40\xc3 (1 found)
0x140007d79: add cl, byte [rax-0x2F] ; stc ; mov  [r8+0x48], ecx ; mov qword [r8+0x40], rax ; ret ; \x02\x48\xd1\xf9\x41\x89\x48\x48\x49\x89\x40\x40\xc3 (1 found)
0x14000ee5a: add cl, byte [rax-0x75] ; retn 0xC148 ; \x02\x48\x8b\xc2\x48\xc1 (1 found)
0x140014d0c: add cl, byte [rax-0x75] ; retn 0xC148 ; \x02\x48\x8b\xc2\x48\xc1 (1 found)
0x14000bbdd: add cl, byte [rax-0x7D] ; ret ; \x02\x48\x83\xc3 (1 found)
0x14000d008: add cl, byte [rax-0x7D] ; retn 0x4408 ; \x02\x48\x83\xc2\x08\x44 (1 found)
0x14000d0a9: add cl, byte [rax-0x7D] ; retn 0x4808 ; \x02\x48\x83\xc2\x08\x48 (1 found)
0x14000cca0: add cl, byte [rax-0x7D] ; retn 0x4902 ; \x02\x48\x83\xc2\x02\x49 (1 found)
0x1400038d2: add cl, byte [rcx+0x3B] ; retn 0x0B74 ; \x02\x49\x3b\xc2\x74\x0b (1 found)
0x140015956: add cl, byte [rcx-0x74B70001] ; ret ; \x02\x89\xff\xff\x48\x8b\xc3 (1 found)
0x14001b8f8: add cl, byte [rdi] ; mov bh, 0x4A ; or byte [rcx+rcx*4+0x00], cl ; mov word [rax+0x08], cx ; ret ; \x02\x0f\xb7\x4a\x08\x4c\x89\x00\x66\x89\x48\x08\xc3 (1 found)
0x14001b907: add cl, byte [rdi] ; mov dh, 0x4A ; or byte [rcx+rcx*4+0x00], cl ; mov byte [rax+0x08], cl ; ret ; \x02\x0f\xb6\x4a\x08\x4c\x89\x00\x88\x48\x08\xc3 (1 found)
0x14000fe09: add cl, byte [rdi] ; mov dh, 0xC1 ; ret ; \x02\x0f\xb6\xc1\xc3 (1 found)
0x14000edc4: add cl, byte [rdi] ; retn 0x4688 ; \x02\x0f\x48\xc2\x88\x46 (1 found)
0x14001b95f: add dh, al ; movdqu  [rcx], xmm1 ; movdqu  [rcx+r8-0x10], xmm2 ; ret ; \x02\xf0\xf3\x0f\x7f\x09\xf3\x42\x0f\x7f\x54\x01\xf0\xc3 (1 found)
0x1400054ca: add dh, al ; or byte [r8], al ; add rsp, 0x20 ; pop rbx ; ret ; \x00\xc6\x43\x08\x00\x48\x83\xc4\x20\x5b\xc3 (1 found)
0x1400184db: add dh, bh ; inc  [rbp-0x72DE8B3E] ; add  [rax], 0x85FFFC00 ; retn 0x1F75 ; \x00\xfe\xff\x85\xc2\x74\x21\x8d\x81\x00\x00\xfc\xff\x85\xc2\x75\x1f (1 found)
0x140015889: add dh, byte [rax+0x5C8B4801] ; and al, 0x30 ; mov rsi, qword [rsp+0x38] ; add rsp, 0x20 ; pop rdi ; ret ; \x02\xb0\x01\x48\x8b\x5c\x24\x30\x48\x8b\x74\x24\x38\x48\x83\xc4\x20\x5f\xc3 (1 found)
0x14001a514: add dh, byte [rbp+rax+0x41] ; bts ecx, 0x13 ; mov eax, r9d ; add rsp, 0x20 ; pop rbx ; ret ; \x02\x74\x05\x41\x0f\xba\xe9\x13\x41\x8b\xc1\x48\x83\xc4\x20\x5b\xc3 (1 found)
0x14001b08f: add dh, byte [rbx] ; ror byte [rax-0x75], 0x5C ; and al, 0x30 ; add rsp, 0x20 ; pop rdi ; ret ; \x02\x33\xc0\x48\x8b\x5c\x24\x30\x48\x83\xc4\x20\x5f\xc3 (1 found)
0x140004cf5: add dh, dh ; ret ; \x00\xf6\xc3 (1 found)
0x140004d39: add dh, dh ; ret ; \x00\xf6\xc3 (1 found)
0x14000f6c1: add dh, dh ; ret ; \x00\xf6\xc3 (1 found)
0x14001a4fd: add dh, dh ; ret ; \x02\xf6\xc3 (1 found)
0x14001ad42: add dh, dh ; retn 0x7420 ; \x02\xf6\xc2\x20\x74 (1 found)
0x14001a824: add dl, dh ; movups xmm0,  [rsp+0x40] ; add rsp, 0x50 ; pop rbx ; ret ; \x00\xf2\x0f\x10\x44\x24\x40\x48\x83\xc4\x50\x5b\xc3 (1 found)
0x14000ed51: add eax,  [rax+0x02] ; aad 0xFE ; retn 0x1188 ; \x03\x40\x02\xd5\xfe\xc2\x88\x11 (1 found)
0x140015fa1: add eax,  [rax] ; add byte [rbp-0x75], al ; retn 0x6349 ; \x03\x00\x00\x45\x8b\xc2\x49\x63 (1 found)
0x140013a29: add eax,  [rax] ; add ch, bh ; mov eax, ebx ; add rsp, 0x40 ; pop rbx ; ret ; \x03\x00\x00\xfd\x8b\xc3\x48\x83\xc4\x40\x5b\xc3 (1 found)
0x140011049: add eax,  [rax] ; add ch, bh ; movzx eax, dx ; add rsp, 0x58 ; ret ; \x03\x00\x00\xfd\x0f\xb7\xc2\x48\x83\xc4\x58\xc3 (1 found)
0x140007695: add eax,  [rcx-0x73] ; jmp qword [rsi+0x41] ; \x03\x41\x8d\x42\xff\x66\x41 (1 found)
0x140007719: add eax,  [rcx-0x73] ; jmp qword [rsi+0x41] ; \x03\x41\x8d\x42\xff\x66\x41 (1 found)
0x14000779d: add eax,  [rcx-0x73] ; jmp qword [rsi+0x41] ; \x03\x41\x8d\x42\xff\x66\x41 (1 found)
0x140007c43: add eax,  [rcx-0x73] ; jmp qword [rsi+0x41] ; \x03\x41\x8d\x42\xff\x66\x41 (1 found)
0x140007ccb: add eax,  [rcx-0x73] ; jmp qword [rsi+0x41] ; \x03\x41\x8d\x42\xff\x66\x41 (1 found)
0x140007d53: add eax,  [rcx-0x73] ; jmp qword [rsi+0x41] ; \x03\x41\x8d\x42\xff\x66\x41 (1 found)
0x140015c18: add eax, 0x000076EB ; call r8 ; \x05\xeb\x76\x00\x00\x41\xff\xd0 (1 found)
0x140019a1b: add eax, 0x0000A3D0 ; vaddsd xmm0, xmm0, xmm2 ; vmovdqa xmm6,  [rsp+0x20] ; add rsp, 0x58 ; ret ; \x05\xd0\xa3\x00\x00\xc5\xfb\x58\xc2\xc5\xf9\x6f\x74\x24\x20\x48\x83\xc4\x58\xc3 (1 found)
0x1400198d4: add eax, 0x0000A487 ; movq xmm0, xmm0 ; nop ; movdqa xmm6,  [rsp+0x20] ; add rsp, 0x58 ; ret ; \x05\x87\xa4\x00\x00\x66\x48\x0f\x6e\xc0\x66\x90\x66\x0f\x6f\x74\x24\x20\x48\x83\xc4\x58\xc3 (1 found)
0x1400195dc: add eax, 0x0000A747 ; ret ; \x05\x47\xa7\x00\x00\xc3 (1 found)
0x14001aaa3: add eax, 0x00011350 ; xor eax, eax ; add rsp, 0x10 ; pop rbx ; ret ; \x05\x50\x13\x01\x00\x33\xc0\x48\x83\xc4\x10\x5b\xc3 (1 found)
0x14001aa9c: add eax, 0x00011353 ; mov  [0x000000014002BDF8], r8d ; xor eax, eax ; add rsp, 0x10 ; pop rbx ; ret ; \x05\x53\x13\x01\x00\x44\x89\x05\x50\x13\x01\x00\x33\xc0\x48\x83\xc4\x10\x5b\xc3 (1 found)
0x1400157ef: add eax, 0x000165C4 ; setne al ; add rsp, 0x28 ; ret ; \x05\xc4\x65\x01\x00\x0f\x95\xc0\x48\x83\xc4\x28\xc3 (1 found)
0x140014eb9: add eax, 0x00016EEA ; xor eax, eax ; ret ; \x05\xea\x6e\x01\x00\x33\xc0\xc3 (1 found)
0x14000538b: add eax, 0x00019030 ; cmovne rax, qword [rcx+0x08] ; ret ; \x05\x30\x90\x01\x00\x48\x0f\x45\x41\x08\xc3 (1 found)
0x140004c7e: add eax, 0x0001975D ; mov qword [rcx], rax ; mov rax, rcx ; ret ; \x05\x5d\x97\x01\x00\x48\x89\x01\x48\x8b\xc1\xc3 (1 found)
0x140004c73: add eax, 0x00019778 ; mov qword [rcx+0x08], rax ; lea rax, qword [0x000000014001E3E0] ; mov qword [rcx], rax ; mov rax, rcx ; ret ; \x05\x78\x97\x01\x00\x48\x89\x41\x08\x48\x8d\x05\x5d\x97\x01\x00\x48\x89\x01\x48\x8b\xc1\xc3 (1 found)
0x140004c5b: add eax, 0x00019780 ; mov qword [rbx], rax ; mov rax, rbx ; add rsp, 0x20 ; pop rbx ; ret ; \x05\x80\x97\x01\x00\x48\x89\x03\x48\x8b\xc3\x48\x83\xc4\x20\x5b\xc3 (1 found)
0x14000de60: add eax, 0x0001C19B ; mov qword [rcx], rax ; mov qword [rcx+0x08], rax ; mov qword [rcx+0x10], rax ; xor eax, eax ; ret ; \x05\x9b\xc1\x01\x00\x48\x89\x01\x48\x89\x41\x08\x48\x89\x41\x10\x33\xc0\xc3 (1 found)
0x14000debe: add eax, 0x0001C2DD ; mov qword [0x000000014002B7C0], rax ; mov al, 0x01 ; ret ; \x05\xdd\xc2\x01\x00\x48\x89\x05\xf6\xd8\x01\x00\xb0\x01\xc3 (1 found)
0x14000dec5: add eax, 0x0001D8F6 ; mov al, 0x01 ; ret ; \x05\xf6\xd8\x01\x00\xb0\x01\xc3 (1 found)
0x14000daaa: add eax, 0x0001DA79 ; ret ; \x05\x79\xda\x01\x00\xc3 (1 found)
0x14000da75: add eax, 0x0001DAAA ; nop ; ret ; \x05\xaa\xda\x01\x00\x90\xc3 (1 found)
0x14000d9d2: add eax, 0x0001DB49 ; ret ; \x05\x49\xdb\x01\x00\xc3 (1 found)
0x14000d94e: add eax, 0x0001DBA5 ; ret ; \x05\xa5\xdb\x01\x00\xc3 (1 found)
0x14000d956: add eax, 0x0001DBAD ; ret ; \x05\xad\xdb\x01\x00\xc3 (1 found)
0x14000d939: add eax, 0x0001DBDA ; mov al, 0x01 ; add rsp, 0x28 ; ret ; \x05\xda\xdb\x01\x00\xb0\x01\x48\x83\xc4\x28\xc3 (1 found)
0x14000d725: add eax, 0x0001DDAE ; mov qword [0x000000014002B4E0], rax ; add rsp, 0x28 ; ret ; \x05\xae\xdd\x01\x00\x48\x89\x05\xaf\xdd\x01\x00\x48\x83\xc4\x28\xc3 (1 found)
0x14000d72c: add eax, 0x0001DDAF ; add rsp, 0x28 ; ret ; \x05\xaf\xdd\x01\x00\x48\x83\xc4\x28\xc3 (1 found)
0x14000d699: add eax, 0x0001DE3A ; add rsp, 0x28 ; ret ; \x05\x3a\xde\x01\x00\x48\x83\xc4\x28\xc3 (1 found)
0x14000cf3d: add eax, 0x0001E36A ; ret ; \x05\x6a\xe3\x01\x00\xc3 (1 found)
0x14000d7ed: add eax, 0x0001E5B6 ; nop ; mov  [rcx], eax ; xor eax, eax ; add rsp, 0x28 ; ret ; \x05\xb6\xe5\x01\x00\x90\x89\x01\x33\xc0\x48\x83\xc4\x28\xc3 (1 found)
0x14000248f: add eax, 0x00027BB8 ; sete al ; ret ; \x05\xb8\x7b\x02\x00\x0f\x94\xc0\xc3 (1 found)
0x140002421: add eax, 0x00027C1A ; add rsp, 0x30 ; pop rbp ; ret ; \x05\x1a\x7c\x02\x00\x48\x83\xc4\x30\x5d\xc3 (1 found)
0x14000246a: add eax, 0x00028C91 ; ret ; \x05\x91\x8c\x02\x00\xc3 (1 found)
0x140002224: add eax, 0x00028EB7 ; mov byte [0x000000014002B0B1], 0x01 ; mov al, 0x01 ; add rsp, 0x20 ; pop rbx ; ret ; \x05\xb7\x8e\x02\x00\xc6\x05\x81\x8e\x02\x00\x01\xb0\x01\x48\x83\xc4\x20\x5b\xc3 (1 found)
0x140002a13: add eax, 0x00044230 ; setne al ; ret ; \x05\x30\x42\x04\x00\x0f\x95\xc0\xc3 (1 found)
0x1400024a2: add eax, 0x000447A9 ; ret ; \x05\xa9\x47\x04\x00\xc3 (1 found)
0x14000249a: add eax, 0x000447B9 ; ret ; \x05\xb9\x47\x04\x00\xc3 (1 found)
0x140001002: add eax, 0x00045C59 ; ret ; \x05\x59\x5c\x04\x00\xc3 (1 found)
0x140007881: add eax, 0x02 ; mov  [r9+0x48], r8d ; mov qword [r9+0x40], rax ; ret ; \x83\xc0\x02\x45\x89\x41\x48\x49\x89\x41\x40\xc3 (1 found)
0x140007941: add eax, 0x02 ; mov  [r9+0x48], r8d ; mov qword [r9+0x40], rax ; ret ; \x83\xc0\x02\x45\x89\x41\x48\x49\x89\x41\x40\xc3 (1 found)
0x140007a01: add eax, 0x02 ; mov  [r9+0x48], r8d ; mov qword [r9+0x40], rax ; ret ; \x83\xc0\x02\x45\x89\x41\x48\x49\x89\x41\x40\xc3 (1 found)
0x140007e3f: add eax, 0x02 ; mov  [r9+0x48], r8d ; mov qword [r9+0x40], rax ; ret ; \x83\xc0\x02\x45\x89\x41\x48\x49\x89\x41\x40\xc3 (1 found)
0x140007f03: add eax, 0x02 ; mov  [r9+0x48], r8d ; mov qword [r9+0x40], rax ; ret ; \x83\xc0\x02\x45\x89\x41\x48\x49\x89\x41\x40\xc3 (1 found)
0x140007fc7: add eax, 0x02 ; mov  [r9+0x48], r8d ; mov qword [r9+0x40], rax ; ret ; \x83\xc0\x02\x45\x89\x41\x48\x49\x89\x41\x40\xc3 (1 found)
0x1400076b9: add eax, 0x02 ; sar rcx, 1 ; mov  [r8+0x48], ecx ; mov qword [r8+0x40], rax ; ret ; \x83\xc0\x02\x48\xd1\xf9\x41\x89\x48\x48\x49\x89\x40\x40\xc3 (1 found)
0x14000773d: add eax, 0x02 ; sar rcx, 1 ; mov  [r8+0x48], ecx ; mov qword [r8+0x40], rax ; ret ; \x83\xc0\x02\x48\xd1\xf9\x41\x89\x48\x48\x49\x89\x40\x40\xc3 (1 found)
0x1400077c1: add eax, 0x02 ; sar rcx, 1 ; mov  [r8+0x48], ecx ; mov qword [r8+0x40], rax ; ret ; \x83\xc0\x02\x48\xd1\xf9\x41\x89\x48\x48\x49\x89\x40\x40\xc3 (1 found)
0x140007c67: add eax, 0x02 ; sar rcx, 1 ; mov  [r8+0x48], ecx ; mov qword [r8+0x40], rax ; ret ; \x83\xc0\x02\x48\xd1\xf9\x41\x89\x48\x48\x49\x89\x40\x40\xc3 (1 found)
0x140007cef: add eax, 0x02 ; sar rcx, 1 ; mov  [r8+0x48], ecx ; mov qword [r8+0x40], rax ; ret ; \x83\xc0\x02\x48\xd1\xf9\x41\x89\x48\x48\x49\x89\x40\x40\xc3 (1 found)
0x140007d77: add eax, 0x02 ; sar rcx, 1 ; mov  [r8+0x48], ecx ; mov qword [r8+0x40], rax ; ret ; \x83\xc0\x02\x48\xd1\xf9\x41\x89\x48\x48\x49\x89\x40\x40\xc3 (1 found)
0x140007aa2: add eax, 0x02 ; sar rdx, 1 ; mov  [rcx+0x48], edx ; mov qword [rcx+0x40], rax ; ret ; \x83\xc0\x02\x48\xd1\xfa\x89\x51\x48\x48\x89\x41\x40\xc3 (1 found)
0x140007b42: add eax, 0x02 ; sar rdx, 1 ; mov  [rcx+0x48], edx ; mov qword [rcx+0x40], rax ; ret ; \x83\xc0\x02\x48\xd1\xfa\x89\x51\x48\x48\x89\x41\x40\xc3 (1 found)
0x140007be2: add eax, 0x02 ; sar rdx, 1 ; mov  [rcx+0x48], edx ; mov qword [rcx+0x40], rax ; ret ; \x83\xc0\x02\x48\xd1\xfa\x89\x51\x48\x48\x89\x41\x40\xc3 (1 found)
0x140008066: add eax, 0x02 ; sar rdx, 1 ; mov  [rcx+0x48], edx ; mov qword [rcx+0x40], rax ; ret ; \x83\xc0\x02\x48\xd1\xfa\x89\x51\x48\x48\x89\x41\x40\xc3 (1 found)
0x140008106: add eax, 0x02 ; sar rdx, 1 ; mov  [rcx+0x48], edx ; mov qword [rcx+0x40], rax ; ret ; \x83\xc0\x02\x48\xd1\xfa\x89\x51\x48\x48\x89\x41\x40\xc3 (1 found)
0x1400081a6: add eax, 0x02 ; sar rdx, 1 ; mov  [rcx+0x48], edx ; mov qword [rcx+0x40], rax ; ret ; \x83\xc0\x02\x48\xd1\xfa\x89\x51\x48\x48\x89\x41\x40\xc3 (1 found)
0x14001c560: add eax, 0x0FC00000 ; xchg eax, esp ; ror  [rbx-0x3B7CB73F], 0x20 ; pop rbp ; ret ; \x05\x00\x00\xc0\x0f\x94\xc1\x8b\xc1\x48\x83\xc4\x20\x5d\xc3 (1 found)
0x14000316a: add eax, 0x20 ; add rsp, 0x28 ; ret ; \x83\xc0\x20\x48\x83\xc4\x28\xc3 (1 found)
0x14000e7b4: add eax, 0x20 ; add rsp, 0x28 ; ret ; \x83\xc0\x20\x48\x83\xc4\x28\xc3 (1 found)
0x14000e794: add eax, 0x24 ; add rsp, 0x28 ; ret ; \x83\xc0\x24\x48\x83\xc4\x28\xc3 (1 found)
0x14000317e: add eax, 0x28 ; add rsp, 0x28 ; ret ; \x83\xc0\x28\x48\x83\xc4\x28\xc3 (1 found)
0x140003269: add eax, 0x28C48348 ; ret ; \x05\x48\x83\xc4\x28\xc3 (1 found)
0x14001aac7: add eax, 0x48000000 ; add esp, 0x38 ; ret ; \x05\x00\x00\x00\x48\x83\xc4\x38\xc3 (1 found)
0x14000117b: add eax, 0x480000A4 ; mov esi,  [rsp+0x38] ; add rsp, 0x40 ; pop rbx ; ret ; \x05\xa4\x00\x00\x48\x8b\x74\x24\x38\x48\x83\xc4\x40\x5b\xc3 (1 found)
0x140001763: add eax, 0x8B440000 ; ret ; \x05\x00\x00\x44\x8b\xc3 (1 found)
0x14001ba96: add eax, 0x9A9C8B47 ; push rax ; add al, byte [fs:rax] ; add r11, r10 ; jmp r11 ; \x05\x47\x8b\x9c\x9a\x50\x64\x02\x00\x4d\x03\xda\x41\xff\xe3 (1 found)
0x14000e09b: add eax, 0xC38B0000 ; add rsp, 0x20 ; pop rbx ; ret ; \x05\x00\x00\x8b\xc3\x48\x83\xc4\x20\x5b\xc3 (1 found)
0x1400031e7: add eax, 0xCC000000 ; int3 ; int3 ; int3 ; int3 ; ret ; \x05\x00\x00\x00\xcc\xcc\xcc\xcc\xcc\xc3 (1 found)
0x140017111: add eax, 0xE1E90000 ; add byte [rax], al ; add byte [rbx], dh ; fild  [rbp-0x75] ; retn 0x8545 ; \x05\x00\x00\xe9\xe1\x00\x00\x00\x33\xdb\x45\x8b\xc2\x45\x85 (1 found)
0x140016cab: add eax, 0xE4E90000 ; add byte [rax], al ; add byte [rbp+0x33], al ; fild  [rbp-0x75] ; retn 0x8545 ; \x05\x00\x00\xe9\xe4\x00\x00\x00\x45\x33\xdb\x45\x8b\xc2\x45\x85 (1 found)
0x14000ce3a: add eax, 0xEBFFC883 ; retn 0x8B48 ; \x05\x83\xc8\xff\xeb\xc2\x48\x8b (1 found)
0x14000ec22: add eax, 0xFF480288 ; ret ; \x05\x88\x02\x48\xff\xc3 (1 found)
0x1400030f4: add eax, eax ; ret ; \x03\xc0\xc3 (1 found)
0x1400030f1: add eax, ecx ; add rax, r8 ; ret ; \x03\xc1\x49\x03\xc0\xc3 (1 found)
0x140002a83: add eax, ecx ; cmp word [r8], dx ; cmove r9, r8 ; mov rax, r9 ; ret ; \x03\xc1\x66\x41\x39\x10\x4d\x0f\x44\xc8\x49\x8b\xc1\xc3 (1 found)
0x14000b9ba: add eax, ecx ; ret ; \x03\xc1\xc3 (1 found)
0x14001b7f1: add eax, esi ; movdqu  [rax], xmm0 ; ret ; \x01\xf0\xf3\x0f\x7f\x00\xc3 (1 found)
0x14001bdb0: add eax, esi ; movdqu  [rax], xmm0 ; ret ; \x01\xf0\xf3\x0f\x7f\x00\xc3 (1 found)
0x14001b533: add eax, esi ; ret ; \x01\xf0\xc3 (1 found)
0x14001b96a: add eax, esi ; ret ; \x01\xf0\xc3 (1 found)
0x140002f8d: add eax, esp ; call r8 ; \x03\xc4\x41\xff\xd0 (1 found)
0x140002e42: add eax, esp ; lea rcx, qword [rsp+0x30] ; call rax ; \x03\xc4\x48\x8d\x4c\x24\x30\xff\xd0 (1 found)
0x14001b709: add eax, esp ; vmovdqu  [rax], ymm0 ; sfence ; vzeroupper ; ret ; \x01\xe0\xc5\xfe\x7f\x00\x0f\xae\xf8\xc5\xf8\x77\xc3 (1 found)
0x14001bc54: add eax, esp ; vmovdqu  [rax], ymm0 ; sfence ; vzeroupper ; ret ; \x01\xe0\xc5\xfe\x7f\x00\x0f\xae\xf8\xc5\xf8\x77\xc3 (1 found)
0x14001b649: add eax, esp ; vmovdqu  [rax], ymm0 ; vzeroupper ; ret ; \x01\xe0\xc5\xfe\x7f\x00\xc5\xf8\x77\xc3 (1 found)
0x14001bb24: add eax, esp ; vmovdqu  [rax], ymm0 ; vzeroupper ; ret ; \x01\xe0\xc5\xfe\x7f\x00\xc5\xf8\x77\xc3 (1 found)
0x14001b708: add eax, r12d ; vmovdqu  [rax], ymm0 ; sfence ; vzeroupper ; ret ; \x44\x01\xe0\xc5\xfe\x7f\x00\x0f\xae\xf8\xc5\xf8\x77\xc3 (1 found)
0x14001b648: add eax, r12d ; vmovdqu  [rax], ymm0 ; vzeroupper ; ret ; \x44\x01\xe0\xc5\xfe\x7f\x00\xc5\xf8\x77\xc3 (1 found)
0x14001b7f0: add eax, r14d ; movdqu  [rax], xmm0 ; ret ; \x44\x01\xf0\xf3\x0f\x7f\x00\xc3 (1 found)
0x14001b532: add eax, r14d ; ret ; \x44\x01\xf0\xc3 (1 found)
0x14000d949: add ebx, eax ; int3 ; lea rax, qword [0x000000014002B4F8] ; ret ; \x01\xc3\xcc\x48\x8d\x05\xa5\xdb\x01\x00\xc3 (1 found)
0x14000def5: add ebx, eax ; int3 ; mov al, 0x01 ; ret ; \x01\xc3\xcc\xb0\x01\xc3 (1 found)
0x14000df0d: add ebx, eax ; int3 ; mov al, 0x01 ; ret ; \x01\xc3\xcc\xb0\x01\xc3 (1 found)
0x14000245d: add ebx, eax ; int3 ; retn 0x0000 ; \x01\xc3\xcc\xc2\x00\x00 (1 found)
0x140005c59: add ebx, eax ; xor al, al ; ret ; \x01\xc3\x32\xc0\xc3 (1 found)
0x140005365: add ebx, ebp ; out 0x48, eax ; mov eax, edx ; mov rdx, r8 ; jmp rax ; \x01\xeb\xe7\x48\x8b\xc2\x49\x8b\xd0\x48\xff\xe0 (1 found)
0x14000d8b9: add ebx, ebp ; xor byte [rax-0x77BD7F37], al ; retn 0x4A38 ; \x01\xeb\x30\x80\xc9\x80\x42\x88\x4c\xc2\x38\x4a (1 found)
0x14001b602: add ebx, edx ; jmp r11 ; \x03\xda\x41\xff\xe3 (1 found)
0x14001b6c2: add ebx, edx ; jmp r11 ; \x03\xda\x41\xff\xe3 (1 found)
0x14001b7b6: add ebx, edx ; jmp r11 ; \x03\xda\x41\xff\xe3 (1 found)
0x14001baa0: add ebx, edx ; jmp r11 ; \x03\xda\x41\xff\xe3 (1 found)
0x14001bbd0: add ebx, edx ; jmp r11 ; \x03\xda\x41\xff\xe3 (1 found)
0x14001bd44: add ebx, edx ; jmp r11 ; \x03\xda\x41\xff\xe3 (1 found)
0x14001b52d: add ebx, esi ; movq qword [rcx+r8-0x10], mm0 ; ret ; \x01\xf3\x42\x0f\x7f\x44\x01\xf0\xc3 (1 found)
0x14001166f: add ecx,  [0x00000000C8C515BD] ; add ecx,  [rax-0x01] ; ret ; \x03\x0d\x48\xff\xc3\x88\x03\x48\xff\xc3 (1 found)
0x140001ad6: add ecx,  [rax-0x01] ; ret ; \x03\x48\xff\xc3 (1 found)
0x14000f07c: add ecx,  [rax-0x01] ; ret ; \x03\x48\xff\xc3 (1 found)
0x14000f47e: add ecx,  [rax-0x01] ; ret ; \x03\x48\xff\xc3 (1 found)
0x140011675: add ecx,  [rax-0x01] ; ret ; \x03\x48\xff\xc3 (1 found)
0x140015ddd: add ecx,  [rax-0x01] ; ret ; \x03\x48\xff\xc3 (1 found)
0x14001787d: add ecx,  [rax-0x01] ; ret ; \x03\x48\xff\xc3 (1 found)
0x140018e0b: add ecx,  [rax-0x75] ; pop rsp ; and al, 0x30 ; add rsp, 0x20 ; pop rdi ; ret ; \x03\x48\x8b\x5c\x24\x30\x48\x83\xc4\x20\x5f\xc3 (1 found)
0x140004c62: add ecx,  [rax-0x75] ; ret ; \x03\x48\x8b\xc3 (1 found)
0x1400115c2: add ecx,  [rax-0x75] ; ret ; \x03\x48\x8b\xc3 (1 found)
0x140011950: add ecx,  [rax-0x75] ; ret ; \x03\x48\x8b\xc3 (1 found)
0x14000d9ac: add ecx,  [rax-0x7D] ; ret ; \x03\x48\x83\xc3 (1 found)
0x140011789: add ecx,  [rax-0x7D] ; ret ; \x03\x48\x83\xc3 (1 found)
0x14001be95: add ecx,  [rdi] ; adc  [rax], edx ; movups  [rcx], xmm0 ; ret ; \x03\x0f\x11\x10\x0f\x11\x01\xc3 (1 found)
0x14000e6f4: add ecx, 0xFFFFFF44 ; mov eax, 0x00000016 ; cmp ecx, 0x0E ; cmovbe eax, r8d ; ret ; \x81\xc1\x44\xff\xff\xff\xb8\x16\x00\x00\x00\x83\xf9\x0e\x41\x0f\x46\xc0\xc3 (1 found)
0x14001b4a1: add ecx, eax ; mov r9d,  [r10+r8*4+0x00026360] ; add r9, r10 ; jmp r9 ; \x03\xc8\x47\x8b\x8c\x82\x60\x63\x02\x00\x4d\x03\xca\x41\xff\xe1 (1 found)
0x14001b3ac: add ecx, ebx ; test edx, edx ; cmovne r9, rcx ; mov rax, r9 ; mov rbx, qword [rsp+0x08] ; ret ; \x03\xcb\x85\xd2\x4c\x0f\x45\xc9\x49\x8b\xc1\x48\x8b\x5c\x24\x08\xc3 (1 found)
0x14001b4ac: add ecx, edx ; jmp r9 ; \x03\xca\x41\xff\xe1 (1 found)
0x14001b859: add ecx, edx ; jmp r9 ; \x03\xca\x41\xff\xe1 (1 found)
0x14000e78d: add edi,  [rdx+0x04EB0001] ; add rax, 0x24 ; add rsp, 0x28 ; ret ; \x03\xba\x01\x00\xeb\x04\x48\x83\xc0\x24\x48\x83\xc4\x28\xc3 (1 found)
0x140002cee: add edx, eax ; cmp byte [rdx], r10L ; cmove r9, rdx ; mov rax, r9 ; ret ; \x03\xd0\x44\x38\x12\x4c\x0f\x44\xca\x49\x8b\xc1\xc3 (1 found)
0x14001a50a: add esi, esi ; ret ; \x01\xf6\xc3 (1 found)
0x140017ab4: add esi, esi ; retn 0x7401 ; \x03\xf6\xc2\x01\x74 (1 found)
0x14001b0de: add esi, esi ; retn 0x7401 ; \x01\xf6\xc2\x01\x74 (1 found)
0x14001b391: add esp,  [rsi+0x0F] ; xlatb ; fldenv  [rsi+0x0F] ; xlatb ; rol byte [rbp-0x742C8B25], 1 ; ret ; \x03\x66\x0f\xd7\xd9\x66\x0f\xd7\xd0\x85\xdb\x74\xd3\x8b\xc3 (1 found)
0x14000b57a: add esp, 0x000000B0 ; pop rdi ; pop rbx ; pop rbp ; ret ; \x81\xc4\xb0\x00\x00\x00\x5f\x5b\x5d\xc3 (1 found)
0x14000b69e: add esp, 0x000000B0 ; pop rdi ; pop rbx ; pop rbp ; ret ; \x81\xc4\xb0\x00\x00\x00\x5f\x5b\x5d\xc3 (1 found)
0x14000cbbb: add esp, 0x000000B0 ; pop rdi ; pop rbx ; pop rbp ; ret ; \x81\xc4\xb0\x00\x00\x00\x5f\x5b\x5d\xc3 (1 found)
0x140003b4b: add esp, 0x000000E0 ; pop rbp ; ret ; \x81\xc4\xe0\x00\x00\x00\x5d\xc3 (1 found)
0x14000c651: add esp, 0x00000450 ; pop r14 ; pop r13 ; pop r12 ; ret ; \x81\xc4\x50\x04\x00\x00\x41\x5e\x41\x5d\x41\x5c\xc3 (1 found)
0x1400025f0: add esp, 0x000005C0 ; pop rbp ; ret ; \x81\xc4\xc0\x05\x00\x00\x5d\xc3 (1 found)
0x14001ab8c: add esp, 0x08 ; ret ; \x83\xc4\x08\xc3 (1 found)
0x140002a06: add esp, 0x10 ; pop r14 ; pop rdi ; pop rbp ; ret ; \x83\xc4\x10\x41\x5e\x5f\x5d\xc3 (1 found)
0x14001aaab: add esp, 0x10 ; pop rbx ; ret ; \x83\xc4\x10\x5b\xc3 (1 found)
0x14001b25a: add esp, 0x10 ; ret ; \x83\xc4\x10\xc3 (1 found)
0x1400022d8: add esp, 0x18 ; ret ; \x83\xc4\x18\xc3 (1 found)
0x140004090: add esp, 0x20 ; pop r14 ; ret ; \x83\xc4\x20\x41\x5e\xc3 (1 found)
0x1400049e7: add esp, 0x20 ; pop r14 ; ret ; \x83\xc4\x20\x41\x5e\xc3 (1 found)
0x1400054a7: add esp, 0x20 ; pop r14 ; ret ; \x83\xc4\x20\x41\x5e\xc3 (1 found)
0x14000b9a5: add esp, 0x20 ; pop r14 ; ret ; \x83\xc4\x20\x41\x5e\xc3 (1 found)
0x14001082e: add esp, 0x20 ; pop r14 ; ret ; \x83\xc4\x20\x41\x5e\xc3 (1 found)
0x14001229c: add esp, 0x20 ; pop r14 ; ret ; \x83\xc4\x20\x41\x5e\xc3 (1 found)
0x140013026: add esp, 0x20 ; pop r14 ; ret ; \x83\xc4\x20\x41\x5e\xc3 (1 found)
0x140014c05: add esp, 0x20 ; pop r14 ; ret ; \x83\xc4\x20\x41\x5e\xc3 (1 found)
0x140014e28: add esp, 0x20 ; pop r14 ; ret ; \x83\xc4\x20\x41\x5e\xc3 (1 found)
0x14001b1f5: add esp, 0x20 ; pop r14 ; ret ; \x83\xc4\x20\x41\x5e\xc3 (1 found)
0x14000f610: add esp, 0x20 ; pop r15 ; pop r14 ; pop r12 ; ret ; \x83\xc4\x20\x41\x5f\x41\x5e\x41\x5c\xc3 (1 found)
0x14001a3d9: add esp, 0x20 ; pop r15 ; pop r14 ; pop r12 ; ret ; \x83\xc4\x20\x41\x5f\x41\x5e\x41\x5c\xc3 (1 found)
0x14001a7c0: add esp, 0x20 ; pop r15 ; pop r14 ; pop r12 ; ret ; \x83\xc4\x20\x41\x5f\x41\x5e\x41\x5c\xc3 (1 found)
0x140012ac4: add esp, 0x20 ; pop r15 ; pop r14 ; pop r13 ; ret ; \x83\xc4\x20\x41\x5f\x41\x5e\x41\x5d\xc3 (1 found)
0x14000b374: add esp, 0x20 ; pop r15 ; pop r14 ; pop rdi ; ret ; \x83\xc4\x20\x41\x5f\x41\x5e\x5f\xc3 (1 found)
0x14000b454: add esp, 0x20 ; pop r15 ; pop r14 ; pop rdi ; ret ; \x83\xc4\x20\x41\x5f\x41\x5e\x5f\xc3 (1 found)
0x14000dccf: add esp, 0x20 ; pop r15 ; pop r14 ; pop rdi ; ret ; \x83\xc4\x20\x41\x5f\x41\x5e\x5f\xc3 (1 found)
0x14000ddef: add esp, 0x20 ; pop r15 ; pop r14 ; pop rdi ; ret ; \x83\xc4\x20\x41\x5f\x41\x5e\x5f\xc3 (1 found)
0x14000f3a5: add esp, 0x20 ; pop r15 ; pop r14 ; pop rdi ; ret ; \x83\xc4\x20\x41\x5f\x41\x5e\x5f\xc3 (1 found)
0x140017d95: add esp, 0x20 ; pop r15 ; pop r14 ; pop rdi ; ret ; \x83\xc4\x20\x41\x5f\x41\x5e\x5f\xc3 (1 found)
0x14001aefb: add esp, 0x20 ; pop rbp ; ret ; \x83\xc4\x20\x5d\xc3 (1 found)
0x14001bec8: add esp, 0x20 ; pop rbp ; ret ; \x83\xc4\x20\x5d\xc3 (1 found)
0x14001c043: add esp, 0x20 ; pop rbp ; ret ; \x83\xc4\x20\x5d\xc3 (1 found)
0x14001c0df: add esp, 0x20 ; pop rbp ; ret ; \x83\xc4\x20\x5d\xc3 (1 found)
0x14001c102: add esp, 0x20 ; pop rbp ; ret ; \x83\xc4\x20\x5d\xc3 (1 found)
0x14001c149: add esp, 0x20 ; pop rbp ; ret ; \x83\xc4\x20\x5d\xc3 (1 found)
0x14001c1e2: add esp, 0x20 ; pop rbp ; ret ; \x83\xc4\x20\x5d\xc3 (1 found)
0x14001c45f: add esp, 0x20 ; pop rbp ; ret ; \x83\xc4\x20\x5d\xc3 (1 found)
0x14001c51a: add esp, 0x20 ; pop rbp ; ret ; \x83\xc4\x20\x5d\xc3 (1 found)
0x14001c546: add esp, 0x20 ; pop rbp ; ret ; \x83\xc4\x20\x5d\xc3 (1 found)
0x14001c56a: add esp, 0x20 ; pop rbp ; ret ; \x83\xc4\x20\x5d\xc3 (1 found)
0x140001df6: add esp, 0x20 ; pop rbx ; ret ; \x83\xc4\x20\x5b\xc3 (1 found)
0x140002233: add esp, 0x20 ; pop rbx ; ret ; \x83\xc4\x20\x5b\xc3 (1 found)
0x1400022fb: add esp, 0x20 ; pop rbx ; ret ; \x83\xc4\x20\x5b\xc3 (1 found)
0x140002324: add esp, 0x20 ; pop rbx ; ret ; \x83\xc4\x20\x5b\xc3 (1 found)
0x140002361: add esp, 0x20 ; pop rbx ; ret ; \x83\xc4\x20\x5b\xc3 (1 found)
0x1400030ca: add esp, 0x20 ; pop rbx ; ret ; \x83\xc4\x20\x5b\xc3 (1 found)
0x1400033e5: add esp, 0x20 ; pop rbx ; ret ; \x83\xc4\x20\x5b\xc3 (1 found)
0x14000341e: add esp, 0x20 ; pop rbx ; ret ; \x83\xc4\x20\x5b\xc3 (1 found)
0x1400037e1: add esp, 0x20 ; pop rbx ; ret ; \x83\xc4\x20\x5b\xc3 (1 found)
0x140003b89: add esp, 0x20 ; pop rbx ; ret ; \x83\xc4\x20\x5b\xc3 (1 found)
0x140003c1f: add esp, 0x20 ; pop rbx ; ret ; \x83\xc4\x20\x5b\xc3 (1 found)
0x140003c37: add esp, 0x20 ; pop rbx ; ret ; \x83\xc4\x20\x5b\xc3 (1 found)
0x140003d1c: add esp, 0x20 ; pop rbx ; ret ; \x83\xc4\x20\x5b\xc3 (1 found)
0x140003dca: add esp, 0x20 ; pop rbx ; ret ; \x83\xc4\x20\x5b\xc3 (1 found)
0x140004c67: add esp, 0x20 ; pop rbx ; ret ; \x83\xc4\x20\x5b\xc3 (1 found)
0x140004cb9: add esp, 0x20 ; pop rbx ; ret ; \x83\xc4\x20\x5b\xc3 (1 found)
0x140004fc6: add esp, 0x20 ; pop rbx ; ret ; \x83\xc4\x20\x5b\xc3 (1 found)
0x1400054d0: add esp, 0x20 ; pop rbx ; ret ; \x83\xc4\x20\x5b\xc3 (1 found)
0x14000ba16: add esp, 0x20 ; pop rbx ; ret ; \x83\xc4\x20\x5b\xc3 (1 found)
0x14000c192: add esp, 0x20 ; pop rbx ; ret ; \x83\xc4\x20\x5b\xc3 (1 found)
0x14000c1fd: add esp, 0x20 ; pop rbx ; ret ; \x83\xc4\x20\x5b\xc3 (1 found)
0x14000d1d4: add esp, 0x20 ; pop rbx ; ret ; \x83\xc4\x20\x5b\xc3 (1 found)
0x14000da6c: add esp, 0x20 ; pop rbx ; ret ; \x83\xc4\x20\x5b\xc3 (1 found)
0x14000df4c: add esp, 0x20 ; pop rbx ; ret ; \x83\xc4\x20\x5b\xc3 (1 found)
0x14000df97: add esp, 0x20 ; pop rbx ; ret ; \x83\xc4\x20\x5b\xc3 (1 found)
0x14000e0a1: add esp, 0x20 ; pop rbx ; ret ; \x83\xc4\x20\x5b\xc3 (1 found)
0x14000e203: add esp, 0x20 ; pop rbx ; ret ; \x83\xc4\x20\x5b\xc3 (1 found)
0x14000e256: add esp, 0x20 ; pop rbx ; ret ; \x83\xc4\x20\x5b\xc3 (1 found)
0x14000e2d6: add esp, 0x20 ; pop rbx ; ret ; \x83\xc4\x20\x5b\xc3 (1 found)
0x14000e752: add esp, 0x20 ; pop rbx ; ret ; \x83\xc4\x20\x5b\xc3 (1 found)
0x14000e775: add esp, 0x20 ; pop rbx ; ret ; \x83\xc4\x20\x5b\xc3 (1 found)
0x14000e7f3: add esp, 0x20 ; pop rbx ; ret ; \x83\xc4\x20\x5b\xc3 (1 found)
0x14000e851: add esp, 0x20 ; pop rbx ; ret ; \x83\xc4\x20\x5b\xc3 (1 found)
0x14000ea5c: add esp, 0x20 ; pop rbx ; ret ; \x83\xc4\x20\x5b\xc3 (1 found)
0x14000ea94: add esp, 0x20 ; pop rbx ; ret ; \x83\xc4\x20\x5b\xc3 (1 found)
0x14000eac8: add esp, 0x20 ; pop rbx ; ret ; \x83\xc4\x20\x5b\xc3 (1 found)
0x14000eb00: add esp, 0x20 ; pop rbx ; ret ; \x83\xc4\x20\x5b\xc3 (1 found)
0x14000fe54: add esp, 0x20 ; pop rbx ; ret ; \x83\xc4\x20\x5b\xc3 (1 found)
0x14000ff5c: add esp, 0x20 ; pop rbx ; ret ; \x83\xc4\x20\x5b\xc3 (1 found)
0x140010177: add esp, 0x20 ; pop rbx ; ret ; \x83\xc4\x20\x5b\xc3 (1 found)
0x140010447: add esp, 0x20 ; pop rbx ; ret ; \x83\xc4\x20\x5b\xc3 (1 found)
0x14001086a: add esp, 0x20 ; pop rbx ; ret ; \x83\xc4\x20\x5b\xc3 (1 found)
0x140010920: add esp, 0x20 ; pop rbx ; ret ; \x83\xc4\x20\x5b\xc3 (1 found)
0x140010b37: add esp, 0x20 ; pop rbx ; ret ; \x83\xc4\x20\x5b\xc3 (1 found)
0x140010e64: add esp, 0x20 ; pop rbx ; ret ; \x83\xc4\x20\x5b\xc3 (1 found)
0x140010f5d: add esp, 0x20 ; pop rbx ; ret ; \x83\xc4\x20\x5b\xc3 (1 found)
0x140011e91: add esp, 0x20 ; pop rbx ; ret ; \x83\xc4\x20\x5b\xc3 (1 found)
0x140014fc9: add esp, 0x20 ; pop rbx ; ret ; \x83\xc4\x20\x5b\xc3 (1 found)
0x140015037: add esp, 0x20 ; pop rbx ; ret ; \x83\xc4\x20\x5b\xc3 (1 found)
0x14001559a: add esp, 0x20 ; pop rbx ; ret ; \x83\xc4\x20\x5b\xc3 (1 found)
0x14001595e: add esp, 0x20 ; pop rbx ; ret ; \x83\xc4\x20\x5b\xc3 (1 found)
0x140017b1f: add esp, 0x20 ; pop rbx ; ret ; \x83\xc4\x20\x5b\xc3 (1 found)
0x140019452: add esp, 0x20 ; pop rbx ; ret ; \x83\xc4\x20\x5b\xc3 (1 found)
0x140019473: add esp, 0x20 ; pop rbx ; ret ; \x83\xc4\x20\x5b\xc3 (1 found)
0x14001951b: add esp, 0x20 ; pop rbx ; ret ; \x83\xc4\x20\x5b\xc3 (1 found)
0x14001a520: add esp, 0x20 ; pop rbx ; ret ; \x83\xc4\x20\x5b\xc3 (1 found)
0x14001af48: add esp, 0x20 ; pop rbx ; ret ; \x83\xc4\x20\x5b\xc3 (1 found)
0x14001b0f2: add esp, 0x20 ; pop rbx ; ret ; \x83\xc4\x20\x5b\xc3 (1 found)
0x1400026a8: add esp, 0x20 ; pop rdi ; ret ; \x83\xc4\x20\x5f\xc3 (1 found)
0x1400026ff: add esp, 0x20 ; pop rdi ; ret ; \x83\xc4\x20\x5f\xc3 (1 found)
0x14000273b: add esp, 0x20 ; pop rdi ; ret ; \x83\xc4\x20\x5f\xc3 (1 found)
0x14000313d: add esp, 0x20 ; pop rdi ; ret ; \x83\xc4\x20\x5f\xc3 (1 found)
0x140003332: add esp, 0x20 ; pop rdi ; ret ; \x83\xc4\x20\x5f\xc3 (1 found)
0x140003698: add esp, 0x20 ; pop rdi ; ret ; \x83\xc4\x20\x5f\xc3 (1 found)
0x1400036fc: add esp, 0x20 ; pop rdi ; ret ; \x83\xc4\x20\x5f\xc3 (1 found)
0x1400037b5: add esp, 0x20 ; pop rdi ; ret ; \x83\xc4\x20\x5f\xc3 (1 found)
0x140003847: add esp, 0x20 ; pop rdi ; ret ; \x83\xc4\x20\x5f\xc3 (1 found)
0x140003bd8: add esp, 0x20 ; pop rdi ; ret ; \x83\xc4\x20\x5f\xc3 (1 found)
0x140003d66: add esp, 0x20 ; pop rdi ; ret ; \x83\xc4\x20\x5f\xc3 (1 found)
0x140004d11: add esp, 0x20 ; pop rdi ; ret ; \x83\xc4\x20\x5f\xc3 (1 found)
0x140004d55: add esp, 0x20 ; pop rdi ; ret ; \x83\xc4\x20\x5f\xc3 (1 found)
0x1400051e9: add esp, 0x20 ; pop rdi ; ret ; \x83\xc4\x20\x5f\xc3 (1 found)
0x14000535f: add esp, 0x20 ; pop rdi ; ret ; \x83\xc4\x20\x5f\xc3 (1 found)
0x1400055b3: add esp, 0x20 ; pop rdi ; ret ; \x83\xc4\x20\x5f\xc3 (1 found)
0x1400058cc: add esp, 0x20 ; pop rdi ; ret ; \x83\xc4\x20\x5f\xc3 (1 found)
0x14000590c: add esp, 0x20 ; pop rdi ; ret ; \x83\xc4\x20\x5f\xc3 (1 found)
0x140005b6f: add esp, 0x20 ; pop rdi ; ret ; \x83\xc4\x20\x5f\xc3 (1 found)
0x140005c1b: add esp, 0x20 ; pop rdi ; ret ; \x83\xc4\x20\x5f\xc3 (1 found)
0x1400084bc: add esp, 0x20 ; pop rdi ; ret ; \x83\xc4\x20\x5f\xc3 (1 found)
0x14000a274: add esp, 0x20 ; pop rdi ; ret ; \x83\xc4\x20\x5f\xc3 (1 found)
0x14000a2f4: add esp, 0x20 ; pop rdi ; ret ; \x83\xc4\x20\x5f\xc3 (1 found)
0x14000a374: add esp, 0x20 ; pop rdi ; ret ; \x83\xc4\x20\x5f\xc3 (1 found)
0x14000ab73: add esp, 0x20 ; pop rdi ; ret ; \x83\xc4\x20\x5f\xc3 (1 found)
0x14000ac37: add esp, 0x20 ; pop rdi ; ret ; \x83\xc4\x20\x5f\xc3 (1 found)
0x14000acfb: add esp, 0x20 ; pop rdi ; ret ; \x83\xc4\x20\x5f\xc3 (1 found)
0x14000afbf: add esp, 0x20 ; pop rdi ; ret ; \x83\xc4\x20\x5f\xc3 (1 found)
0x14000b05b: add esp, 0x20 ; pop rdi ; ret ; \x83\xc4\x20\x5f\xc3 (1 found)
0x14000b0f7: add esp, 0x20 ; pop rdi ; ret ; \x83\xc4\x20\x5f\xc3 (1 found)
0x14000b16a: add esp, 0x20 ; pop rdi ; ret ; \x83\xc4\x20\x5f\xc3 (1 found)
0x14000b1de: add esp, 0x20 ; pop rdi ; ret ; \x83\xc4\x20\x5f\xc3 (1 found)
0x14000b252: add esp, 0x20 ; pop rdi ; ret ; \x83\xc4\x20\x5f\xc3 (1 found)
0x14000b2d1: add esp, 0x20 ; pop rdi ; ret ; \x83\xc4\x20\x5f\xc3 (1 found)
0x14000baca: add esp, 0x20 ; pop rdi ; ret ; \x83\xc4\x20\x5f\xc3 (1 found)
0x14000bb67: add esp, 0x20 ; pop rdi ; ret ; \x83\xc4\x20\x5f\xc3 (1 found)
0x14000bd37: add esp, 0x20 ; pop rdi ; ret ; \x83\xc4\x20\x5f\xc3 (1 found)
0x14000bf37: add esp, 0x20 ; pop rdi ; ret ; \x83\xc4\x20\x5f\xc3 (1 found)
0x14000c15f: add esp, 0x20 ; pop rdi ; ret ; \x83\xc4\x20\x5f\xc3 (1 found)
0x14000c9a0: add esp, 0x20 ; pop rdi ; ret ; \x83\xc4\x20\x5f\xc3 (1 found)
0x14000ca8a: add esp, 0x20 ; pop rdi ; ret ; \x83\xc4\x20\x5f\xc3 (1 found)
0x14000cc15: add esp, 0x20 ; pop rdi ; ret ; \x83\xc4\x20\x5f\xc3 (1 found)
0x14000cc55: add esp, 0x20 ; pop rdi ; ret ; \x83\xc4\x20\x5f\xc3 (1 found)
0x14000cc74: add esp, 0x20 ; pop rdi ; ret ; \x83\xc4\x20\x5f\xc3 (1 found)
0x14000cc81: add esp, 0x20 ; pop rdi ; ret ; \x83\xc4\x20\x5f\xc3 (1 found)
0x14000cd05: add esp, 0x20 ; pop rdi ; ret ; \x83\xc4\x20\x5f\xc3 (1 found)
0x14000ce12: add esp, 0x20 ; pop rdi ; ret ; \x83\xc4\x20\x5f\xc3 (1 found)
0x14000d3c9: add esp, 0x20 ; pop rdi ; ret ; \x83\xc4\x20\x5f\xc3 (1 found)
0x14000d528: add esp, 0x20 ; pop rdi ; ret ; \x83\xc4\x20\x5f\xc3 (1 found)
0x14000d56c: add esp, 0x20 ; pop rdi ; ret ; \x83\xc4\x20\x5f\xc3 (1 found)
0x14000d77c: add esp, 0x20 ; pop rdi ; ret ; \x83\xc4\x20\x5f\xc3 (1 found)
0x14000d7c6: add esp, 0x20 ; pop rdi ; ret ; \x83\xc4\x20\x5f\xc3 (1 found)
0x14000dae6: add esp, 0x20 ; pop rdi ; ret ; \x83\xc4\x20\x5f\xc3 (1 found)
0x14000db22: add esp, 0x20 ; pop rdi ; ret ; \x83\xc4\x20\x5f\xc3 (1 found)
0x14000e341: add esp, 0x20 ; pop rdi ; ret ; \x83\xc4\x20\x5f\xc3 (1 found)
0x14000e38f: add esp, 0x20 ; pop rdi ; ret ; \x83\xc4\x20\x5f\xc3 (1 found)
0x14000ff1e: add esp, 0x20 ; pop rdi ; ret ; \x83\xc4\x20\x5f\xc3 (1 found)
0x14000ff9e: add esp, 0x20 ; pop rdi ; ret ; \x83\xc4\x20\x5f\xc3 (1 found)
0x14000ffdc: add esp, 0x20 ; pop rdi ; ret ; \x83\xc4\x20\x5f\xc3 (1 found)
0x140010024: add esp, 0x20 ; pop rdi ; ret ; \x83\xc4\x20\x5f\xc3 (1 found)
0x140010086: add esp, 0x20 ; pop rdi ; ret ; \x83\xc4\x20\x5f\xc3 (1 found)
0x1400102d6: add esp, 0x20 ; pop rdi ; ret ; \x83\xc4\x20\x5f\xc3 (1 found)
0x1400103a4: add esp, 0x20 ; pop rdi ; ret ; \x83\xc4\x20\x5f\xc3 (1 found)
0x140010517: add esp, 0x20 ; pop rdi ; ret ; \x83\xc4\x20\x5f\xc3 (1 found)
0x1400105d5: add esp, 0x20 ; pop rdi ; ret ; \x83\xc4\x20\x5f\xc3 (1 found)
0x1400108ab: add esp, 0x20 ; pop rdi ; ret ; \x83\xc4\x20\x5f\xc3 (1 found)
0x140010cb3: add esp, 0x20 ; pop rdi ; ret ; \x83\xc4\x20\x5f\xc3 (1 found)
0x140010dfc: add esp, 0x20 ; pop rdi ; ret ; \x83\xc4\x20\x5f\xc3 (1 found)
0x1400110de: add esp, 0x20 ; pop rdi ; ret ; \x83\xc4\x20\x5f\xc3 (1 found)
0x140011f9a: add esp, 0x20 ; pop rdi ; ret ; \x83\xc4\x20\x5f\xc3 (1 found)
0x1400123b2: add esp, 0x20 ; pop rdi ; ret ; \x83\xc4\x20\x5f\xc3 (1 found)
0x1400125dc: add esp, 0x20 ; pop rdi ; ret ; \x83\xc4\x20\x5f\xc3 (1 found)
0x140013acb: add esp, 0x20 ; pop rdi ; ret ; \x83\xc4\x20\x5f\xc3 (1 found)
0x140013fd5: add esp, 0x20 ; pop rdi ; ret ; \x83\xc4\x20\x5f\xc3 (1 found)
0x140014523: add esp, 0x20 ; pop rdi ; ret ; \x83\xc4\x20\x5f\xc3 (1 found)
0x140014a24: add esp, 0x20 ; pop rdi ; ret ; \x83\xc4\x20\x5f\xc3 (1 found)
0x140014a77: add esp, 0x20 ; pop rdi ; ret ; \x83\xc4\x20\x5f\xc3 (1 found)
0x140015069: add esp, 0x20 ; pop rdi ; ret ; \x83\xc4\x20\x5f\xc3 (1 found)
0x1400156d3: add esp, 0x20 ; pop rdi ; ret ; \x83\xc4\x20\x5f\xc3 (1 found)
0x140015740: add esp, 0x20 ; pop rdi ; ret ; \x83\xc4\x20\x5f\xc3 (1 found)
0x1400157d8: add esp, 0x20 ; pop rdi ; ret ; \x83\xc4\x20\x5f\xc3 (1 found)
0x140015897: add esp, 0x20 ; pop rdi ; ret ; \x83\xc4\x20\x5f\xc3 (1 found)
0x1400158dd: add esp, 0x20 ; pop rdi ; ret ; \x83\xc4\x20\x5f\xc3 (1 found)
0x140015925: add esp, 0x20 ; pop rdi ; ret ; \x83\xc4\x20\x5f\xc3 (1 found)
0x1400159a7: add esp, 0x20 ; pop rdi ; ret ; \x83\xc4\x20\x5f\xc3 (1 found)
0x140015d43: add esp, 0x20 ; pop rdi ; ret ; \x83\xc4\x20\x5f\xc3 (1 found)
0x14001760e: add esp, 0x20 ; pop rdi ; ret ; \x83\xc4\x20\x5f\xc3 (1 found)
0x1400179a6: add esp, 0x20 ; pop rdi ; ret ; \x83\xc4\x20\x5f\xc3 (1 found)
0x140017aa2: add esp, 0x20 ; pop rdi ; ret ; \x83\xc4\x20\x5f\xc3 (1 found)
0x140017bea: add esp, 0x20 ; pop rdi ; ret ; \x83\xc4\x20\x5f\xc3 (1 found)
0x140017cb7: add esp, 0x20 ; pop rdi ; ret ; \x83\xc4\x20\x5f\xc3 (1 found)
0x140018980: add esp, 0x20 ; pop rdi ; ret ; \x83\xc4\x20\x5f\xc3 (1 found)
0x140018e12: add esp, 0x20 ; pop rdi ; ret ; \x83\xc4\x20\x5f\xc3 (1 found)
0x1400193bc: add esp, 0x20 ; pop rdi ; ret ; \x83\xc4\x20\x5f\xc3 (1 found)
0x1400194cb: add esp, 0x20 ; pop rdi ; ret ; \x83\xc4\x20\x5f\xc3 (1 found)
0x14001a8e9: add esp, 0x20 ; pop rdi ; ret ; \x83\xc4\x20\x5f\xc3 (1 found)
0x14001afc7: add esp, 0x20 ; pop rdi ; ret ; \x83\xc4\x20\x5f\xc3 (1 found)
0x14001b098: add esp, 0x20 ; pop rdi ; ret ; \x83\xc4\x20\x5f\xc3 (1 found)
0x14001b296: add esp, 0x20 ; pop rdi ; ret ; \x83\xc4\x20\x5f\xc3 (1 found)
0x140015173: add esp, 0x20 ; pop rsi ; ret ; \x83\xc4\x20\x5e\xc3 (1 found)
0x14001bf75: add esp, 0x28 ; pop rbp ; pop rbx ; ret ; \x83\xc4\x28\x5d\x5b\xc3 (1 found)
0x14001c0c8: add esp, 0x28 ; pop rbp ; pop rbx ; ret ; \x83\xc4\x28\x5d\x5b\xc3 (1 found)
0x140001e14: add esp, 0x28 ; ret ; \x83\xc4\x28\xc3 (1 found)
0x140002171: add esp, 0x28 ; ret ; \x83\xc4\x28\xc3 (1 found)
0x1400021b2: add esp, 0x28 ; ret ; \x83\xc4\x28\xc3 (1 found)
0x14000237b: add esp, 0x28 ; ret ; \x83\xc4\x28\xc3 (1 found)
0x140002487: add esp, 0x28 ; ret ; \x83\xc4\x28\xc3 (1 found)
0x140002651: add esp, 0x28 ; ret ; \x83\xc4\x28\xc3 (1 found)
0x140002fe8: add esp, 0x28 ; ret ; \x83\xc4\x28\xc3 (1 found)
0x140003001: add esp, 0x28 ; ret ; \x83\xc4\x28\xc3 (1 found)
0x14000316e: add esp, 0x28 ; ret ; \x83\xc4\x28\xc3 (1 found)
0x140003182: add esp, 0x28 ; ret ; \x83\xc4\x28\xc3 (1 found)
0x140003257: add esp, 0x28 ; ret ; \x83\xc4\x28\xc3 (1 found)
0x14000326b: add esp, 0x28 ; ret ; \x83\xc4\x28\xc3 (1 found)
0x14000337b: add esp, 0x28 ; ret ; \x83\xc4\x28\xc3 (1 found)
0x14000339e: add esp, 0x28 ; ret ; \x83\xc4\x28\xc3 (1 found)
0x140003bf2: add esp, 0x28 ; ret ; \x83\xc4\x28\xc3 (1 found)
0x140003c06: add esp, 0x28 ; ret ; \x83\xc4\x28\xc3 (1 found)
0x140003cf3: add esp, 0x28 ; ret ; \x83\xc4\x28\xc3 (1 found)
0x14000541c: add esp, 0x28 ; ret ; \x83\xc4\x28\xc3 (1 found)
0x14000579d: add esp, 0x28 ; ret ; \x83\xc4\x28\xc3 (1 found)
0x14000587c: add esp, 0x28 ; ret ; \x83\xc4\x28\xc3 (1 found)
0x14000d646: add esp, 0x28 ; ret ; \x83\xc4\x28\xc3 (1 found)
0x14000d662: add esp, 0x28 ; ret ; \x83\xc4\x28\xc3 (1 found)
0x14000d69f: add esp, 0x28 ; ret ; \x83\xc4\x28\xc3 (1 found)
0x14000d732: add esp, 0x28 ; ret ; \x83\xc4\x28\xc3 (1 found)
0x14000d7f8: add esp, 0x28 ; ret ; \x83\xc4\x28\xc3 (1 found)
0x14000d835: add esp, 0x28 ; ret ; \x83\xc4\x28\xc3 (1 found)
0x14000d941: add esp, 0x28 ; ret ; \x83\xc4\x28\xc3 (1 found)
0x14000da02: add esp, 0x28 ; ret ; \x83\xc4\x28\xc3 (1 found)
0x14000daa3: add esp, 0x28 ; ret ; \x83\xc4\x28\xc3 (1 found)
0x14000deef: add esp, 0x28 ; ret ; \x83\xc4\x28\xc3 (1 found)
0x14000df08: add esp, 0x28 ; ret ; \x83\xc4\x28\xc3 (1 found)
0x14000dff3: add esp, 0x28 ; ret ; \x83\xc4\x28\xc3 (1 found)
0x14000e02a: add esp, 0x28 ; ret ; \x83\xc4\x28\xc3 (1 found)
0x14000e798: add esp, 0x28 ; ret ; \x83\xc4\x28\xc3 (1 found)
0x14000e7b8: add esp, 0x28 ; ret ; \x83\xc4\x28\xc3 (1 found)
0x14000fc4f: add esp, 0x28 ; ret ; \x83\xc4\x28\xc3 (1 found)
0x140010611: add esp, 0x28 ; ret ; \x83\xc4\x28\xc3 (1 found)
0x140010636: add esp, 0x28 ; ret ; \x83\xc4\x28\xc3 (1 found)
0x14001403c: add esp, 0x28 ; ret ; \x83\xc4\x28\xc3 (1 found)
0x140014ea1: add esp, 0x28 ; ret ; \x83\xc4\x28\xc3 (1 found)
0x14001566c: add esp, 0x28 ; ret ; \x83\xc4\x28\xc3 (1 found)
0x1400157f8: add esp, 0x28 ; ret ; \x83\xc4\x28\xc3 (1 found)
0x1400159d6: add esp, 0x28 ; ret ; \x83\xc4\x28\xc3 (1 found)
0x140017d17: add esp, 0x28 ; ret ; \x83\xc4\x28\xc3 (1 found)
0x14001818b: add esp, 0x28 ; ret ; \x83\xc4\x28\xc3 (1 found)
0x140018204: add esp, 0x28 ; ret ; \x83\xc4\x28\xc3 (1 found)
0x1400191f7: add esp, 0x28 ; ret ; \x83\xc4\x28\xc3 (1 found)
0x140019224: add esp, 0x28 ; ret ; \x83\xc4\x28\xc3 (1 found)
0x14001935a: add esp, 0x28 ; ret ; \x83\xc4\x28\xc3 (1 found)
0x14001a0f4: add esp, 0x28 ; ret ; \x83\xc4\x28\xc3 (1 found)
0x14001af2c: add esp, 0x28 ; ret ; \x83\xc4\x28\xc3 (1 found)
0x14001aff9: add esp, 0x28 ; ret ; \x83\xc4\x28\xc3 (1 found)
0x14001b111: add esp, 0x28 ; ret ; \x83\xc4\x28\xc3 (1 found)
0x1400188a4: add esp, 0x30 ; pop r14 ; pop rdi ; pop rsi ; ret ; \x83\xc4\x30\x41\x5e\x5f\x5e\xc3 (1 found)
0x1400065db: add esp, 0x30 ; pop r14 ; ret ; \x83\xc4\x30\x41\x5e\xc3 (1 found)
0x1400067e7: add esp, 0x30 ; pop r14 ; ret ; \x83\xc4\x30\x41\x5e\xc3 (1 found)
0x1400069f3: add esp, 0x30 ; pop r14 ; ret ; \x83\xc4\x30\x41\x5e\xc3 (1 found)
0x140006bff: add esp, 0x30 ; pop r14 ; ret ; \x83\xc4\x30\x41\x5e\xc3 (1 found)
0x140006e0b: add esp, 0x30 ; pop r14 ; ret ; \x83\xc4\x30\x41\x5e\xc3 (1 found)
0x140007017: add esp, 0x30 ; pop r14 ; ret ; \x83\xc4\x30\x41\x5e\xc3 (1 found)
0x140007223: add esp, 0x30 ; pop r14 ; ret ; \x83\xc4\x30\x41\x5e\xc3 (1 found)
0x14000742f: add esp, 0x30 ; pop r14 ; ret ; \x83\xc4\x30\x41\x5e\xc3 (1 found)
0x14000763b: add esp, 0x30 ; pop r14 ; ret ; \x83\xc4\x30\x41\x5e\xc3 (1 found)
0x14000891f: add esp, 0x30 ; pop r14 ; ret ; \x83\xc4\x30\x41\x5e\xc3 (1 found)
0x140008bf1: add esp, 0x30 ; pop r14 ; ret ; \x83\xc4\x30\x41\x5e\xc3 (1 found)
0x140008ec8: add esp, 0x30 ; pop r14 ; ret ; \x83\xc4\x30\x41\x5e\xc3 (1 found)
0x14000be60: add esp, 0x30 ; pop r14 ; ret ; \x83\xc4\x30\x41\x5e\xc3 (1 found)
0x14000fc26: add esp, 0x30 ; pop r14 ; ret ; \x83\xc4\x30\x41\x5e\xc3 (1 found)
0x1400148c6: add esp, 0x30 ; pop r14 ; ret ; \x83\xc4\x30\x41\x5e\xc3 (1 found)
0x140014d68: add esp, 0x30 ; pop r15 ; pop r14 ; pop r12 ; ret ; \x83\xc4\x30\x41\x5f\x41\x5e\x41\x5c\xc3 (1 found)
0x140003fb0: add esp, 0x30 ; pop r15 ; pop r14 ; pop r13 ; ret ; \x83\xc4\x30\x41\x5f\x41\x5e\x41\x5d\xc3 (1 found)
0x14000f01a: add esp, 0x30 ; pop r15 ; pop r14 ; pop r13 ; ret ; \x83\xc4\x30\x41\x5f\x41\x5e\x41\x5d\xc3 (1 found)
0x14000d4cf: add esp, 0x30 ; pop r15 ; pop r14 ; pop rdi ; ret ; \x83\xc4\x30\x41\x5f\x41\x5e\x5f\xc3 (1 found)
0x14001869e: add esp, 0x30 ; pop r15 ; pop r14 ; pop rdi ; ret ; \x83\xc4\x30\x41\x5f\x41\x5e\x5f\xc3 (1 found)
0x14000c930: add esp, 0x30 ; pop r15 ; ret ; \x83\xc4\x30\x41\x5f\xc3 (1 found)
0x140014abe: add esp, 0x30 ; pop r15 ; ret ; \x83\xc4\x30\x41\x5f\xc3 (1 found)
0x140002427: add esp, 0x30 ; pop rbp ; ret ; \x83\xc4\x30\x5d\xc3 (1 found)
0x140005678: add esp, 0x30 ; pop rbx ; ret ; \x83\xc4\x30\x5b\xc3 (1 found)
0x14000580e: add esp, 0x30 ; pop rbx ; ret ; \x83\xc4\x30\x5b\xc3 (1 found)
0x14000104d: add esp, 0x30 ; pop rdi ; pop rsi ; pop rbx ; ret ; \x83\xc4\x30\x5f\x5e\x5b\xc3 (1 found)
0x140001f86: add esp, 0x30 ; pop rdi ; ret ; \x83\xc4\x30\x5f\xc3 (1 found)
0x140008551: add esp, 0x30 ; pop rdi ; ret ; \x83\xc4\x30\x5f\xc3 (1 found)
0x1400085e1: add esp, 0x30 ; pop rdi ; ret ; \x83\xc4\x30\x5f\xc3 (1 found)
0x140008671: add esp, 0x30 ; pop rdi ; ret ; \x83\xc4\x30\x5f\xc3 (1 found)
0x14000adaa: add esp, 0x30 ; pop rdi ; ret ; \x83\xc4\x30\x5f\xc3 (1 found)
0x14000ae62: add esp, 0x30 ; pop rdi ; ret ; \x83\xc4\x30\x5f\xc3 (1 found)
0x14000af1a: add esp, 0x30 ; pop rdi ; ret ; \x83\xc4\x30\x5f\xc3 (1 found)
0x14000bf80: add esp, 0x30 ; pop rdi ; ret ; \x83\xc4\x30\x5f\xc3 (1 found)
0x14000c058: add esp, 0x30 ; pop rdi ; ret ; \x83\xc4\x30\x5f\xc3 (1 found)
0x14000d5a9: add esp, 0x30 ; pop rdi ; ret ; \x83\xc4\x30\x5f\xc3 (1 found)
0x14000d9c5: add esp, 0x30 ; pop rdi ; ret ; \x83\xc4\x30\x5f\xc3 (1 found)
0x14000e605: add esp, 0x30 ; pop rdi ; ret ; \x83\xc4\x30\x5f\xc3 (1 found)
0x140010f19: add esp, 0x30 ; pop rdi ; ret ; \x83\xc4\x30\x5f\xc3 (1 found)
0x140015e53: add esp, 0x30 ; pop rdi ; ret ; \x83\xc4\x30\x5f\xc3 (1 found)
0x14001800c: add esp, 0x30 ; pop rdi ; ret ; \x83\xc4\x30\x5f\xc3 (1 found)
0x1400020c7: add esp, 0x38 ; ret ; \x83\xc4\x38\xc3 (1 found)
0x1400090a9: add esp, 0x38 ; ret ; \x83\xc4\x38\xc3 (1 found)
0x140009259: add esp, 0x38 ; ret ; \x83\xc4\x38\xc3 (1 found)
0x140009409: add esp, 0x38 ; ret ; \x83\xc4\x38\xc3 (1 found)
0x14000de47: add esp, 0x38 ; ret ; \x83\xc4\x38\xc3 (1 found)
0x14000e67a: add esp, 0x38 ; ret ; \x83\xc4\x38\xc3 (1 found)
0x140011171: add esp, 0x38 ; ret ; \x83\xc4\x38\xc3 (1 found)
0x140018da6: add esp, 0x38 ; ret ; \x83\xc4\x38\xc3 (1 found)
0x14001aacc: add esp, 0x38 ; ret ; \x83\xc4\x38\xc3 (1 found)
0x14000f9fd: add esp, 0x40 ; pop r14 ; pop rdi ; pop rsi ; ret ; \x83\xc4\x40\x41\x5e\x5f\x5e\xc3 (1 found)
0x14001836b: add esp, 0x40 ; pop r15 ; pop r14 ; pop r12 ; ret ; \x83\xc4\x40\x41\x5f\x41\x5e\x41\x5c\xc3 (1 found)
0x14000bca8: add esp, 0x40 ; pop rbp ; ret ; \x83\xc4\x40\x5d\xc3 (1 found)
0x14000deb7: add esp, 0x40 ; pop rbp ; ret ; \x83\xc4\x40\x5d\xc3 (1 found)
0x14001026c: add esp, 0x40 ; pop rbp ; ret ; \x83\xc4\x40\x5d\xc3 (1 found)
0x14001c4ee: add esp, 0x40 ; pop rbp ; ret ; \x83\xc4\x40\x5d\xc3 (1 found)
0x140001185: add esp, 0x40 ; pop rbx ; ret ; \x83\xc4\x40\x5b\xc3 (1 found)
0x140013a30: add esp, 0x40 ; pop rbx ; ret ; \x83\xc4\x40\x5b\xc3 (1 found)
0x14001770a: add esp, 0x40 ; pop rbx ; ret ; \x83\xc4\x40\x5b\xc3 (1 found)
0x14001a0d5: add esp, 0x40 ; pop rbx ; ret ; \x83\xc4\x40\x5b\xc3 (1 found)
0x14001c01c: add esp, 0x40 ; pop rdi ; pop rbp ; pop rbx ; ret ; \x83\xc4\x40\x5f\x5d\x5b\xc3 (1 found)
0x140002136: add esp, 0x40 ; pop rdi ; pop rsi ; pop rbx ; ret ; \x83\xc4\x40\x5f\x5e\x5b\xc3 (1 found)
0x1400010b3: add esp, 0x40 ; pop rdi ; ret ; \x83\xc4\x40\x5f\xc3 (1 found)
0x140001309: add esp, 0x40 ; pop rdi ; ret ; \x83\xc4\x40\x5f\xc3 (1 found)
0x140001324: add esp, 0x40 ; pop rdi ; ret ; \x83\xc4\x40\x5f\xc3 (1 found)
0x140003cbd: add esp, 0x40 ; pop rdi ; ret ; \x83\xc4\x40\x5f\xc3 (1 found)
0x1400139b1: add esp, 0x40 ; pop rdi ; ret ; \x83\xc4\x40\x5f\xc3 (1 found)
0x14001a1b1: add esp, 0x40 ; pop rdi ; ret ; \x83\xc4\x40\x5f\xc3 (1 found)
0x1400011c1: add esp, 0x48 ; ret ; \x83\xc4\x48\xc3 (1 found)
0x140003099: add esp, 0x48 ; ret ; \x83\xc4\x48\xc3 (1 found)
0x14001abf3: add esp, 0x48 ; ret ; \x83\xc4\x48\xc3 (1 found)
0x14000ef96: add esp, 0x50 ; pop r14 ; ret ; \x83\xc4\x50\x41\x5e\xc3 (1 found)
0x14001a4b3: add esp, 0x50 ; pop r14 ; ret ; \x83\xc4\x50\x41\x5e\xc3 (1 found)
0x14000f4fc: add esp, 0x50 ; pop r15 ; ret ; \x83\xc4\x50\x41\x5f\xc3 (1 found)
0x14000573c: add esp, 0x50 ; pop rbp ; ret ; \x83\xc4\x50\x5d\xc3 (1 found)
0x140010154: add esp, 0x50 ; pop rbp ; ret ; \x83\xc4\x50\x5d\xc3 (1 found)
0x14001a82c: add esp, 0x50 ; pop rbx ; ret ; \x83\xc4\x50\x5b\xc3 (1 found)
0x14000557a: add esp, 0x50 ; pop rdi ; ret ; \x83\xc4\x50\x5f\xc3 (1 found)
0x14000f250: add esp, 0x50 ; pop rdi ; ret ; \x83\xc4\x50\x5f\xc3 (1 found)
0x14000f8e6: add esp, 0x50 ; pop rdi ; ret ; \x83\xc4\x50\x5f\xc3 (1 found)
0x140010c23: add esp, 0x50 ; pop rdi ; ret ; \x83\xc4\x50\x5f\xc3 (1 found)
0x140010d9f: add esp, 0x50 ; pop rdi ; ret ; \x83\xc4\x50\x5f\xc3 (1 found)
0x14001233b: add esp, 0x50 ; pop rdi ; ret ; \x83\xc4\x50\x5f\xc3 (1 found)
0x140017e42: add esp, 0x50 ; pop rdi ; ret ; \x83\xc4\x50\x5f\xc3 (1 found)
0x1400183a8: add esp, 0x50 ; pop rdi ; ret ; \x83\xc4\x50\x5f\xc3 (1 found)
0x140019337: add esp, 0x50 ; pop rdi ; ret ; \x83\xc4\x50\x5f\xc3 (1 found)
0x140011051: add esp, 0x58 ; ret ; \x83\xc4\x58\xc3 (1 found)
0x140012475: add esp, 0x58 ; ret ; \x83\xc4\x58\xc3 (1 found)
0x14001976e: add esp, 0x58 ; ret ; \x83\xc4\x58\xc3 (1 found)
0x140019843: add esp, 0x58 ; ret ; \x83\xc4\x58\xc3 (1 found)
0x1400198e7: add esp, 0x58 ; ret ; \x83\xc4\x58\xc3 (1 found)
0x140019a2b: add esp, 0x58 ; ret ; \x83\xc4\x58\xc3 (1 found)
0x140019ad5: add esp, 0x58 ; ret ; \x83\xc4\x58\xc3 (1 found)
0x140019b2d: add esp, 0x58 ; ret ; \x83\xc4\x58\xc3 (1 found)
0x140019b5b: add esp, 0x58 ; ret ; \x83\xc4\x58\xc3 (1 found)
0x140019b97: add esp, 0x58 ; ret ; \x83\xc4\x58\xc3 (1 found)
0x14000bc45: add esp, 0x60 ; pop r14 ; pop rdi ; pop rsi ; ret ; \x83\xc4\x60\x41\x5e\x5f\x5e\xc3 (1 found)
0x14000be09: add esp, 0x60 ; pop rbp ; ret ; \x83\xc4\x60\x5d\xc3 (1 found)
0x14000c0f3: add esp, 0x60 ; pop rbp ; ret ; \x83\xc4\x60\x5d\xc3 (1 found)
0x140011a13: add esp, 0x60 ; pop rbp ; ret ; \x83\xc4\x60\x5d\xc3 (1 found)
0x14001250f: add esp, 0x60 ; pop rbp ; ret ; \x83\xc4\x60\x5d\xc3 (1 found)
0x1400180a9: add esp, 0x60 ; pop rbp ; ret ; \x83\xc4\x60\x5d\xc3 (1 found)
0x140018145: add esp, 0x60 ; pop rbp ; ret ; \x83\xc4\x60\x5d\xc3 (1 found)
0x14001a24b: add esp, 0x60 ; pop rbp ; ret ; \x83\xc4\x60\x5d\xc3 (1 found)
0x14001ab62: add esp, 0x68 ; ret ; \x83\xc4\x68\xc3 (1 found)
0x14000e58e: add esp, 0x70 ; pop rbp ; ret ; \x83\xc4\x70\x5d\xc3 (1 found)
0x140003750: add esp, 0x70 ; pop rbx ; ret ; \x83\xc4\x70\x5b\xc3 (1 found)
0x14001b601: add r11, r10 ; jmp r11 ; \x4d\x03\xda\x41\xff\xe3 (1 found)
0x14001b6c1: add r11, r10 ; jmp r11 ; \x4d\x03\xda\x41\xff\xe3 (1 found)
0x14001b7b5: add r11, r10 ; jmp r11 ; \x4d\x03\xda\x41\xff\xe3 (1 found)
0x14001ba9f: add r11, r10 ; jmp r11 ; \x4d\x03\xda\x41\xff\xe3 (1 found)
0x14001bbcf: add r11, r10 ; jmp r11 ; \x4d\x03\xda\x41\xff\xe3 (1 found)
0x14001bd43: add r11, r10 ; jmp r11 ; \x4d\x03\xda\x41\xff\xe3 (1 found)
0x140002f8c: add r8, r12 ; call r8 ; \x4d\x03\xc4\x41\xff\xd0 (1 found)
0x1400030f0: add r8, r9 ; add rax, r8 ; ret ; \x4d\x03\xc1\x49\x03\xc0\xc3 (1 found)
0x140002a82: add r8, rcx ; cmp word [r8], dx ; cmove r9, r8 ; mov rax, r9 ; ret ; \x4c\x03\xc1\x66\x41\x39\x10\x4d\x0f\x44\xc8\x49\x8b\xc1\xc3 (1 found)
0x140015fa0: add r8d,  [rax] ; add byte [rbp-0x75], al ; retn 0x6349 ; \x44\x03\x00\x00\x45\x8b\xc2\x49\x63 (1 found)
0x14001b4ab: add r9, r10 ; jmp r9 ; \x4d\x03\xca\x41\xff\xe1 (1 found)
0x14001b858: add r9, r10 ; jmp r9 ; \x4d\x03\xca\x41\xff\xe1 (1 found)
0x140007880: add rax, 0x02 ; mov  [r9+0x48], r8d ; mov qword [r9+0x40], rax ; ret ; \x48\x83\xc0\x02\x45\x89\x41\x48\x49\x89\x41\x40\xc3 (1 found)
0x140007940: add rax, 0x02 ; mov  [r9+0x48], r8d ; mov qword [r9+0x40], rax ; ret ; \x48\x83\xc0\x02\x45\x89\x41\x48\x49\x89\x41\x40\xc3 (1 found)
0x140007a00: add rax, 0x02 ; mov  [r9+0x48], r8d ; mov qword [r9+0x40], rax ; ret ; \x48\x83\xc0\x02\x45\x89\x41\x48\x49\x89\x41\x40\xc3 (1 found)
0x140007e3e: add rax, 0x02 ; mov  [r9+0x48], r8d ; mov qword [r9+0x40], rax ; ret ; \x48\x83\xc0\x02\x45\x89\x41\x48\x49\x89\x41\x40\xc3 (1 found)
0x140007f02: add rax, 0x02 ; mov  [r9+0x48], r8d ; mov qword [r9+0x40], rax ; ret ; \x48\x83\xc0\x02\x45\x89\x41\x48\x49\x89\x41\x40\xc3 (1 found)
0x140007fc6: add rax, 0x02 ; mov  [r9+0x48], r8d ; mov qword [r9+0x40], rax ; ret ; \x48\x83\xc0\x02\x45\x89\x41\x48\x49\x89\x41\x40\xc3 (1 found)
0x1400076b8: add rax, 0x02 ; sar rcx, 1 ; mov  [r8+0x48], ecx ; mov qword [r8+0x40], rax ; ret ; \x48\x83\xc0\x02\x48\xd1\xf9\x41\x89\x48\x48\x49\x89\x40\x40\xc3 (1 found)
0x14000773c: add rax, 0x02 ; sar rcx, 1 ; mov  [r8+0x48], ecx ; mov qword [r8+0x40], rax ; ret ; \x48\x83\xc0\x02\x48\xd1\xf9\x41\x89\x48\x48\x49\x89\x40\x40\xc3 (1 found)
0x1400077c0: add rax, 0x02 ; sar rcx, 1 ; mov  [r8+0x48], ecx ; mov qword [r8+0x40], rax ; ret ; \x48\x83\xc0\x02\x48\xd1\xf9\x41\x89\x48\x48\x49\x89\x40\x40\xc3 (1 found)
0x140007c66: add rax, 0x02 ; sar rcx, 1 ; mov  [r8+0x48], ecx ; mov qword [r8+0x40], rax ; ret ; \x48\x83\xc0\x02\x48\xd1\xf9\x41\x89\x48\x48\x49\x89\x40\x40\xc3 (1 found)
0x140007cee: add rax, 0x02 ; sar rcx, 1 ; mov  [r8+0x48], ecx ; mov qword [r8+0x40], rax ; ret ; \x48\x83\xc0\x02\x48\xd1\xf9\x41\x89\x48\x48\x49\x89\x40\x40\xc3 (1 found)
0x140007d76: add rax, 0x02 ; sar rcx, 1 ; mov  [r8+0x48], ecx ; mov qword [r8+0x40], rax ; ret ; \x48\x83\xc0\x02\x48\xd1\xf9\x41\x89\x48\x48\x49\x89\x40\x40\xc3 (1 found)
0x140007aa1: add rax, 0x02 ; sar rdx, 1 ; mov  [rcx+0x48], edx ; mov qword [rcx+0x40], rax ; ret ; \x48\x83\xc0\x02\x48\xd1\xfa\x89\x51\x48\x48\x89\x41\x40\xc3 (1 found)
0x140007b41: add rax, 0x02 ; sar rdx, 1 ; mov  [rcx+0x48], edx ; mov qword [rcx+0x40], rax ; ret ; \x48\x83\xc0\x02\x48\xd1\xfa\x89\x51\x48\x48\x89\x41\x40\xc3 (1 found)
0x140007be1: add rax, 0x02 ; sar rdx, 1 ; mov  [rcx+0x48], edx ; mov qword [rcx+0x40], rax ; ret ; \x48\x83\xc0\x02\x48\xd1\xfa\x89\x51\x48\x48\x89\x41\x40\xc3 (1 found)
0x140008065: add rax, 0x02 ; sar rdx, 1 ; mov  [rcx+0x48], edx ; mov qword [rcx+0x40], rax ; ret ; \x48\x83\xc0\x02\x48\xd1\xfa\x89\x51\x48\x48\x89\x41\x40\xc3 (1 found)
0x140008105: add rax, 0x02 ; sar rdx, 1 ; mov  [rcx+0x48], edx ; mov qword [rcx+0x40], rax ; ret ; \x48\x83\xc0\x02\x48\xd1\xfa\x89\x51\x48\x48\x89\x41\x40\xc3 (1 found)
0x1400081a5: add rax, 0x02 ; sar rdx, 1 ; mov  [rcx+0x48], edx ; mov qword [rcx+0x40], rax ; ret ; \x48\x83\xc0\x02\x48\xd1\xfa\x89\x51\x48\x48\x89\x41\x40\xc3 (1 found)
0x140003169: add rax, 0x20 ; add rsp, 0x28 ; ret ; \x48\x83\xc0\x20\x48\x83\xc4\x28\xc3 (1 found)
0x14000e7b3: add rax, 0x20 ; add rsp, 0x28 ; ret ; \x48\x83\xc0\x20\x48\x83\xc4\x28\xc3 (1 found)
0x14000e793: add rax, 0x24 ; add rsp, 0x28 ; ret ; \x48\x83\xc0\x24\x48\x83\xc4\x28\xc3 (1 found)
0x14000317d: add rax, 0x28 ; add rsp, 0x28 ; ret ; \x48\x83\xc0\x28\x48\x83\xc4\x28\xc3 (1 found)
0x140002e41: add rax, r12 ; lea rcx, qword [rsp+0x30] ; call rax ; \x49\x03\xc4\x48\x8d\x4c\x24\x30\xff\xd0 (1 found)
0x1400030f3: add rax, r8 ; ret ; \x49\x03\xc0\xc3 (1 found)
0x14000b9b9: add rax, rcx ; ret ; \x48\x03\xc1\xc3 (1 found)
0x14001b3ab: add rcx, r11 ; test edx, edx ; cmovne r9, rcx ; mov rax, r9 ; mov rbx, qword [rsp+0x08] ; ret ; \x49\x03\xcb\x85\xd2\x4c\x0f\x45\xc9\x49\x8b\xc1\x48\x8b\x5c\x24\x08\xc3 (1 found)
0x14001b4a0: add rcx, r8 ; mov r9d,  [r10+r8*4+0x00026360] ; add r9, r10 ; jmp r9 ; \x49\x03\xc8\x47\x8b\x8c\x82\x60\x63\x02\x00\x4d\x03\xca\x41\xff\xe1 (1 found)
0x140002ced: add rdx, r8 ; cmp byte [rdx], r10L ; cmove r9, rdx ; mov rax, r9 ; ret ; \x49\x03\xd0\x44\x38\x12\x4c\x0f\x44\xca\x49\x8b\xc1\xc3 (1 found)
0x14000b579: add rsp, 0x00000000000000B0 ; pop rdi ; pop rbx ; pop rbp ; ret ; \x48\x81\xc4\xb0\x00\x00\x00\x5f\x5b\x5d\xc3 (1 found)
0x14000b69d: add rsp, 0x00000000000000B0 ; pop rdi ; pop rbx ; pop rbp ; ret ; \x48\x81\xc4\xb0\x00\x00\x00\x5f\x5b\x5d\xc3 (1 found)
0x14000cbba: add rsp, 0x00000000000000B0 ; pop rdi ; pop rbx ; pop rbp ; ret ; \x48\x81\xc4\xb0\x00\x00\x00\x5f\x5b\x5d\xc3 (1 found)
0x140003b4a: add rsp, 0x00000000000000E0 ; pop rbp ; ret ; \x48\x81\xc4\xe0\x00\x00\x00\x5d\xc3 (1 found)
0x14000c650: add rsp, 0x0000000000000450 ; pop r14 ; pop r13 ; pop r12 ; ret ; \x48\x81\xc4\x50\x04\x00\x00\x41\x5e\x41\x5d\x41\x5c\xc3 (1 found)
0x1400025ef: add rsp, 0x00000000000005C0 ; pop rbp ; ret ; \x48\x81\xc4\xc0\x05\x00\x00\x5d\xc3 (1 found)
0x14001ab8b: add rsp, 0x08 ; ret ; \x48\x83\xc4\x08\xc3 (1 found)
0x140002a04: add rsp, 0x10 ; pop r14 ; pop rdi ; pop rbp ; ret ; \x40\x48\x83\xc4\x10\x41\x5e\x5f\x5d\xc3 (1 found)
0x140002a05: add rsp, 0x10 ; pop r14 ; pop rdi ; pop rbp ; ret ; \x48\x83\xc4\x10\x41\x5e\x5f\x5d\xc3 (1 found)
0x14001aaaa: add rsp, 0x10 ; pop rbx ; ret ; \x48\x83\xc4\x10\x5b\xc3 (1 found)
0x14001b259: add rsp, 0x10 ; ret ; \x48\x83\xc4\x10\xc3 (1 found)
0x1400022d7: add rsp, 0x18 ; ret ; \x48\x83\xc4\x18\xc3 (1 found)
0x14000408e: add rsp, 0x20 ; pop r14 ; ret ; \x40\x48\x83\xc4\x20\x41\x5e\xc3 (1 found)
0x14000408f: add rsp, 0x20 ; pop r14 ; ret ; \x48\x83\xc4\x20\x41\x5e\xc3 (1 found)
0x1400049e5: add rsp, 0x20 ; pop r14 ; ret ; \x48\x48\x83\xc4\x20\x41\x5e\xc3 (1 found)
0x1400049e6: add rsp, 0x20 ; pop r14 ; ret ; \x48\x83\xc4\x20\x41\x5e\xc3 (1 found)
0x1400054a5: add rsp, 0x20 ; pop r14 ; ret ; \x40\x48\x83\xc4\x20\x41\x5e\xc3 (1 found)
0x1400054a6: add rsp, 0x20 ; pop r14 ; ret ; \x48\x83\xc4\x20\x41\x5e\xc3 (1 found)
0x14000b9a3: add rsp, 0x20 ; pop r14 ; ret ; \x48\x48\x83\xc4\x20\x41\x5e\xc3 (1 found)
0x14000b9a4: add rsp, 0x20 ; pop r14 ; ret ; \x48\x83\xc4\x20\x41\x5e\xc3 (1 found)
0x14001082c: add rsp, 0x20 ; pop r14 ; ret ; \x48\x48\x83\xc4\x20\x41\x5e\xc3 (1 found)
0x14001082d: add rsp, 0x20 ; pop r14 ; ret ; \x48\x83\xc4\x20\x41\x5e\xc3 (1 found)
0x14001229a: add rsp, 0x20 ; pop r14 ; ret ; \x48\x48\x83\xc4\x20\x41\x5e\xc3 (1 found)
0x14001229b: add rsp, 0x20 ; pop r14 ; ret ; \x48\x83\xc4\x20\x41\x5e\xc3 (1 found)
0x140013025: add rsp, 0x20 ; pop r14 ; ret ; \x48\x83\xc4\x20\x41\x5e\xc3 (1 found)
0x140014c03: add rsp, 0x20 ; pop r14 ; ret ; \x48\x48\x83\xc4\x20\x41\x5e\xc3 (1 found)
0x140014c04: add rsp, 0x20 ; pop r14 ; ret ; \x48\x83\xc4\x20\x41\x5e\xc3 (1 found)
0x140014e26: add rsp, 0x20 ; pop r14 ; ret ; \x40\x48\x83\xc4\x20\x41\x5e\xc3 (1 found)
0x140014e27: add rsp, 0x20 ; pop r14 ; ret ; \x48\x83\xc4\x20\x41\x5e\xc3 (1 found)
0x14001b1f3: add rsp, 0x20 ; pop r14 ; ret ; \x48\x48\x83\xc4\x20\x41\x5e\xc3 (1 found)
0x14001b1f4: add rsp, 0x20 ; pop r14 ; ret ; \x48\x83\xc4\x20\x41\x5e\xc3 (1 found)
0x14000f60f: add rsp, 0x20 ; pop r15 ; pop r14 ; pop r12 ; ret ; \x48\x83\xc4\x20\x41\x5f\x41\x5e\x41\x5c\xc3 (1 found)
0x14001a3d8: add rsp, 0x20 ; pop r15 ; pop r14 ; pop r12 ; ret ; \x48\x83\xc4\x20\x41\x5f\x41\x5e\x41\x5c\xc3 (1 found)
0x14001a7bf: add rsp, 0x20 ; pop r15 ; pop r14 ; pop r12 ; ret ; \x48\x83\xc4\x20\x41\x5f\x41\x5e\x41\x5c\xc3 (1 found)
0x140012ac3: add rsp, 0x20 ; pop r15 ; pop r14 ; pop r13 ; ret ; \x48\x83\xc4\x20\x41\x5f\x41\x5e\x41\x5d\xc3 (1 found)
0x14000b373: add rsp, 0x20 ; pop r15 ; pop r14 ; pop rdi ; ret ; \x48\x83\xc4\x20\x41\x5f\x41\x5e\x5f\xc3 (1 found)
0x14000b453: add rsp, 0x20 ; pop r15 ; pop r14 ; pop rdi ; ret ; \x48\x83\xc4\x20\x41\x5f\x41\x5e\x5f\xc3 (1 found)
0x14000dcce: add rsp, 0x20 ; pop r15 ; pop r14 ; pop rdi ; ret ; \x48\x83\xc4\x20\x41\x5f\x41\x5e\x5f\xc3 (1 found)
0x14000ddee: add rsp, 0x20 ; pop r15 ; pop r14 ; pop rdi ; ret ; \x48\x83\xc4\x20\x41\x5f\x41\x5e\x5f\xc3 (1 found)
0x14000f3a4: add rsp, 0x20 ; pop r15 ; pop r14 ; pop rdi ; ret ; \x48\x83\xc4\x20\x41\x5f\x41\x5e\x5f\xc3 (1 found)
0x140017d94: add rsp, 0x20 ; pop r15 ; pop r14 ; pop rdi ; ret ; \x48\x83\xc4\x20\x41\x5f\x41\x5e\x5f\xc3 (1 found)
0x14001aef9: add rsp, 0x20 ; pop rbp ; ret ; \x48\x48\x83\xc4\x20\x5d\xc3 (1 found)
0x14001aefa: add rsp, 0x20 ; pop rbp ; ret ; \x48\x83\xc4\x20\x5d\xc3 (1 found)
0x14001bec7: add rsp, 0x20 ; pop rbp ; ret ; \x48\x83\xc4\x20\x5d\xc3 (1 found)
0x14001c042: add rsp, 0x20 ; pop rbp ; ret ; \x48\x83\xc4\x20\x5d\xc3 (1 found)
0x14001c0de: add rsp, 0x20 ; pop rbp ; ret ; \x48\x83\xc4\x20\x5d\xc3 (1 found)
0x14001c101: add rsp, 0x20 ; pop rbp ; ret ; \x48\x83\xc4\x20\x5d\xc3 (1 found)
0x14001c148: add rsp, 0x20 ; pop rbp ; ret ; \x48\x83\xc4\x20\x5d\xc3 (1 found)
0x14001c1e1: add rsp, 0x20 ; pop rbp ; ret ; \x48\x83\xc4\x20\x5d\xc3 (1 found)
0x14001c45e: add rsp, 0x20 ; pop rbp ; ret ; \x48\x83\xc4\x20\x5d\xc3 (1 found)
0x14001c519: add rsp, 0x20 ; pop rbp ; ret ; \x48\x83\xc4\x20\x5d\xc3 (1 found)
0x14001c545: add rsp, 0x20 ; pop rbp ; ret ; \x48\x83\xc4\x20\x5d\xc3 (1 found)
0x14001c569: add rsp, 0x20 ; pop rbp ; ret ; \x48\x83\xc4\x20\x5d\xc3 (1 found)
0x140001df5: add rsp, 0x20 ; pop rbx ; ret ; \x48\x83\xc4\x20\x5b\xc3 (1 found)
0x140002232: add rsp, 0x20 ; pop rbx ; ret ; \x48\x83\xc4\x20\x5b\xc3 (1 found)
0x1400022fa: add rsp, 0x20 ; pop rbx ; ret ; \x48\x83\xc4\x20\x5b\xc3 (1 found)
0x140002323: add rsp, 0x20 ; pop rbx ; ret ; \x48\x83\xc4\x20\x5b\xc3 (1 found)
0x140002360: add rsp, 0x20 ; pop rbx ; ret ; \x48\x83\xc4\x20\x5b\xc3 (1 found)
0x1400030c9: add rsp, 0x20 ; pop rbx ; ret ; \x48\x83\xc4\x20\x5b\xc3 (1 found)
0x1400033e4: add rsp, 0x20 ; pop rbx ; ret ; \x48\x83\xc4\x20\x5b\xc3 (1 found)
0x14000341d: add rsp, 0x20 ; pop rbx ; ret ; \x48\x83\xc4\x20\x5b\xc3 (1 found)
0x1400037e0: add rsp, 0x20 ; pop rbx ; ret ; \x48\x83\xc4\x20\x5b\xc3 (1 found)
0x140003b88: add rsp, 0x20 ; pop rbx ; ret ; \x48\x83\xc4\x20\x5b\xc3 (1 found)
0x140003c1e: add rsp, 0x20 ; pop rbx ; ret ; \x48\x83\xc4\x20\x5b\xc3 (1 found)
0x140003c36: add rsp, 0x20 ; pop rbx ; ret ; \x48\x83\xc4\x20\x5b\xc3 (1 found)
0x140003d1b: add rsp, 0x20 ; pop rbx ; ret ; \x48\x83\xc4\x20\x5b\xc3 (1 found)
0x140003dc9: add rsp, 0x20 ; pop rbx ; ret ; \x48\x83\xc4\x20\x5b\xc3 (1 found)
0x140004c66: add rsp, 0x20 ; pop rbx ; ret ; \x48\x83\xc4\x20\x5b\xc3 (1 found)
0x140004cb8: add rsp, 0x20 ; pop rbx ; ret ; \x48\x83\xc4\x20\x5b\xc3 (1 found)
0x140004fc5: add rsp, 0x20 ; pop rbx ; ret ; \x48\x83\xc4\x20\x5b\xc3 (1 found)
0x1400054cf: add rsp, 0x20 ; pop rbx ; ret ; \x48\x83\xc4\x20\x5b\xc3 (1 found)
0x14000ba15: add rsp, 0x20 ; pop rbx ; ret ; \x48\x83\xc4\x20\x5b\xc3 (1 found)
0x14000c191: add rsp, 0x20 ; pop rbx ; ret ; \x48\x83\xc4\x20\x5b\xc3 (1 found)
0x14000c1fc: add rsp, 0x20 ; pop rbx ; ret ; \x48\x83\xc4\x20\x5b\xc3 (1 found)
0x14000d1d3: add rsp, 0x20 ; pop rbx ; ret ; \x48\x83\xc4\x20\x5b\xc3 (1 found)
0x14000da6b: add rsp, 0x20 ; pop rbx ; ret ; \x48\x83\xc4\x20\x5b\xc3 (1 found)
0x14000df4b: add rsp, 0x20 ; pop rbx ; ret ; \x48\x83\xc4\x20\x5b\xc3 (1 found)
0x14000df96: add rsp, 0x20 ; pop rbx ; ret ; \x48\x83\xc4\x20\x5b\xc3 (1 found)
0x14000e0a0: add rsp, 0x20 ; pop rbx ; ret ; \x48\x83\xc4\x20\x5b\xc3 (1 found)
0x14000e202: add rsp, 0x20 ; pop rbx ; ret ; \x48\x83\xc4\x20\x5b\xc3 (1 found)
0x14000e255: add rsp, 0x20 ; pop rbx ; ret ; \x48\x83\xc4\x20\x5b\xc3 (1 found)
0x14000e2d5: add rsp, 0x20 ; pop rbx ; ret ; \x48\x83\xc4\x20\x5b\xc3 (1 found)
0x14000e751: add rsp, 0x20 ; pop rbx ; ret ; \x48\x83\xc4\x20\x5b\xc3 (1 found)
0x14000e774: add rsp, 0x20 ; pop rbx ; ret ; \x48\x83\xc4\x20\x5b\xc3 (1 found)
0x14000e7f2: add rsp, 0x20 ; pop rbx ; ret ; \x48\x83\xc4\x20\x5b\xc3 (1 found)
0x14000e850: add rsp, 0x20 ; pop rbx ; ret ; \x48\x83\xc4\x20\x5b\xc3 (1 found)
0x14000ea5b: add rsp, 0x20 ; pop rbx ; ret ; \x48\x83\xc4\x20\x5b\xc3 (1 found)
0x14000ea93: add rsp, 0x20 ; pop rbx ; ret ; \x48\x83\xc4\x20\x5b\xc3 (1 found)
0x14000eac7: add rsp, 0x20 ; pop rbx ; ret ; \x48\x83\xc4\x20\x5b\xc3 (1 found)
0x14000eaff: add rsp, 0x20 ; pop rbx ; ret ; \x48\x83\xc4\x20\x5b\xc3 (1 found)
0x14000fe53: add rsp, 0x20 ; pop rbx ; ret ; \x48\x83\xc4\x20\x5b\xc3 (1 found)
0x14000ff5b: add rsp, 0x20 ; pop rbx ; ret ; \x48\x83\xc4\x20\x5b\xc3 (1 found)
0x140010176: add rsp, 0x20 ; pop rbx ; ret ; \x48\x83\xc4\x20\x5b\xc3 (1 found)
0x140010446: add rsp, 0x20 ; pop rbx ; ret ; \x48\x83\xc4\x20\x5b\xc3 (1 found)
0x140010869: add rsp, 0x20 ; pop rbx ; ret ; \x48\x83\xc4\x20\x5b\xc3 (1 found)
0x14001091f: add rsp, 0x20 ; pop rbx ; ret ; \x48\x83\xc4\x20\x5b\xc3 (1 found)
0x140010b36: add rsp, 0x20 ; pop rbx ; ret ; \x48\x83\xc4\x20\x5b\xc3 (1 found)
0x140010e63: add rsp, 0x20 ; pop rbx ; ret ; \x48\x83\xc4\x20\x5b\xc3 (1 found)
0x140010f5c: add rsp, 0x20 ; pop rbx ; ret ; \x48\x83\xc4\x20\x5b\xc3 (1 found)
0x140011e90: add rsp, 0x20 ; pop rbx ; ret ; \x48\x83\xc4\x20\x5b\xc3 (1 found)
0x140014fc8: add rsp, 0x20 ; pop rbx ; ret ; \x48\x83\xc4\x20\x5b\xc3 (1 found)
0x140015036: add rsp, 0x20 ; pop rbx ; ret ; \x48\x83\xc4\x20\x5b\xc3 (1 found)
0x140015599: add rsp, 0x20 ; pop rbx ; ret ; \x48\x83\xc4\x20\x5b\xc3 (1 found)
0x14001595d: add rsp, 0x20 ; pop rbx ; ret ; \x48\x83\xc4\x20\x5b\xc3 (1 found)
0x140017b1e: add rsp, 0x20 ; pop rbx ; ret ; \x48\x83\xc4\x20\x5b\xc3 (1 found)
0x140019451: add rsp, 0x20 ; pop rbx ; ret ; \x48\x83\xc4\x20\x5b\xc3 (1 found)
0x140019472: add rsp, 0x20 ; pop rbx ; ret ; \x48\x83\xc4\x20\x5b\xc3 (1 found)
0x14001951a: add rsp, 0x20 ; pop rbx ; ret ; \x48\x83\xc4\x20\x5b\xc3 (1 found)
0x14001a51f: add rsp, 0x20 ; pop rbx ; ret ; \x48\x83\xc4\x20\x5b\xc3 (1 found)
0x14001af47: add rsp, 0x20 ; pop rbx ; ret ; \x48\x83\xc4\x20\x5b\xc3 (1 found)
0x14001b0f1: add rsp, 0x20 ; pop rbx ; ret ; \x48\x83\xc4\x20\x5b\xc3 (1 found)
0x1400026a7: add rsp, 0x20 ; pop rdi ; ret ; \x48\x83\xc4\x20\x5f\xc3 (1 found)
0x1400026fe: add rsp, 0x20 ; pop rdi ; ret ; \x48\x83\xc4\x20\x5f\xc3 (1 found)
0x14000273a: add rsp, 0x20 ; pop rdi ; ret ; \x48\x83\xc4\x20\x5f\xc3 (1 found)
0x14000313c: add rsp, 0x20 ; pop rdi ; ret ; \x48\x83\xc4\x20\x5f\xc3 (1 found)
0x140003331: add rsp, 0x20 ; pop rdi ; ret ; \x48\x83\xc4\x20\x5f\xc3 (1 found)
0x140003697: add rsp, 0x20 ; pop rdi ; ret ; \x48\x83\xc4\x20\x5f\xc3 (1 found)
0x1400036fb: add rsp, 0x20 ; pop rdi ; ret ; \x48\x83\xc4\x20\x5f\xc3 (1 found)
0x1400037b3: add rsp, 0x20 ; pop rdi ; ret ; \x40\x48\x83\xc4\x20\x5f\xc3 (1 found)
0x1400037b4: add rsp, 0x20 ; pop rdi ; ret ; \x48\x83\xc4\x20\x5f\xc3 (1 found)
0x140003846: add rsp, 0x20 ; pop rdi ; ret ; \x48\x83\xc4\x20\x5f\xc3 (1 found)
0x140003bd7: add rsp, 0x20 ; pop rdi ; ret ; \x48\x83\xc4\x20\x5f\xc3 (1 found)
0x140003d65: add rsp, 0x20 ; pop rdi ; ret ; \x48\x83\xc4\x20\x5f\xc3 (1 found)
0x140004d10: add rsp, 0x20 ; pop rdi ; ret ; \x48\x83\xc4\x20\x5f\xc3 (1 found)
0x140004d54: add rsp, 0x20 ; pop rdi ; ret ; \x48\x83\xc4\x20\x5f\xc3 (1 found)
0x1400051e7: add rsp, 0x20 ; pop rdi ; ret ; \x40\x48\x83\xc4\x20\x5f\xc3 (1 found)
0x1400051e8: add rsp, 0x20 ; pop rdi ; ret ; \x48\x83\xc4\x20\x5f\xc3 (1 found)
0x14000535d: add rsp, 0x20 ; pop rdi ; ret ; \x40\x48\x83\xc4\x20\x5f\xc3 (1 found)
0x14000535e: add rsp, 0x20 ; pop rdi ; ret ; \x48\x83\xc4\x20\x5f\xc3 (1 found)
0x1400055b2: add rsp, 0x20 ; pop rdi ; ret ; \x48\x83\xc4\x20\x5f\xc3 (1 found)
0x1400058cb: add rsp, 0x20 ; pop rdi ; ret ; \x48\x83\xc4\x20\x5f\xc3 (1 found)
0x14000590b: add rsp, 0x20 ; pop rdi ; ret ; \x48\x83\xc4\x20\x5f\xc3 (1 found)
0x140005b6d: add rsp, 0x20 ; pop rdi ; ret ; \x40\x48\x83\xc4\x20\x5f\xc3 (1 found)
0x140005b6e: add rsp, 0x20 ; pop rdi ; ret ; \x48\x83\xc4\x20\x5f\xc3 (1 found)
0x140005c19: add rsp, 0x20 ; pop rdi ; ret ; \x40\x48\x83\xc4\x20\x5f\xc3 (1 found)
0x140005c1a: add rsp, 0x20 ; pop rdi ; ret ; \x48\x83\xc4\x20\x5f\xc3 (1 found)
0x1400084bb: add rsp, 0x20 ; pop rdi ; ret ; \x48\x83\xc4\x20\x5f\xc3 (1 found)
0x14000a273: add rsp, 0x20 ; pop rdi ; ret ; \x48\x83\xc4\x20\x5f\xc3 (1 found)
0x14000a2f3: add rsp, 0x20 ; pop rdi ; ret ; \x48\x83\xc4\x20\x5f\xc3 (1 found)
0x14000a373: add rsp, 0x20 ; pop rdi ; ret ; \x48\x83\xc4\x20\x5f\xc3 (1 found)
0x14000ab72: add rsp, 0x20 ; pop rdi ; ret ; \x48\x83\xc4\x20\x5f\xc3 (1 found)
0x14000ac36: add rsp, 0x20 ; pop rdi ; ret ; \x48\x83\xc4\x20\x5f\xc3 (1 found)
0x14000acfa: add rsp, 0x20 ; pop rdi ; ret ; \x48\x83\xc4\x20\x5f\xc3 (1 found)
0x14000afbe: add rsp, 0x20 ; pop rdi ; ret ; \x48\x83\xc4\x20\x5f\xc3 (1 found)
0x14000b05a: add rsp, 0x20 ; pop rdi ; ret ; \x48\x83\xc4\x20\x5f\xc3 (1 found)
0x14000b0f6: add rsp, 0x20 ; pop rdi ; ret ; \x48\x83\xc4\x20\x5f\xc3 (1 found)
0x14000b169: add rsp, 0x20 ; pop rdi ; ret ; \x48\x83\xc4\x20\x5f\xc3 (1 found)
0x14000b1dd: add rsp, 0x20 ; pop rdi ; ret ; \x48\x83\xc4\x20\x5f\xc3 (1 found)
0x14000b251: add rsp, 0x20 ; pop rdi ; ret ; \x48\x83\xc4\x20\x5f\xc3 (1 found)
0x14000b2d0: add rsp, 0x20 ; pop rdi ; ret ; \x48\x83\xc4\x20\x5f\xc3 (1 found)
0x14000bac9: add rsp, 0x20 ; pop rdi ; ret ; \x48\x83\xc4\x20\x5f\xc3 (1 found)
0x14000bb66: add rsp, 0x20 ; pop rdi ; ret ; \x48\x83\xc4\x20\x5f\xc3 (1 found)
0x14000bd35: add rsp, 0x20 ; pop rdi ; ret ; \x40\x48\x83\xc4\x20\x5f\xc3 (1 found)
0x14000bd36: add rsp, 0x20 ; pop rdi ; ret ; \x48\x83\xc4\x20\x5f\xc3 (1 found)
0x14000bf36: add rsp, 0x20 ; pop rdi ; ret ; \x48\x83\xc4\x20\x5f\xc3 (1 found)
0x14000c15e: add rsp, 0x20 ; pop rdi ; ret ; \x48\x83\xc4\x20\x5f\xc3 (1 found)
0x14000c99f: add rsp, 0x20 ; pop rdi ; ret ; \x48\x83\xc4\x20\x5f\xc3 (1 found)
0x14000ca89: add rsp, 0x20 ; pop rdi ; ret ; \x48\x83\xc4\x20\x5f\xc3 (1 found)
0x14000cc14: add rsp, 0x20 ; pop rdi ; ret ; \x48\x83\xc4\x20\x5f\xc3 (1 found)
0x14000cc54: add rsp, 0x20 ; pop rdi ; ret ; \x48\x83\xc4\x20\x5f\xc3 (1 found)
0x14000cc73: add rsp, 0x20 ; pop rdi ; ret ; \x48\x83\xc4\x20\x5f\xc3 (1 found)
0x14000cc80: add rsp, 0x20 ; pop rdi ; ret ; \x48\x83\xc4\x20\x5f\xc3 (1 found)
0x14000cd04: add rsp, 0x20 ; pop rdi ; ret ; \x48\x83\xc4\x20\x5f\xc3 (1 found)
0x14000ce10: add rsp, 0x20 ; pop rdi ; ret ; \x40\x48\x83\xc4\x20\x5f\xc3 (1 found)
0x14000ce11: add rsp, 0x20 ; pop rdi ; ret ; \x48\x83\xc4\x20\x5f\xc3 (1 found)
0x14000d3c8: add rsp, 0x20 ; pop rdi ; ret ; \x48\x83\xc4\x20\x5f\xc3 (1 found)
0x14000d527: add rsp, 0x20 ; pop rdi ; ret ; \x48\x83\xc4\x20\x5f\xc3 (1 found)
0x14000d56b: add rsp, 0x20 ; pop rdi ; ret ; \x48\x83\xc4\x20\x5f\xc3 (1 found)
0x14000d77b: add rsp, 0x20 ; pop rdi ; ret ; \x48\x83\xc4\x20\x5f\xc3 (1 found)
0x14000d7c5: add rsp, 0x20 ; pop rdi ; ret ; \x48\x83\xc4\x20\x5f\xc3 (1 found)
0x14000dae5: add rsp, 0x20 ; pop rdi ; ret ; \x48\x83\xc4\x20\x5f\xc3 (1 found)
0x14000db21: add rsp, 0x20 ; pop rdi ; ret ; \x48\x83\xc4\x20\x5f\xc3 (1 found)
0x14000e33f: add rsp, 0x20 ; pop rdi ; ret ; \x40\x48\x83\xc4\x20\x5f\xc3 (1 found)
0x14000e340: add rsp, 0x20 ; pop rdi ; ret ; \x48\x83\xc4\x20\x5f\xc3 (1 found)
0x14000e38e: add rsp, 0x20 ; pop rdi ; ret ; \x48\x83\xc4\x20\x5f\xc3 (1 found)
0x14000ff1d: add rsp, 0x20 ; pop rdi ; ret ; \x48\x83\xc4\x20\x5f\xc3 (1 found)
0x14000ff9d: add rsp, 0x20 ; pop rdi ; ret ; \x48\x83\xc4\x20\x5f\xc3 (1 found)
0x14000ffdb: add rsp, 0x20 ; pop rdi ; ret ; \x48\x83\xc4\x20\x5f\xc3 (1 found)
0x140010023: add rsp, 0x20 ; pop rdi ; ret ; \x48\x83\xc4\x20\x5f\xc3 (1 found)
0x140010085: add rsp, 0x20 ; pop rdi ; ret ; \x48\x83\xc4\x20\x5f\xc3 (1 found)
0x1400102d5: add rsp, 0x20 ; pop rdi ; ret ; \x48\x83\xc4\x20\x5f\xc3 (1 found)
0x1400103a3: add rsp, 0x20 ; pop rdi ; ret ; \x48\x83\xc4\x20\x5f\xc3 (1 found)
0x140010516: add rsp, 0x20 ; pop rdi ; ret ; \x48\x83\xc4\x20\x5f\xc3 (1 found)
0x1400105d4: add rsp, 0x20 ; pop rdi ; ret ; \x48\x83\xc4\x20\x5f\xc3 (1 found)
0x1400108aa: add rsp, 0x20 ; pop rdi ; ret ; \x48\x83\xc4\x20\x5f\xc3 (1 found)
0x140010cb2: add rsp, 0x20 ; pop rdi ; ret ; \x48\x83\xc4\x20\x5f\xc3 (1 found)
0x140010dfb: add rsp, 0x20 ; pop rdi ; ret ; \x48\x83\xc4\x20\x5f\xc3 (1 found)
0x1400110dd: add rsp, 0x20 ; pop rdi ; ret ; \x48\x83\xc4\x20\x5f\xc3 (1 found)
0x140011f98: add rsp, 0x20 ; pop rdi ; ret ; \x40\x48\x83\xc4\x20\x5f\xc3 (1 found)
0x140011f99: add rsp, 0x20 ; pop rdi ; ret ; \x48\x83\xc4\x20\x5f\xc3 (1 found)
0x1400123b1: add rsp, 0x20 ; pop rdi ; ret ; \x48\x83\xc4\x20\x5f\xc3 (1 found)
0x1400125db: add rsp, 0x20 ; pop rdi ; ret ; \x48\x83\xc4\x20\x5f\xc3 (1 found)
0x140013aca: add rsp, 0x20 ; pop rdi ; ret ; \x48\x83\xc4\x20\x5f\xc3 (1 found)
0x140013fd3: add rsp, 0x20 ; pop rdi ; ret ; \x40\x48\x83\xc4\x20\x5f\xc3 (1 found)
0x140013fd4: add rsp, 0x20 ; pop rdi ; ret ; \x48\x83\xc4\x20\x5f\xc3 (1 found)
0x140014521: add rsp, 0x20 ; pop rdi ; ret ; \x40\x48\x83\xc4\x20\x5f\xc3 (1 found)
0x140014522: add rsp, 0x20 ; pop rdi ; ret ; \x48\x83\xc4\x20\x5f\xc3 (1 found)
0x140014a23: add rsp, 0x20 ; pop rdi ; ret ; \x48\x83\xc4\x20\x5f\xc3 (1 found)
0x140014a76: add rsp, 0x20 ; pop rdi ; ret ; \x48\x83\xc4\x20\x5f\xc3 (1 found)
0x140015068: add rsp, 0x20 ; pop rdi ; ret ; \x48\x83\xc4\x20\x5f\xc3 (1 found)
0x1400156d2: add rsp, 0x20 ; pop rdi ; ret ; \x48\x83\xc4\x20\x5f\xc3 (1 found)
0x14001573f: add rsp, 0x20 ; pop rdi ; ret ; \x48\x83\xc4\x20\x5f\xc3 (1 found)
0x1400157d6: add rsp, 0x20 ; pop rdi ; ret ; \x40\x48\x83\xc4\x20\x5f\xc3 (1 found)
0x1400157d7: add rsp, 0x20 ; pop rdi ; ret ; \x48\x83\xc4\x20\x5f\xc3 (1 found)
0x140015896: add rsp, 0x20 ; pop rdi ; ret ; \x48\x83\xc4\x20\x5f\xc3 (1 found)
0x1400158dc: add rsp, 0x20 ; pop rdi ; ret ; \x48\x83\xc4\x20\x5f\xc3 (1 found)
0x140015924: add rsp, 0x20 ; pop rdi ; ret ; \x48\x83\xc4\x20\x5f\xc3 (1 found)
0x1400159a6: add rsp, 0x20 ; pop rdi ; ret ; \x48\x83\xc4\x20\x5f\xc3 (1 found)
0x140015d41: add rsp, 0x20 ; pop rdi ; ret ; \x40\x48\x83\xc4\x20\x5f\xc3 (1 found)
0x140015d42: add rsp, 0x20 ; pop rdi ; ret ; \x48\x83\xc4\x20\x5f\xc3 (1 found)
0x14001760d: add rsp, 0x20 ; pop rdi ; ret ; \x48\x83\xc4\x20\x5f\xc3 (1 found)
0x1400179a4: add rsp, 0x20 ; pop rdi ; ret ; \x48\x48\x83\xc4\x20\x5f\xc3 (1 found)
0x1400179a5: add rsp, 0x20 ; pop rdi ; ret ; \x48\x83\xc4\x20\x5f\xc3 (1 found)
0x140017aa0: add rsp, 0x20 ; pop rdi ; ret ; \x48\x48\x83\xc4\x20\x5f\xc3 (1 found)
0x140017aa1: add rsp, 0x20 ; pop rdi ; ret ; \x48\x83\xc4\x20\x5f\xc3 (1 found)
0x140017be9: add rsp, 0x20 ; pop rdi ; ret ; \x48\x83\xc4\x20\x5f\xc3 (1 found)
0x140017cb6: add rsp, 0x20 ; pop rdi ; ret ; \x48\x83\xc4\x20\x5f\xc3 (1 found)
0x14001897e: add rsp, 0x20 ; pop rdi ; ret ; \x40\x48\x83\xc4\x20\x5f\xc3 (1 found)
0x14001897f: add rsp, 0x20 ; pop rdi ; ret ; \x48\x83\xc4\x20\x5f\xc3 (1 found)
0x140018e11: add rsp, 0x20 ; pop rdi ; ret ; \x48\x83\xc4\x20\x5f\xc3 (1 found)
0x1400193bb: add rsp, 0x20 ; pop rdi ; ret ; \x48\x83\xc4\x20\x5f\xc3 (1 found)
0x1400194ca: add rsp, 0x20 ; pop rdi ; ret ; \x48\x83\xc4\x20\x5f\xc3 (1 found)
0x14001a8e8: add rsp, 0x20 ; pop rdi ; ret ; \x48\x83\xc4\x20\x5f\xc3 (1 found)
0x14001afc5: add rsp, 0x20 ; pop rdi ; ret ; \x48\x48\x83\xc4\x20\x5f\xc3 (1 found)
0x14001afc6: add rsp, 0x20 ; pop rdi ; ret ; \x48\x83\xc4\x20\x5f\xc3 (1 found)
0x14001b097: add rsp, 0x20 ; pop rdi ; ret ; \x48\x83\xc4\x20\x5f\xc3 (1 found)
0x14001b295: add rsp, 0x20 ; pop rdi ; ret ; \x48\x83\xc4\x20\x5f\xc3 (1 found)
0x140015172: add rsp, 0x20 ; pop rsi ; ret ; \x48\x83\xc4\x20\x5e\xc3 (1 found)
0x14001bf74: add rsp, 0x28 ; pop rbp ; pop rbx ; ret ; \x48\x83\xc4\x28\x5d\x5b\xc3 (1 found)
0x14001c0c7: add rsp, 0x28 ; pop rbp ; pop rbx ; ret ; \x48\x83\xc4\x28\x5d\x5b\xc3 (1 found)
0x140001e13: add rsp, 0x28 ; ret ; \x48\x83\xc4\x28\xc3 (1 found)
0x140002170: add rsp, 0x28 ; ret ; \x48\x83\xc4\x28\xc3 (1 found)
0x1400021b1: add rsp, 0x28 ; ret ; \x48\x83\xc4\x28\xc3 (1 found)
0x14000237a: add rsp, 0x28 ; ret ; \x48\x83\xc4\x28\xc3 (1 found)
0x140002486: add rsp, 0x28 ; ret ; \x48\x83\xc4\x28\xc3 (1 found)
0x140002650: add rsp, 0x28 ; ret ; \x48\x83\xc4\x28\xc3 (1 found)
0x140002fe7: add rsp, 0x28 ; ret ; \x48\x83\xc4\x28\xc3 (1 found)
0x140003000: add rsp, 0x28 ; ret ; \x48\x83\xc4\x28\xc3 (1 found)
0x14000316d: add rsp, 0x28 ; ret ; \x48\x83\xc4\x28\xc3 (1 found)
0x140003181: add rsp, 0x28 ; ret ; \x48\x83\xc4\x28\xc3 (1 found)
0x140003256: add rsp, 0x28 ; ret ; \x48\x83\xc4\x28\xc3 (1 found)
0x14000326a: add rsp, 0x28 ; ret ; \x48\x83\xc4\x28\xc3 (1 found)
0x14000337a: add rsp, 0x28 ; ret ; \x48\x83\xc4\x28\xc3 (1 found)
0x14000339d: add rsp, 0x28 ; ret ; \x48\x83\xc4\x28\xc3 (1 found)
0x140003bf1: add rsp, 0x28 ; ret ; \x48\x83\xc4\x28\xc3 (1 found)
0x140003c05: add rsp, 0x28 ; ret ; \x48\x83\xc4\x28\xc3 (1 found)
0x140003cf2: add rsp, 0x28 ; ret ; \x48\x83\xc4\x28\xc3 (1 found)
0x14000541b: add rsp, 0x28 ; ret ; \x48\x83\xc4\x28\xc3 (1 found)
0x14000579c: add rsp, 0x28 ; ret ; \x48\x83\xc4\x28\xc3 (1 found)
0x14000587b: add rsp, 0x28 ; ret ; \x48\x83\xc4\x28\xc3 (1 found)
0x14000d645: add rsp, 0x28 ; ret ; \x48\x83\xc4\x28\xc3 (1 found)
0x14000d661: add rsp, 0x28 ; ret ; \x48\x83\xc4\x28\xc3 (1 found)
0x14000d69e: add rsp, 0x28 ; ret ; \x48\x83\xc4\x28\xc3 (1 found)
0x14000d731: add rsp, 0x28 ; ret ; \x48\x83\xc4\x28\xc3 (1 found)
0x14000d7f7: add rsp, 0x28 ; ret ; \x48\x83\xc4\x28\xc3 (1 found)
0x14000d834: add rsp, 0x28 ; ret ; \x48\x83\xc4\x28\xc3 (1 found)
0x14000d940: add rsp, 0x28 ; ret ; \x48\x83\xc4\x28\xc3 (1 found)
0x14000da01: add rsp, 0x28 ; ret ; \x48\x83\xc4\x28\xc3 (1 found)
0x14000daa2: add rsp, 0x28 ; ret ; \x48\x83\xc4\x28\xc3 (1 found)
0x14000deee: add rsp, 0x28 ; ret ; \x48\x83\xc4\x28\xc3 (1 found)
0x14000df07: add rsp, 0x28 ; ret ; \x48\x83\xc4\x28\xc3 (1 found)
0x14000dff2: add rsp, 0x28 ; ret ; \x48\x83\xc4\x28\xc3 (1 found)
0x14000e029: add rsp, 0x28 ; ret ; \x48\x83\xc4\x28\xc3 (1 found)
0x14000e797: add rsp, 0x28 ; ret ; \x48\x83\xc4\x28\xc3 (1 found)
0x14000e7b7: add rsp, 0x28 ; ret ; \x48\x83\xc4\x28\xc3 (1 found)
0x14000fc4e: add rsp, 0x28 ; ret ; \x48\x83\xc4\x28\xc3 (1 found)
0x140010610: add rsp, 0x28 ; ret ; \x48\x83\xc4\x28\xc3 (1 found)
0x140010635: add rsp, 0x28 ; ret ; \x48\x83\xc4\x28\xc3 (1 found)
0x14001403b: add rsp, 0x28 ; ret ; \x48\x83\xc4\x28\xc3 (1 found)
0x140014ea0: add rsp, 0x28 ; ret ; \x48\x83\xc4\x28\xc3 (1 found)
0x14001566b: add rsp, 0x28 ; ret ; \x48\x83\xc4\x28\xc3 (1 found)
0x1400157f7: add rsp, 0x28 ; ret ; \x48\x83\xc4\x28\xc3 (1 found)
0x1400159d5: add rsp, 0x28 ; ret ; \x48\x83\xc4\x28\xc3 (1 found)
0x140017d16: add rsp, 0x28 ; ret ; \x48\x83\xc4\x28\xc3 (1 found)
0x14001818a: add rsp, 0x28 ; ret ; \x48\x83\xc4\x28\xc3 (1 found)
0x140018203: add rsp, 0x28 ; ret ; \x48\x83\xc4\x28\xc3 (1 found)
0x1400191f6: add rsp, 0x28 ; ret ; \x48\x83\xc4\x28\xc3 (1 found)
0x140019223: add rsp, 0x28 ; ret ; \x48\x83\xc4\x28\xc3 (1 found)
0x140019359: add rsp, 0x28 ; ret ; \x48\x83\xc4\x28\xc3 (1 found)
0x14001a0f3: add rsp, 0x28 ; ret ; \x48\x83\xc4\x28\xc3 (1 found)
0x14001af2b: add rsp, 0x28 ; ret ; \x48\x83\xc4\x28\xc3 (1 found)
0x14001aff8: add rsp, 0x28 ; ret ; \x48\x83\xc4\x28\xc3 (1 found)
0x14001b110: add rsp, 0x28 ; ret ; \x48\x83\xc4\x28\xc3 (1 found)
0x1400188a3: add rsp, 0x30 ; pop r14 ; pop rdi ; pop rsi ; ret ; \x48\x83\xc4\x30\x41\x5e\x5f\x5e\xc3 (1 found)
0x1400065da: add rsp, 0x30 ; pop r14 ; ret ; \x48\x83\xc4\x30\x41\x5e\xc3 (1 found)
0x1400067e6: add rsp, 0x30 ; pop r14 ; ret ; \x48\x83\xc4\x30\x41\x5e\xc3 (1 found)
0x1400069f2: add rsp, 0x30 ; pop r14 ; ret ; \x48\x83\xc4\x30\x41\x5e\xc3 (1 found)
0x140006bfe: add rsp, 0x30 ; pop r14 ; ret ; \x48\x83\xc4\x30\x41\x5e\xc3 (1 found)
0x140006e0a: add rsp, 0x30 ; pop r14 ; ret ; \x48\x83\xc4\x30\x41\x5e\xc3 (1 found)
0x140007016: add rsp, 0x30 ; pop r14 ; ret ; \x48\x83\xc4\x30\x41\x5e\xc3 (1 found)
0x140007222: add rsp, 0x30 ; pop r14 ; ret ; \x48\x83\xc4\x30\x41\x5e\xc3 (1 found)
0x14000742e: add rsp, 0x30 ; pop r14 ; ret ; \x48\x83\xc4\x30\x41\x5e\xc3 (1 found)
0x14000763a: add rsp, 0x30 ; pop r14 ; ret ; \x48\x83\xc4\x30\x41\x5e\xc3 (1 found)
0x14000891e: add rsp, 0x30 ; pop r14 ; ret ; \x48\x83\xc4\x30\x41\x5e\xc3 (1 found)
0x140008bf0: add rsp, 0x30 ; pop r14 ; ret ; \x48\x83\xc4\x30\x41\x5e\xc3 (1 found)
0x140008ec7: add rsp, 0x30 ; pop r14 ; ret ; \x48\x83\xc4\x30\x41\x5e\xc3 (1 found)
0x14000be5f: add rsp, 0x30 ; pop r14 ; ret ; \x48\x83\xc4\x30\x41\x5e\xc3 (1 found)
0x14000fc25: add rsp, 0x30 ; pop r14 ; ret ; \x48\x83\xc4\x30\x41\x5e\xc3 (1 found)
0x1400148c5: add rsp, 0x30 ; pop r14 ; ret ; \x48\x83\xc4\x30\x41\x5e\xc3 (1 found)
0x140014d67: add rsp, 0x30 ; pop r15 ; pop r14 ; pop r12 ; ret ; \x48\x83\xc4\x30\x41\x5f\x41\x5e\x41\x5c\xc3 (1 found)
0x140003faf: add rsp, 0x30 ; pop r15 ; pop r14 ; pop r13 ; ret ; \x48\x83\xc4\x30\x41\x5f\x41\x5e\x41\x5d\xc3 (1 found)
0x14000f019: add rsp, 0x30 ; pop r15 ; pop r14 ; pop r13 ; ret ; \x48\x83\xc4\x30\x41\x5f\x41\x5e\x41\x5d\xc3 (1 found)
0x14000d4ce: add rsp, 0x30 ; pop r15 ; pop r14 ; pop rdi ; ret ; \x48\x83\xc4\x30\x41\x5f\x41\x5e\x5f\xc3 (1 found)
0x14001869d: add rsp, 0x30 ; pop r15 ; pop r14 ; pop rdi ; ret ; \x48\x83\xc4\x30\x41\x5f\x41\x5e\x5f\xc3 (1 found)
0x14000c92f: add rsp, 0x30 ; pop r15 ; ret ; \x48\x83\xc4\x30\x41\x5f\xc3 (1 found)
0x140014abd: add rsp, 0x30 ; pop r15 ; ret ; \x48\x83\xc4\x30\x41\x5f\xc3 (1 found)
0x140002426: add rsp, 0x30 ; pop rbp ; ret ; \x48\x83\xc4\x30\x5d\xc3 (1 found)
0x140005677: add rsp, 0x30 ; pop rbx ; ret ; \x48\x83\xc4\x30\x5b\xc3 (1 found)
0x14000580d: add rsp, 0x30 ; pop rbx ; ret ; \x48\x83\xc4\x30\x5b\xc3 (1 found)
0x14000104c: add rsp, 0x30 ; pop rdi ; pop rsi ; pop rbx ; ret ; \x48\x83\xc4\x30\x5f\x5e\x5b\xc3 (1 found)
0x140001f84: add rsp, 0x30 ; pop rdi ; ret ; \x48\x48\x83\xc4\x30\x5f\xc3 (1 found)
0x140001f85: add rsp, 0x30 ; pop rdi ; ret ; \x48\x83\xc4\x30\x5f\xc3 (1 found)
0x140008550: add rsp, 0x30 ; pop rdi ; ret ; \x48\x83\xc4\x30\x5f\xc3 (1 found)
0x1400085e0: add rsp, 0x30 ; pop rdi ; ret ; \x48\x83\xc4\x30\x5f\xc3 (1 found)
0x140008670: add rsp, 0x30 ; pop rdi ; ret ; \x48\x83\xc4\x30\x5f\xc3 (1 found)
0x14000ada8: add rsp, 0x30 ; pop rdi ; ret ; \x40\x48\x83\xc4\x30\x5f\xc3 (1 found)
0x14000ada9: add rsp, 0x30 ; pop rdi ; ret ; \x48\x83\xc4\x30\x5f\xc3 (1 found)
0x14000ae60: add rsp, 0x30 ; pop rdi ; ret ; \x40\x48\x83\xc4\x30\x5f\xc3 (1 found)
0x14000ae61: add rsp, 0x30 ; pop rdi ; ret ; \x48\x83\xc4\x30\x5f\xc3 (1 found)
0x14000af18: add rsp, 0x30 ; pop rdi ; ret ; \x40\x48\x83\xc4\x30\x5f\xc3 (1 found)
0x14000af19: add rsp, 0x30 ; pop rdi ; ret ; \x48\x83\xc4\x30\x5f\xc3 (1 found)
0x14000bf7e: add rsp, 0x30 ; pop rdi ; ret ; \x48\x48\x83\xc4\x30\x5f\xc3 (1 found)
0x14000bf7f: add rsp, 0x30 ; pop rdi ; ret ; \x48\x83\xc4\x30\x5f\xc3 (1 found)
0x14000c056: add rsp, 0x30 ; pop rdi ; ret ; \x48\x48\x83\xc4\x30\x5f\xc3 (1 found)
0x14000c057: add rsp, 0x30 ; pop rdi ; ret ; \x48\x83\xc4\x30\x5f\xc3 (1 found)
0x14000d5a8: add rsp, 0x30 ; pop rdi ; ret ; \x48\x83\xc4\x30\x5f\xc3 (1 found)
0x14000d9c3: add rsp, 0x30 ; pop rdi ; ret ; \x48\x48\x83\xc4\x30\x5f\xc3 (1 found)
0x14000d9c4: add rsp, 0x30 ; pop rdi ; ret ; \x48\x83\xc4\x30\x5f\xc3 (1 found)
0x14000e604: add rsp, 0x30 ; pop rdi ; ret ; \x48\x83\xc4\x30\x5f\xc3 (1 found)
0x140010f17: add rsp, 0x30 ; pop rdi ; ret ; \x48\x48\x83\xc4\x30\x5f\xc3 (1 found)
0x140010f18: add rsp, 0x30 ; pop rdi ; ret ; \x48\x83\xc4\x30\x5f\xc3 (1 found)
0x140015e52: add rsp, 0x30 ; pop rdi ; ret ; \x48\x83\xc4\x30\x5f\xc3 (1 found)
0x14001800b: add rsp, 0x30 ; pop rdi ; ret ; \x48\x83\xc4\x30\x5f\xc3 (1 found)
0x1400020c6: add rsp, 0x38 ; ret ; \x48\x83\xc4\x38\xc3 (1 found)
0x1400090a8: add rsp, 0x38 ; ret ; \x48\x83\xc4\x38\xc3 (1 found)
0x140009258: add rsp, 0x38 ; ret ; \x48\x83\xc4\x38\xc3 (1 found)
0x140009408: add rsp, 0x38 ; ret ; \x48\x83\xc4\x38\xc3 (1 found)
0x14000de46: add rsp, 0x38 ; ret ; \x48\x83\xc4\x38\xc3 (1 found)
0x14000e679: add rsp, 0x38 ; ret ; \x48\x83\xc4\x38\xc3 (1 found)
0x140011170: add rsp, 0x38 ; ret ; \x48\x83\xc4\x38\xc3 (1 found)
0x140018da5: add rsp, 0x38 ; ret ; \x48\x83\xc4\x38\xc3 (1 found)
0x14001aacb: add rsp, 0x38 ; ret ; \x48\x83\xc4\x38\xc3 (1 found)
0x14000f9fc: add rsp, 0x40 ; pop r14 ; pop rdi ; pop rsi ; ret ; \x48\x83\xc4\x40\x41\x5e\x5f\x5e\xc3 (1 found)
0x14001836a: add rsp, 0x40 ; pop r15 ; pop r14 ; pop r12 ; ret ; \x48\x83\xc4\x40\x41\x5f\x41\x5e\x41\x5c\xc3 (1 found)
0x14000bca7: add rsp, 0x40 ; pop rbp ; ret ; \x48\x83\xc4\x40\x5d\xc3 (1 found)
0x14000deb6: add rsp, 0x40 ; pop rbp ; ret ; \x48\x83\xc4\x40\x5d\xc3 (1 found)
0x14001026b: add rsp, 0x40 ; pop rbp ; ret ; \x48\x83\xc4\x40\x5d\xc3 (1 found)
0x14001c4ed: add rsp, 0x40 ; pop rbp ; ret ; \x48\x83\xc4\x40\x5d\xc3 (1 found)
0x140001184: add rsp, 0x40 ; pop rbx ; ret ; \x48\x83\xc4\x40\x5b\xc3 (1 found)
0x140013a2f: add rsp, 0x40 ; pop rbx ; ret ; \x48\x83\xc4\x40\x5b\xc3 (1 found)
0x140017709: add rsp, 0x40 ; pop rbx ; ret ; \x48\x83\xc4\x40\x5b\xc3 (1 found)
0x14001a0d4: add rsp, 0x40 ; pop rbx ; ret ; \x48\x83\xc4\x40\x5b\xc3 (1 found)
0x14001c019: add rsp, 0x40 ; pop rdi ; pop rbp ; pop rbx ; ret ; \x45\x44\x48\x83\xc4\x40\x5f\x5d\x5b\xc3 (1 found)
0x14001c01a: add rsp, 0x40 ; pop rdi ; pop rbp ; pop rbx ; ret ; \x44\x48\x83\xc4\x40\x5f\x5d\x5b\xc3 (1 found)
0x14001c01b: add rsp, 0x40 ; pop rdi ; pop rbp ; pop rbx ; ret ; \x48\x83\xc4\x40\x5f\x5d\x5b\xc3 (1 found)
0x140002135: add rsp, 0x40 ; pop rdi ; pop rsi ; pop rbx ; ret ; \x48\x83\xc4\x40\x5f\x5e\x5b\xc3 (1 found)
0x1400010b2: add rsp, 0x40 ; pop rdi ; ret ; \x48\x83\xc4\x40\x5f\xc3 (1 found)
0x140001308: add rsp, 0x40 ; pop rdi ; ret ; \x48\x83\xc4\x40\x5f\xc3 (1 found)
0x140001323: add rsp, 0x40 ; pop rdi ; ret ; \x48\x83\xc4\x40\x5f\xc3 (1 found)
0x140003cbc: add rsp, 0x40 ; pop rdi ; ret ; \x48\x83\xc4\x40\x5f\xc3 (1 found)
0x1400139b0: add rsp, 0x40 ; pop rdi ; ret ; \x48\x83\xc4\x40\x5f\xc3 (1 found)
0x14001a1b0: add rsp, 0x40 ; pop rdi ; ret ; \x48\x83\xc4\x40\x5f\xc3 (1 found)
0x1400011c0: add rsp, 0x48 ; ret ; \x48\x83\xc4\x48\xc3 (1 found)
0x140003098: add rsp, 0x48 ; ret ; \x48\x83\xc4\x48\xc3 (1 found)
0x14001abf2: add rsp, 0x48 ; ret ; \x48\x83\xc4\x48\xc3 (1 found)
0x14000ef95: add rsp, 0x50 ; pop r14 ; ret ; \x48\x83\xc4\x50\x41\x5e\xc3 (1 found)
0x14001a4b2: add rsp, 0x50 ; pop r14 ; ret ; \x48\x83\xc4\x50\x41\x5e\xc3 (1 found)
0x14000f4fb: add rsp, 0x50 ; pop r15 ; ret ; \x48\x83\xc4\x50\x41\x5f\xc3 (1 found)
0x14000573b: add rsp, 0x50 ; pop rbp ; ret ; \x48\x83\xc4\x50\x5d\xc3 (1 found)
0x140010153: add rsp, 0x50 ; pop rbp ; ret ; \x48\x83\xc4\x50\x5d\xc3 (1 found)
0x14001a82a: add rsp, 0x50 ; pop rbx ; ret ; \x40\x48\x83\xc4\x50\x5b\xc3 (1 found)
0x14001a82b: add rsp, 0x50 ; pop rbx ; ret ; \x48\x83\xc4\x50\x5b\xc3 (1 found)
0x140005579: add rsp, 0x50 ; pop rdi ; ret ; \x48\x83\xc4\x50\x5f\xc3 (1 found)
0x14000f24f: add rsp, 0x50 ; pop rdi ; ret ; \x48\x83\xc4\x50\x5f\xc3 (1 found)
0x14000f8e5: add rsp, 0x50 ; pop rdi ; ret ; \x48\x83\xc4\x50\x5f\xc3 (1 found)
0x140010c22: add rsp, 0x50 ; pop rdi ; ret ; \x48\x83\xc4\x50\x5f\xc3 (1 found)
0x140010d9e: add rsp, 0x50 ; pop rdi ; ret ; \x48\x83\xc4\x50\x5f\xc3 (1 found)
0x14001233a: add rsp, 0x50 ; pop rdi ; ret ; \x48\x83\xc4\x50\x5f\xc3 (1 found)
0x140017e41: add rsp, 0x50 ; pop rdi ; ret ; \x48\x83\xc4\x50\x5f\xc3 (1 found)
0x1400183a7: add rsp, 0x50 ; pop rdi ; ret ; \x48\x83\xc4\x50\x5f\xc3 (1 found)
0x140019336: add rsp, 0x50 ; pop rdi ; ret ; \x48\x83\xc4\x50\x5f\xc3 (1 found)
0x140011050: add rsp, 0x58 ; ret ; \x48\x83\xc4\x58\xc3 (1 found)
0x140012474: add rsp, 0x58 ; ret ; \x48\x83\xc4\x58\xc3 (1 found)
0x14001976d: add rsp, 0x58 ; ret ; \x48\x83\xc4\x58\xc3 (1 found)
0x140019842: add rsp, 0x58 ; ret ; \x48\x83\xc4\x58\xc3 (1 found)
0x1400198e6: add rsp, 0x58 ; ret ; \x48\x83\xc4\x58\xc3 (1 found)
0x140019a2a: add rsp, 0x58 ; ret ; \x48\x83\xc4\x58\xc3 (1 found)
0x140019ad4: add rsp, 0x58 ; ret ; \x48\x83\xc4\x58\xc3 (1 found)
0x140019b2c: add rsp, 0x58 ; ret ; \x48\x83\xc4\x58\xc3 (1 found)
0x140019b5a: add rsp, 0x58 ; ret ; \x48\x83\xc4\x58\xc3 (1 found)
0x140019b96: add rsp, 0x58 ; ret ; \x48\x83\xc4\x58\xc3 (1 found)
0x14000bc44: add rsp, 0x60 ; pop r14 ; pop rdi ; pop rsi ; ret ; \x48\x83\xc4\x60\x41\x5e\x5f\x5e\xc3 (1 found)
0x14000be08: add rsp, 0x60 ; pop rbp ; ret ; \x48\x83\xc4\x60\x5d\xc3 (1 found)
0x14000c0f2: add rsp, 0x60 ; pop rbp ; ret ; \x48\x83\xc4\x60\x5d\xc3 (1 found)
0x140011a12: add rsp, 0x60 ; pop rbp ; ret ; \x48\x83\xc4\x60\x5d\xc3 (1 found)
0x14001250e: add rsp, 0x60 ; pop rbp ; ret ; \x48\x83\xc4\x60\x5d\xc3 (1 found)
0x1400180a8: add rsp, 0x60 ; pop rbp ; ret ; \x48\x83\xc4\x60\x5d\xc3 (1 found)
0x140018144: add rsp, 0x60 ; pop rbp ; ret ; \x48\x83\xc4\x60\x5d\xc3 (1 found)
0x14001a24a: add rsp, 0x60 ; pop rbp ; ret ; \x48\x83\xc4\x60\x5d\xc3 (1 found)
0x14001ab61: add rsp, 0x68 ; ret ; \x48\x83\xc4\x68\xc3 (1 found)
0x14000e58d: add rsp, 0x70 ; pop rbp ; ret ; \x48\x83\xc4\x70\x5d\xc3 (1 found)
0x14000374e: add rsp, 0x70 ; pop rbx ; ret ; \x40\x48\x83\xc4\x70\x5b\xc3 (1 found)
0x14000374f: add rsp, 0x70 ; pop rbx ; ret ; \x48\x83\xc4\x70\x5b\xc3 (1 found)
0x1400195da: addps xmm0,  [0x0000000140023D28] ; ret ; \x0f\x58\x05\x47\xa7\x00\x00\xc3 (1 found)
0x140019835: addps xmm0, xmm1 ; addsd xmm0, xmm3 ; movdqa xmm6,  [rsp+0x20] ; add rsp, 0x58 ; ret ; \x0f\x58\xc1\xf2\x0f\x58\xc3\x66\x0f\x6f\x74\x24\x20\x48\x83\xc4\x58\xc3 (1 found)
0x140019764: addps xmm0, xmm2 ; movdqa xmm6,  [rsp+0x20] ; add rsp, 0x58 ; ret ; \x0f\x58\xc2\x66\x0f\x6f\x74\x24\x20\x48\x83\xc4\x58\xc3 (1 found)
0x140019839: addps xmm0, xmm3 ; movdqa xmm6,  [rsp+0x20] ; add rsp, 0x58 ; ret ; \x0f\x58\xc3\x66\x0f\x6f\x74\x24\x20\x48\x83\xc4\x58\xc3 (1 found)
0x140019831: addps xmm0, xmm4 ; addsd xmm0, xmm1 ; addsd xmm0, xmm3 ; movdqa xmm6,  [rsp+0x20] ; add rsp, 0x58 ; ret ; \x0f\x58\xc4\xf2\x0f\x58\xc1\xf2\x0f\x58\xc3\x66\x0f\x6f\x74\x24\x20\x48\x83\xc4\x58\xc3 (1 found)
0x14001975c: addps xmm0, xmm4 ; addsd xmm2, xmm5 ; addsd xmm0, xmm2 ; movdqa xmm6,  [rsp+0x20] ; add rsp, 0x58 ; ret ; \x0f\x58\xc4\xf2\x0f\x58\xd5\xf2\x0f\x58\xc2\x66\x0f\x6f\x74\x24\x20\x48\x83\xc4\x58\xc3 (1 found)
0x140019760: addps xmm2, xmm5 ; addsd xmm0, xmm2 ; movdqa xmm6,  [rsp+0x20] ; add rsp, 0x58 ; ret ; \x0f\x58\xd5\xf2\x0f\x58\xc2\x66\x0f\x6f\x74\x24\x20\x48\x83\xc4\x58\xc3 (1 found)
0x1400195d9: addsd xmm0, qword [0x0000000140023D28] ; ret ; \xf2\x0f\x58\x05\x47\xa7\x00\x00\xc3 (1 found)
0x140019834: addsd xmm0, xmm1 ; addsd xmm0, xmm3 ; movdqa xmm6,  [rsp+0x20] ; add rsp, 0x58 ; ret ; \xf2\x0f\x58\xc1\xf2\x0f\x58\xc3\x66\x0f\x6f\x74\x24\x20\x48\x83\xc4\x58\xc3 (1 found)
0x140019763: addsd xmm0, xmm2 ; movdqa xmm6,  [rsp+0x20] ; add rsp, 0x58 ; ret ; \xf2\x0f\x58\xc2\x66\x0f\x6f\x74\x24\x20\x48\x83\xc4\x58\xc3 (1 found)
0x140019838: addsd xmm0, xmm3 ; movdqa xmm6,  [rsp+0x20] ; add rsp, 0x58 ; ret ; \xf2\x0f\x58\xc3\x66\x0f\x6f\x74\x24\x20\x48\x83\xc4\x58\xc3 (1 found)
0x140019830: addsd xmm0, xmm4 ; addsd xmm0, xmm1 ; addsd xmm0, xmm3 ; movdqa xmm6,  [rsp+0x20] ; add rsp, 0x58 ; ret ; \xf2\x0f\x58\xc4\xf2\x0f\x58\xc1\xf2\x0f\x58\xc3\x66\x0f\x6f\x74\x24\x20\x48\x83\xc4\x58\xc3 (1 found)
0x14001975b: addsd xmm0, xmm4 ; addsd xmm2, xmm5 ; addsd xmm0, xmm2 ; movdqa xmm6,  [rsp+0x20] ; add rsp, 0x58 ; ret ; \xf2\x0f\x58\xc4\xf2\x0f\x58\xd5\xf2\x0f\x58\xc2\x66\x0f\x6f\x74\x24\x20\x48\x83\xc4\x58\xc3 (1 found)
0x14001975f: addsd xmm2, xmm5 ; addsd xmm0, xmm2 ; movdqa xmm6,  [rsp+0x20] ; add rsp, 0x58 ; ret ; \xf2\x0f\x58\xd5\xf2\x0f\x58\xc2\x66\x0f\x6f\x74\x24\x20\x48\x83\xc4\x58\xc3 (1 found)
0x1400024a8: and  [0x000000014002B108], 0x00000000 ; ret ; \x83\x25\x59\x8c\x02\x00\x00\xc3 (1 found)
0x14000ba0e: and  [0x000000014002B2A0], 0x00000000 ; add rsp, 0x20 ; pop rbx ; ret ; \x83\x25\x8b\xf8\x01\x00\x00\x48\x83\xc4\x20\x5b\xc3 (1 found)
0x14000dfe9: and  [0x000000014002B508], 0x00000000 ; mov al, 0x01 ; add rsp, 0x28 ; ret ; \x83\x25\x18\xd5\x01\x00\x00\xb0\x01\x48\x83\xc4\x28\xc3 (1 found)
0x1400157fd: and  [0x000000014002BDB8], 0x00000000 ; mov al, 0x01 ; ret ; \x83\x25\xb4\x65\x01\x00\x00\xb0\x01\xc3 (1 found)
0x14001af27: and  [rax], eax ; add byte [rax], al ; add rsp, 0x28 ; ret ; \x21\x00\x00\x00\x48\x83\xc4\x28\xc3 (1 found)
0x140019e9a: and  [rax], eax ; or rax, 0xFFFFFFFFFFFFFFFF ; mov byte [rdx+0x30], 0x01 ; mov  [rdx+0x2C], 0x0000002A ; ret ; \x21\x00\x48\x83\xc8\xff\xc6\x42\x30\x01\xc7\x42\x2c\x2a\x00\x00\x00\xc3 (1 found)
0x14000ff53: and  [rbx+0x08], 0x00000000 ; and qword [rbx], 0x0000000000000000 ; add rsp, 0x20 ; pop rbx ; ret ; \x83\x63\x08\x00\x48\x83\x23\x00\x48\x83\xc4\x20\x5b\xc3 (1 found)
0x140018e05: and  [rbx+0x10], 0x00000000 ; mov qword [rbx], rax ; mov rbx, qword [rsp+0x30] ; add rsp, 0x20 ; pop rdi ; ret ; \x83\x63\x10\x00\x48\x89\x03\x48\x8b\x5c\x24\x30\x48\x83\xc4\x20\x5f\xc3 (1 found)
0x14000ff4e: and  [rbx+0x20], 0x00000000 ; and qword [rbx+0x08], 0x0000000000000000 ; and qword [rbx], 0x0000000000000000 ; add rsp, 0x20 ; pop rbx ; ret ; \x83\x63\x20\x00\x48\x83\x63\x08\x00\x48\x83\x23\x00\x48\x83\xc4\x20\x5b\xc3 (1 found)
0x14000ff58: and  [rbx], 0x00000000 ; add rsp, 0x20 ; pop rbx ; ret ; \x83\x23\x00\x48\x83\xc4\x20\x5b\xc3 (1 found)
0x1400054c8: and  [rbx], 0x00000000 ; mov byte [rbx+0x08], 0x00 ; add rsp, 0x20 ; pop rbx ; ret ; \x83\x23\x00\xc6\x43\x08\x00\x48\x83\xc4\x20\x5b\xc3 (1 found)
0x140013a26: and  [rcx+0x000003A8], 0xFFFFFFFD ; mov eax, ebx ; add rsp, 0x40 ; pop rbx ; ret ; \x83\xa1\xa8\x03\x00\x00\xfd\x8b\xc3\x48\x83\xc4\x40\x5b\xc3 (1 found)
0x140011046: and  [rcx+0x000003A8], 0xFFFFFFFD ; movzx eax, dx ; add rsp, 0x58 ; ret ; \x83\xa1\xa8\x03\x00\x00\xfd\x0f\xb7\xc2\x48\x83\xc4\x58\xc3 (1 found)
0x140019e99: and  [rcx], 0x00000000 ; or rax, 0xFFFFFFFFFFFFFFFF ; mov byte [rdx+0x30], 0x01 ; mov  [rdx+0x2C], 0x0000002A ; ret ; \x83\x21\x00\x48\x83\xc8\xff\xc6\x42\x30\x01\xc7\x42\x2c\x2a\x00\x00\x00\xc3 (1 found)
0x140019e91: and  [rdx], 0x00000000 ; mov rax, rcx ; ret ; \x83\x22\x00\x48\x8b\xc1\xc3 (1 found)
0x14001aba4: and  [rsp+0x08], ecx ; ldmxcsr  [rsp+0x08] ; ret ; \x21\x4c\x24\x08\x0f\xae\x54\x24\x08\xc3 (1 found)
0x14000e1fc: and al, 0x00 ; add byte [rax], al ; xor al, al ; add rsp, 0x20 ; pop rbx ; ret ; \x24\x00\x00\x00\x32\xc0\x48\x83\xc4\x20\x5b\xc3 (1 found)
0x14000e28e: and al, 0x01 ; ret ; \x24\x01\xc3 (1 found)
0x14001b257: and al, 0x08 ; add rsp, 0x10 ; ret ; \x24\x08\x48\x83\xc4\x10\xc3 (1 found)
0x140019e10: and al, 0x08 ; ldmxcsr  [rsp+0x08] ; ret ; \x44\x24\x08\x0f\xae\x54\x24\x08\xc3 (1 found)
0x140019e11: and al, 0x08 ; ldmxcsr  [rsp+0x08] ; ret ; \x24\x08\x0f\xae\x54\x24\x08\xc3 (1 found)
0x140019e86: and al, 0x08 ; ldmxcsr  [rsp+0x08] ; ret ; \x44\x24\x08\x0f\xae\x54\x24\x08\xc3 (1 found)
0x140019e87: and al, 0x08 ; ldmxcsr  [rsp+0x08] ; ret ; \x24\x08\x0f\xae\x54\x24\x08\xc3 (1 found)
0x14001ab91: and al, 0x08 ; ldmxcsr  [rsp+0x08] ; ret ; \x4c\x24\x08\x0f\xae\x54\x24\x08\xc3 (1 found)
0x14001ab92: and al, 0x08 ; ldmxcsr  [rsp+0x08] ; ret ; \x24\x08\x0f\xae\x54\x24\x08\xc3 (1 found)
0x14001aba5: and al, 0x08 ; ldmxcsr  [rsp+0x08] ; ret ; \x4c\x24\x08\x0f\xae\x54\x24\x08\xc3 (1 found)
0x14001aba6: and al, 0x08 ; ldmxcsr  [rsp+0x08] ; ret ; \x24\x08\x0f\xae\x54\x24\x08\xc3 (1 found)
0x140010e22: and al, 0x08 ; mov al, 0x01 ; ret ; \x24\x08\xb0\x01\xc3 (1 found)
0x14001ab9d: and al, 0x08 ; mov ecx, 0xFFFFFFC0 ; and  [rsp+0x08], ecx ; ldmxcsr  [rsp+0x08] ; ret ; \x24\x08\xb9\xc0\xff\xff\xff\x21\x4c\x24\x08\x0f\xae\x54\x24\x08\xc3 (1 found)
0x14000d913: and al, 0x08 ; mov rdi, qword [rsp+0x10] ; mov r14, qword [rsp+0x18] ; ret ; \x24\x08\x48\x8b\x7c\x24\x10\x4c\x8b\x74\x24\x18\xc3 (1 found)
0x140002c78: and al, 0x08 ; mov rdi, qword [rsp+0x10] ; ret ; \x24\x08\x48\x8b\x7c\x24\x10\xc3 (1 found)
0x14001aa27: and al, 0x08 ; movsd xmm0, qword [rsp+0x08] ; ret ; \x4c\x24\x08\xf2\x0f\x10\x44\x24\x08\xc3 (1 found)
0x14001aa28: and al, 0x08 ; movsd xmm0, qword [rsp+0x08] ; ret ; \x24\x08\xf2\x0f\x10\x44\x24\x08\xc3 (1 found)
0x140019e16: and al, 0x08 ; ret ; \x24\x08\xc3 (1 found)
0x140019e8c: and al, 0x08 ; ret ; \x24\x08\xc3 (1 found)
0x14001aa2d: and al, 0x08 ; ret ; \x44\x24\x08\xc3 (1 found)
0x14001aa2e: and al, 0x08 ; ret ; \x24\x08\xc3 (1 found)
0x14001ab97: and al, 0x08 ; ret ; \x24\x08\xc3 (1 found)
0x14001abab: and al, 0x08 ; ret ; \x24\x08\xc3 (1 found)
0x14001b3ba: and al, 0x08 ; ret ; \x24\x08\xc3 (1 found)
0x14000d918: and al, 0x10 ; mov r14, qword [rsp+0x18] ; ret ; \x24\x10\x4c\x8b\x74\x24\x18\xc3 (1 found)
0x14000d166: and al, 0x10 ; mov rsi, qword [rsp+0x18] ; mov rdi, qword [rsp+0x20] ; mov r14, qword [rsp+0x28] ; pop r15 ; ret ; \x24\x10\x48\x8b\x74\x24\x18\x48\x8b\x7c\x24\x20\x4c\x8b\x74\x24\x28\x41\x5f\xc3 (1 found)
0x140002c7d: and al, 0x10 ; ret ; \x24\x10\xc3 (1 found)
0x1400162a4: and al, 0x18 ; add al, byte [rax] ; add byte [rcx-0x01], al ; retn 0x8B41 ; \x24\x18\x02\x00\x00\x41\xff\xc2\x41\x8b (1 found)
0x14000d16b: and al, 0x18 ; mov rdi, qword [rsp+0x20] ; mov r14, qword [rsp+0x28] ; pop r15 ; ret ; \x24\x18\x48\x8b\x7c\x24\x20\x4c\x8b\x74\x24\x28\x41\x5f\xc3 (1 found)
0x14000d91d: and al, 0x18 ; ret ; \x24\x18\xc3 (1 found)
0x14001976b: and al, 0x20 ; add rsp, 0x58 ; ret ; \x24\x20\x48\x83\xc4\x58\xc3 (1 found)
0x140019840: and al, 0x20 ; add rsp, 0x58 ; ret ; \x24\x20\x48\x83\xc4\x58\xc3 (1 found)
0x1400198e4: and al, 0x20 ; add rsp, 0x58 ; ret ; \x24\x20\x48\x83\xc4\x58\xc3 (1 found)
0x140019a28: and al, 0x20 ; add rsp, 0x58 ; ret ; \x24\x20\x48\x83\xc4\x58\xc3 (1 found)
0x140019ad2: and al, 0x20 ; add rsp, 0x58 ; ret ; \x24\x20\x48\x83\xc4\x58\xc3 (1 found)
0x140019b2a: and al, 0x20 ; add rsp, 0x58 ; ret ; \x24\x20\x48\x83\xc4\x58\xc3 (1 found)
0x140019b58: and al, 0x20 ; add rsp, 0x58 ; ret ; \x24\x20\x48\x83\xc4\x58\xc3 (1 found)
0x140019b94: and al, 0x20 ; add rsp, 0x58 ; ret ; \x24\x20\x48\x83\xc4\x58\xc3 (1 found)
0x140013a23: and al, 0x20 ; and  [rcx+0x000003A8], 0xFFFFFFFD ; mov eax, ebx ; add rsp, 0x40 ; pop rbx ; ret ; \x4c\x24\x20\x83\xa1\xa8\x03\x00\x00\xfd\x8b\xc3\x48\x83\xc4\x40\x5b\xc3 (1 found)
0x140013a24: and al, 0x20 ; and  [rcx+0x000003A8], 0xFFFFFFFD ; mov eax, ebx ; add rsp, 0x40 ; pop rbx ; ret ; \x24\x20\x83\xa1\xa8\x03\x00\x00\xfd\x8b\xc3\x48\x83\xc4\x40\x5b\xc3 (1 found)
0x14000d170: and al, 0x20 ; mov r14, qword [rsp+0x28] ; pop r15 ; ret ; \x24\x20\x4c\x8b\x74\x24\x28\x41\x5f\xc3 (1 found)
0x140010f10: and al, 0x20 ; mov rbx, qword [rsp+0x48] ; add rsp, 0x30 ; pop rdi ; ret ; \x44\x24\x20\x48\x8b\x5c\x24\x48\x48\x83\xc4\x30\x5f\xc3 (1 found)
0x140010f11: and al, 0x20 ; mov rbx, qword [rsp+0x48] ; add rsp, 0x30 ; pop rdi ; ret ; \x24\x20\x48\x8b\x5c\x24\x48\x48\x83\xc4\x30\x5f\xc3 (1 found)
0x14000d175: and al, 0x28 ; pop r15 ; ret ; \x24\x28\x41\x5f\xc3 (1 found)
0x14000e2cd: and al, 0x30 ; add  [rdi], ecx ; xchg eax, ebp ; ret ; \x24\x30\x01\x0f\x95\xc3 (1 found)
0x1400026fc: and al, 0x30 ; add rsp, 0x20 ; pop rdi ; ret ; \x24\x30\x48\x83\xc4\x20\x5f\xc3 (1 found)
0x140002738: and al, 0x30 ; add rsp, 0x20 ; pop rdi ; ret ; \x24\x30\x48\x83\xc4\x20\x5f\xc3 (1 found)
0x140003695: and al, 0x30 ; add rsp, 0x20 ; pop rdi ; ret ; \x24\x30\x48\x83\xc4\x20\x5f\xc3 (1 found)
0x140003bd5: and al, 0x30 ; add rsp, 0x20 ; pop rdi ; ret ; \x24\x30\x48\x83\xc4\x20\x5f\xc3 (1 found)
0x140003d63: and al, 0x30 ; add rsp, 0x20 ; pop rdi ; ret ; \x24\x30\x48\x83\xc4\x20\x5f\xc3 (1 found)
0x1400055b0: and al, 0x30 ; add rsp, 0x20 ; pop rdi ; ret ; \x24\x30\x48\x83\xc4\x20\x5f\xc3 (1 found)
0x1400058c9: and al, 0x30 ; add rsp, 0x20 ; pop rdi ; ret ; \x24\x30\x48\x83\xc4\x20\x5f\xc3 (1 found)
0x140005909: and al, 0x30 ; add rsp, 0x20 ; pop rdi ; ret ; \x24\x30\x48\x83\xc4\x20\x5f\xc3 (1 found)
0x14000bb64: and al, 0x30 ; add rsp, 0x20 ; pop rdi ; ret ; \x24\x30\x48\x83\xc4\x20\x5f\xc3 (1 found)
0x14000bf34: and al, 0x30 ; add rsp, 0x20 ; pop rdi ; ret ; \x24\x30\x48\x83\xc4\x20\x5f\xc3 (1 found)
0x14000c99d: and al, 0x30 ; add rsp, 0x20 ; pop rdi ; ret ; \x24\x30\x48\x83\xc4\x20\x5f\xc3 (1 found)
0x14000cc12: and al, 0x30 ; add rsp, 0x20 ; pop rdi ; ret ; \x24\x30\x48\x83\xc4\x20\x5f\xc3 (1 found)
0x14000cc52: and al, 0x30 ; add rsp, 0x20 ; pop rdi ; ret ; \x24\x30\x48\x83\xc4\x20\x5f\xc3 (1 found)
0x14000cc71: and al, 0x30 ; add rsp, 0x20 ; pop rdi ; ret ; \x24\x30\x48\x83\xc4\x20\x5f\xc3 (1 found)
0x14000d3c6: and al, 0x30 ; add rsp, 0x20 ; pop rdi ; ret ; \x24\x30\x48\x83\xc4\x20\x5f\xc3 (1 found)
0x14000d525: and al, 0x30 ; add rsp, 0x20 ; pop rdi ; ret ; \x24\x30\x48\x83\xc4\x20\x5f\xc3 (1 found)
0x14000d569: and al, 0x30 ; add rsp, 0x20 ; pop rdi ; ret ; \x24\x30\x48\x83\xc4\x20\x5f\xc3 (1 found)
0x14000d779: and al, 0x30 ; add rsp, 0x20 ; pop rdi ; ret ; \x24\x30\x48\x83\xc4\x20\x5f\xc3 (1 found)
0x14000d7c3: and al, 0x30 ; add rsp, 0x20 ; pop rdi ; ret ; \x24\x30\x48\x83\xc4\x20\x5f\xc3 (1 found)
0x14000dae3: and al, 0x30 ; add rsp, 0x20 ; pop rdi ; ret ; \x24\x30\x48\x83\xc4\x20\x5f\xc3 (1 found)
0x14000db1f: and al, 0x30 ; add rsp, 0x20 ; pop rdi ; ret ; \x24\x30\x48\x83\xc4\x20\x5f\xc3 (1 found)
0x14000ff1b: and al, 0x30 ; add rsp, 0x20 ; pop rdi ; ret ; \x24\x30\x48\x83\xc4\x20\x5f\xc3 (1 found)
0x14000ff9b: and al, 0x30 ; add rsp, 0x20 ; pop rdi ; ret ; \x24\x30\x48\x83\xc4\x20\x5f\xc3 (1 found)
0x14000ffd9: and al, 0x30 ; add rsp, 0x20 ; pop rdi ; ret ; \x24\x30\x48\x83\xc4\x20\x5f\xc3 (1 found)
0x140010021: and al, 0x30 ; add rsp, 0x20 ; pop rdi ; ret ; \x24\x30\x48\x83\xc4\x20\x5f\xc3 (1 found)
0x140010083: and al, 0x30 ; add rsp, 0x20 ; pop rdi ; ret ; \x24\x30\x48\x83\xc4\x20\x5f\xc3 (1 found)
0x1400102d3: and al, 0x30 ; add rsp, 0x20 ; pop rdi ; ret ; \x24\x30\x48\x83\xc4\x20\x5f\xc3 (1 found)
0x1400105d2: and al, 0x30 ; add rsp, 0x20 ; pop rdi ; ret ; \x24\x30\x48\x83\xc4\x20\x5f\xc3 (1 found)
0x140010df9: and al, 0x30 ; add rsp, 0x20 ; pop rdi ; ret ; \x24\x30\x48\x83\xc4\x20\x5f\xc3 (1 found)
0x1400110db: and al, 0x30 ; add rsp, 0x20 ; pop rdi ; ret ; \x24\x30\x48\x83\xc4\x20\x5f\xc3 (1 found)
0x1400123af: and al, 0x30 ; add rsp, 0x20 ; pop rdi ; ret ; \x24\x30\x48\x83\xc4\x20\x5f\xc3 (1 found)
0x140013ac8: and al, 0x30 ; add rsp, 0x20 ; pop rdi ; ret ; \x24\x30\x48\x83\xc4\x20\x5f\xc3 (1 found)
0x140015066: and al, 0x30 ; add rsp, 0x20 ; pop rdi ; ret ; \x24\x30\x48\x83\xc4\x20\x5f\xc3 (1 found)
0x1400156d0: and al, 0x30 ; add rsp, 0x20 ; pop rdi ; ret ; \x24\x30\x48\x83\xc4\x20\x5f\xc3 (1 found)
0x14001573d: and al, 0x30 ; add rsp, 0x20 ; pop rdi ; ret ; \x24\x30\x48\x83\xc4\x20\x5f\xc3 (1 found)
0x140015922: and al, 0x30 ; add rsp, 0x20 ; pop rdi ; ret ; \x24\x30\x48\x83\xc4\x20\x5f\xc3 (1 found)
0x1400159a4: and al, 0x30 ; add rsp, 0x20 ; pop rdi ; ret ; \x24\x30\x48\x83\xc4\x20\x5f\xc3 (1 found)
0x140018e0f: and al, 0x30 ; add rsp, 0x20 ; pop rdi ; ret ; \x24\x30\x48\x83\xc4\x20\x5f\xc3 (1 found)
0x1400193b9: and al, 0x30 ; add rsp, 0x20 ; pop rdi ; ret ; \x24\x30\x48\x83\xc4\x20\x5f\xc3 (1 found)
0x14001b095: and al, 0x30 ; add rsp, 0x20 ; pop rdi ; ret ; \x24\x30\x48\x83\xc4\x20\x5f\xc3 (1 found)
0x14001b293: and al, 0x30 ; add rsp, 0x20 ; pop rdi ; ret ; \x24\x30\x48\x83\xc4\x20\x5f\xc3 (1 found)
0x140011043: and al, 0x30 ; and  [rcx+0x000003A8], 0xFFFFFFFD ; movzx eax, dx ; add rsp, 0x58 ; ret ; \x4c\x24\x30\x83\xa1\xa8\x03\x00\x00\xfd\x0f\xb7\xc2\x48\x83\xc4\x58\xc3 (1 found)
0x140011044: and al, 0x30 ; and  [rcx+0x000003A8], 0xFFFFFFFD ; movzx eax, dx ; add rsp, 0x58 ; ret ; \x24\x30\x83\xa1\xa8\x03\x00\x00\xfd\x0f\xb7\xc2\x48\x83\xc4\x58\xc3 (1 found)
0x140002e46: and al, 0x30 ; call rax ; \x4c\x24\x30\xff\xd0 (1 found)
0x140002e47: and al, 0x30 ; call rax ; \x24\x30\xff\xd0 (1 found)
0x1400108a6: and al, 0x30 ; mov al, 0x01 ; add rsp, 0x20 ; pop rdi ; ret ; \x24\x30\xb0\x01\x48\x83\xc4\x20\x5f\xc3 (1 found)
0x1400158d8: and al, 0x30 ; mov al, 0x01 ; add rsp, 0x20 ; pop rdi ; ret ; \x24\x30\xb0\x01\x48\x83\xc4\x20\x5f\xc3 (1 found)
0x14000b15f: and al, 0x30 ; mov eax, r10d ; mov rsi, qword [rsp+0x38] ; add rsp, 0x20 ; pop rdi ; ret ; \x24\x30\x41\x8b\xc2\x48\x8b\x74\x24\x38\x48\x83\xc4\x20\x5f\xc3 (1 found)
0x14000b1d3: and al, 0x30 ; mov eax, r10d ; mov rsi, qword [rsp+0x38] ; add rsp, 0x20 ; pop rdi ; ret ; \x24\x30\x41\x8b\xc2\x48\x8b\x74\x24\x38\x48\x83\xc4\x20\x5f\xc3 (1 found)
0x14000b247: and al, 0x30 ; mov eax, r10d ; mov rsi, qword [rsp+0x38] ; add rsp, 0x20 ; pop rdi ; ret ; \x24\x30\x41\x8b\xc2\x48\x8b\x74\x24\x38\x48\x83\xc4\x20\x5f\xc3 (1 found)
0x14000ccfa: and al, 0x30 ; mov eax, r10d ; mov rsi, qword [rsp+0x38] ; add rsp, 0x20 ; pop rdi ; ret ; \x24\x30\x41\x8b\xc2\x48\x8b\x74\x24\x38\x48\x83\xc4\x20\x5f\xc3 (1 found)
0x140004d0b: and al, 0x30 ; mov rax, rdi ; add rsp, 0x20 ; pop rdi ; ret ; \x24\x30\x48\x8b\xc7\x48\x83\xc4\x20\x5f\xc3 (1 found)
0x140004d4f: and al, 0x30 ; mov rax, rdi ; add rsp, 0x20 ; pop rdi ; ret ; \x24\x30\x48\x8b\xc7\x48\x83\xc4\x20\x5f\xc3 (1 found)
0x14000babf: and al, 0x30 ; mov rax, rdi ; mov rsi, qword [rsp+0x38] ; add rsp, 0x20 ; pop rdi ; ret ; \x24\x30\x48\x8b\xc7\x48\x8b\x74\x24\x38\x48\x83\xc4\x20\x5f\xc3 (1 found)
0x140010399: and al, 0x30 ; mov rax, rdi ; mov rsi, qword [rsp+0x38] ; add rsp, 0x20 ; pop rdi ; ret ; \x24\x30\x48\x8b\xc7\x48\x8b\x74\x24\x38\x48\x83\xc4\x20\x5f\xc3 (1 found)
0x14001050c: and al, 0x30 ; mov rax, rdi ; mov rsi, qword [rsp+0x38] ; add rsp, 0x20 ; pop rdi ; ret ; \x24\x30\x48\x8b\xc7\x48\x8b\x74\x24\x38\x48\x83\xc4\x20\x5f\xc3 (1 found)
0x14001516b: and al, 0x30 ; mov rbp, qword [rsp+0x38] ; add rsp, 0x20 ; pop rsi ; ret ; \x24\x30\x48\x8b\x6c\x24\x38\x48\x83\xc4\x20\x5e\xc3 (1 found)
0x1400037a8: and al, 0x30 ; mov rbp, qword [rsp+0x38] ; mov rsi, qword [rsp+0x40] ; add rsp, 0x20 ; pop rdi ; ret ; \x24\x30\x48\x8b\x6c\x24\x38\x48\x8b\x74\x24\x40\x48\x83\xc4\x20\x5f\xc3 (1 found)
0x140005352: and al, 0x30 ; mov rbp, qword [rsp+0x38] ; mov rsi, qword [rsp+0x40] ; add rsp, 0x20 ; pop rdi ; ret ; \x24\x30\x48\x8b\x6c\x24\x38\x48\x8b\x74\x24\x40\x48\x83\xc4\x20\x5f\xc3 (1 found)
0x140005b62: and al, 0x30 ; mov rbp, qword [rsp+0x38] ; mov rsi, qword [rsp+0x40] ; add rsp, 0x20 ; pop rdi ; ret ; \x24\x30\x48\x8b\x6c\x24\x38\x48\x8b\x74\x24\x40\x48\x83\xc4\x20\x5f\xc3 (1 found)
0x140005c0e: and al, 0x30 ; mov rbp, qword [rsp+0x38] ; mov rsi, qword [rsp+0x40] ; add rsp, 0x20 ; pop rdi ; ret ; \x24\x30\x48\x8b\x6c\x24\x38\x48\x8b\x74\x24\x40\x48\x83\xc4\x20\x5f\xc3 (1 found)
0x14000bd2a: and al, 0x30 ; mov rbp, qword [rsp+0x38] ; mov rsi, qword [rsp+0x40] ; add rsp, 0x20 ; pop rdi ; ret ; \x24\x30\x48\x8b\x6c\x24\x38\x48\x8b\x74\x24\x40\x48\x83\xc4\x20\x5f\xc3 (1 found)
0x14000ce05: and al, 0x30 ; mov rbp, qword [rsp+0x38] ; mov rsi, qword [rsp+0x40] ; add rsp, 0x20 ; pop rdi ; ret ; \x24\x30\x48\x8b\x6c\x24\x38\x48\x8b\x74\x24\x40\x48\x83\xc4\x20\x5f\xc3 (1 found)
0x140014516: and al, 0x30 ; mov rbp, qword [rsp+0x38] ; mov rsi, qword [rsp+0x40] ; add rsp, 0x20 ; pop rdi ; ret ; \x24\x30\x48\x8b\x6c\x24\x38\x48\x8b\x74\x24\x40\x48\x83\xc4\x20\x5f\xc3 (1 found)
0x1400157cb: and al, 0x30 ; mov rbp, qword [rsp+0x38] ; mov rsi, qword [rsp+0x40] ; add rsp, 0x20 ; pop rdi ; ret ; \x24\x30\x48\x8b\x6c\x24\x38\x48\x8b\x74\x24\x40\x48\x83\xc4\x20\x5f\xc3 (1 found)
0x140015d36: and al, 0x30 ; mov rbp, qword [rsp+0x38] ; mov rsi, qword [rsp+0x40] ; add rsp, 0x20 ; pop rdi ; ret ; \x24\x30\x48\x8b\x6c\x24\x38\x48\x8b\x74\x24\x40\x48\x83\xc4\x20\x5f\xc3 (1 found)
0x14000332a: and al, 0x30 ; mov rsi, qword [rsp+0x38] ; add rsp, 0x20 ; pop rdi ; ret ; \x24\x30\x48\x8b\x74\x24\x38\x48\x83\xc4\x20\x5f\xc3 (1 found)
0x1400036f4: and al, 0x30 ; mov rsi, qword [rsp+0x38] ; add rsp, 0x20 ; pop rdi ; ret ; \x24\x30\x48\x8b\x74\x24\x38\x48\x83\xc4\x20\x5f\xc3 (1 found)
0x14000383f: and al, 0x30 ; mov rsi, qword [rsp+0x38] ; add rsp, 0x20 ; pop rdi ; ret ; \x24\x30\x48\x8b\x74\x24\x38\x48\x83\xc4\x20\x5f\xc3 (1 found)
0x14000a26c: and al, 0x30 ; mov rsi, qword [rsp+0x38] ; add rsp, 0x20 ; pop rdi ; ret ; \x24\x30\x48\x8b\x74\x24\x38\x48\x83\xc4\x20\x5f\xc3 (1 found)
0x14000a2ec: and al, 0x30 ; mov rsi, qword [rsp+0x38] ; add rsp, 0x20 ; pop rdi ; ret ; \x24\x30\x48\x8b\x74\x24\x38\x48\x83\xc4\x20\x5f\xc3 (1 found)
0x14000a36c: and al, 0x30 ; mov rsi, qword [rsp+0x38] ; add rsp, 0x20 ; pop rdi ; ret ; \x24\x30\x48\x8b\x74\x24\x38\x48\x83\xc4\x20\x5f\xc3 (1 found)
0x14000afb7: and al, 0x30 ; mov rsi, qword [rsp+0x38] ; add rsp, 0x20 ; pop rdi ; ret ; \x24\x30\x48\x8b\x74\x24\x38\x48\x83\xc4\x20\x5f\xc3 (1 found)
0x14000b053: and al, 0x30 ; mov rsi, qword [rsp+0x38] ; add rsp, 0x20 ; pop rdi ; ret ; \x24\x30\x48\x8b\x74\x24\x38\x48\x83\xc4\x20\x5f\xc3 (1 found)
0x14000b0ef: and al, 0x30 ; mov rsi, qword [rsp+0x38] ; add rsp, 0x20 ; pop rdi ; ret ; \x24\x30\x48\x8b\x74\x24\x38\x48\x83\xc4\x20\x5f\xc3 (1 found)
0x14000b2c9: and al, 0x30 ; mov rsi, qword [rsp+0x38] ; add rsp, 0x20 ; pop rdi ; ret ; \x24\x30\x48\x8b\x74\x24\x38\x48\x83\xc4\x20\x5f\xc3 (1 found)
0x14000ca82: and al, 0x30 ; mov rsi, qword [rsp+0x38] ; add rsp, 0x20 ; pop rdi ; ret ; \x24\x30\x48\x8b\x74\x24\x38\x48\x83\xc4\x20\x5f\xc3 (1 found)
0x14000e387: and al, 0x30 ; mov rsi, qword [rsp+0x38] ; add rsp, 0x20 ; pop rdi ; ret ; \x24\x30\x48\x8b\x74\x24\x38\x48\x83\xc4\x20\x5f\xc3 (1 found)
0x140010cab: and al, 0x30 ; mov rsi, qword [rsp+0x38] ; add rsp, 0x20 ; pop rdi ; ret ; \x24\x30\x48\x8b\x74\x24\x38\x48\x83\xc4\x20\x5f\xc3 (1 found)
0x1400125d4: and al, 0x30 ; mov rsi, qword [rsp+0x38] ; add rsp, 0x20 ; pop rdi ; ret ; \x24\x30\x48\x8b\x74\x24\x38\x48\x83\xc4\x20\x5f\xc3 (1 found)
0x140014a6f: and al, 0x30 ; mov rsi, qword [rsp+0x38] ; add rsp, 0x20 ; pop rdi ; ret ; \x24\x30\x48\x8b\x74\x24\x38\x48\x83\xc4\x20\x5f\xc3 (1 found)
0x14001588f: and al, 0x30 ; mov rsi, qword [rsp+0x38] ; add rsp, 0x20 ; pop rdi ; ret ; \x24\x30\x48\x8b\x74\x24\x38\x48\x83\xc4\x20\x5f\xc3 (1 found)
0x140017606: and al, 0x30 ; mov rsi, qword [rsp+0x38] ; add rsp, 0x20 ; pop rdi ; ret ; \x24\x30\x48\x8b\x74\x24\x38\x48\x83\xc4\x20\x5f\xc3 (1 found)
0x140017be2: and al, 0x30 ; mov rsi, qword [rsp+0x38] ; add rsp, 0x20 ; pop rdi ; ret ; \x24\x30\x48\x8b\x74\x24\x38\x48\x83\xc4\x20\x5f\xc3 (1 found)
0x140017caf: and al, 0x30 ; mov rsi, qword [rsp+0x38] ; add rsp, 0x20 ; pop rdi ; ret ; \x24\x30\x48\x8b\x74\x24\x38\x48\x83\xc4\x20\x5f\xc3 (1 found)
0x140004083: and al, 0x30 ; mov rsi, qword [rsp+0x38] ; mov rdi, qword [rsp+0x40] ; add rsp, 0x20 ; pop r14 ; ret ; \x24\x30\x48\x8b\x74\x24\x38\x48\x8b\x7c\x24\x40\x48\x83\xc4\x20\x41\x5e\xc3 (1 found)
0x14000549a: and al, 0x30 ; mov rsi, qword [rsp+0x38] ; mov rdi, qword [rsp+0x40] ; add rsp, 0x20 ; pop r14 ; ret ; \x24\x30\x48\x8b\x74\x24\x38\x48\x8b\x7c\x24\x40\x48\x83\xc4\x20\x41\x5e\xc3 (1 found)
0x140014e1b: and al, 0x30 ; mov rsi, qword [rsp+0x38] ; mov rdi, qword [rsp+0x40] ; add rsp, 0x20 ; pop r14 ; ret ; \x24\x30\x48\x8b\x74\x24\x38\x48\x8b\x7c\x24\x40\x48\x83\xc4\x20\x41\x5e\xc3 (1 found)
0x1400051e1: and al, 0x30 ; mov rsi, qword [rsp+0x40] ; add rsp, 0x20 ; pop rdi ; ret ; \x24\x30\x48\x8b\x74\x24\x40\x48\x83\xc4\x20\x5f\xc3 (1 found)
0x14001228f: and al, 0x30 ; mov rsi, qword [rsp+0x40] ; mov rdi, qword [rsp+0x48] ; add rsp, 0x20 ; pop r14 ; ret ; \x24\x30\x48\x8b\x74\x24\x40\x48\x8b\x7c\x24\x48\x48\x83\xc4\x20\x41\x5e\xc3 (1 found)
0x14001a8e3: and al, 0x30 ; sete al ; add rsp, 0x20 ; pop rdi ; ret ; \x24\x30\x0f\x94\xc0\x48\x83\xc4\x20\x5f\xc3 (1 found)
0x1400026a3: and al, 0x30 ; xor eax, eax ; add rsp, 0x20 ; pop rdi ; ret ; \x24\x30\x33\xc0\x48\x83\xc4\x20\x5f\xc3 (1 found)
0x140003138: and al, 0x30 ; xor eax, eax ; add rsp, 0x20 ; pop rdi ; ret ; \x24\x30\x33\xc0\x48\x83\xc4\x20\x5f\xc3 (1 found)
0x14000cc7c: and al, 0x30 ; xor eax, eax ; add rsp, 0x20 ; pop rdi ; ret ; \x24\x30\x33\xc0\x48\x83\xc4\x20\x5f\xc3 (1 found)
0x140013023: and al, 0x38 ; add rsp, 0x20 ; pop r14 ; ret ; \x24\x38\x48\x83\xc4\x20\x41\x5e\xc3 (1 found)
0x14000332f: and al, 0x38 ; add rsp, 0x20 ; pop rdi ; ret ; \x24\x38\x48\x83\xc4\x20\x5f\xc3 (1 found)
0x1400036f9: and al, 0x38 ; add rsp, 0x20 ; pop rdi ; ret ; \x24\x38\x48\x83\xc4\x20\x5f\xc3 (1 found)
0x140003844: and al, 0x38 ; add rsp, 0x20 ; pop rdi ; ret ; \x24\x38\x48\x83\xc4\x20\x5f\xc3 (1 found)
0x14000a271: and al, 0x38 ; add rsp, 0x20 ; pop rdi ; ret ; \x24\x38\x48\x83\xc4\x20\x5f\xc3 (1 found)
0x14000a2f1: and al, 0x38 ; add rsp, 0x20 ; pop rdi ; ret ; \x24\x38\x48\x83\xc4\x20\x5f\xc3 (1 found)
0x14000a371: and al, 0x38 ; add rsp, 0x20 ; pop rdi ; ret ; \x24\x38\x48\x83\xc4\x20\x5f\xc3 (1 found)
0x14000ab70: and al, 0x38 ; add rsp, 0x20 ; pop rdi ; ret ; \x24\x38\x48\x83\xc4\x20\x5f\xc3 (1 found)
0x14000ac34: and al, 0x38 ; add rsp, 0x20 ; pop rdi ; ret ; \x24\x38\x48\x83\xc4\x20\x5f\xc3 (1 found)
0x14000acf8: and al, 0x38 ; add rsp, 0x20 ; pop rdi ; ret ; \x24\x38\x48\x83\xc4\x20\x5f\xc3 (1 found)
0x14000afbc: and al, 0x38 ; add rsp, 0x20 ; pop rdi ; ret ; \x24\x38\x48\x83\xc4\x20\x5f\xc3 (1 found)
0x14000b058: and al, 0x38 ; add rsp, 0x20 ; pop rdi ; ret ; \x24\x38\x48\x83\xc4\x20\x5f\xc3 (1 found)
0x14000b0f4: and al, 0x38 ; add rsp, 0x20 ; pop rdi ; ret ; \x24\x38\x48\x83\xc4\x20\x5f\xc3 (1 found)
0x14000b167: and al, 0x38 ; add rsp, 0x20 ; pop rdi ; ret ; \x24\x38\x48\x83\xc4\x20\x5f\xc3 (1 found)
0x14000b1db: and al, 0x38 ; add rsp, 0x20 ; pop rdi ; ret ; \x24\x38\x48\x83\xc4\x20\x5f\xc3 (1 found)
0x14000b24f: and al, 0x38 ; add rsp, 0x20 ; pop rdi ; ret ; \x24\x38\x48\x83\xc4\x20\x5f\xc3 (1 found)
0x14000b2ce: and al, 0x38 ; add rsp, 0x20 ; pop rdi ; ret ; \x24\x38\x48\x83\xc4\x20\x5f\xc3 (1 found)
0x14000bac7: and al, 0x38 ; add rsp, 0x20 ; pop rdi ; ret ; \x24\x38\x48\x83\xc4\x20\x5f\xc3 (1 found)
0x14000c15c: and al, 0x38 ; add rsp, 0x20 ; pop rdi ; ret ; \x24\x38\x48\x83\xc4\x20\x5f\xc3 (1 found)
0x14000ca87: and al, 0x38 ; add rsp, 0x20 ; pop rdi ; ret ; \x24\x38\x48\x83\xc4\x20\x5f\xc3 (1 found)
0x14000cd02: and al, 0x38 ; add rsp, 0x20 ; pop rdi ; ret ; \x24\x38\x48\x83\xc4\x20\x5f\xc3 (1 found)
0x14000e38c: and al, 0x38 ; add rsp, 0x20 ; pop rdi ; ret ; \x24\x38\x48\x83\xc4\x20\x5f\xc3 (1 found)
0x1400103a1: and al, 0x38 ; add rsp, 0x20 ; pop rdi ; ret ; \x24\x38\x48\x83\xc4\x20\x5f\xc3 (1 found)
0x140010514: and al, 0x38 ; add rsp, 0x20 ; pop rdi ; ret ; \x24\x38\x48\x83\xc4\x20\x5f\xc3 (1 found)
0x140010cb0: and al, 0x38 ; add rsp, 0x20 ; pop rdi ; ret ; \x24\x38\x48\x83\xc4\x20\x5f\xc3 (1 found)
0x1400125d9: and al, 0x38 ; add rsp, 0x20 ; pop rdi ; ret ; \x24\x38\x48\x83\xc4\x20\x5f\xc3 (1 found)
0x140014a21: and al, 0x38 ; add rsp, 0x20 ; pop rdi ; ret ; \x24\x38\x48\x83\xc4\x20\x5f\xc3 (1 found)
0x140014a74: and al, 0x38 ; add rsp, 0x20 ; pop rdi ; ret ; \x24\x38\x48\x83\xc4\x20\x5f\xc3 (1 found)
0x140015894: and al, 0x38 ; add rsp, 0x20 ; pop rdi ; ret ; \x24\x38\x48\x83\xc4\x20\x5f\xc3 (1 found)
0x14001760b: and al, 0x38 ; add rsp, 0x20 ; pop rdi ; ret ; \x24\x38\x48\x83\xc4\x20\x5f\xc3 (1 found)
0x140017be7: and al, 0x38 ; add rsp, 0x20 ; pop rdi ; ret ; \x24\x38\x48\x83\xc4\x20\x5f\xc3 (1 found)
0x140017cb4: and al, 0x38 ; add rsp, 0x20 ; pop rdi ; ret ; \x24\x38\x48\x83\xc4\x20\x5f\xc3 (1 found)
0x1400194c8: and al, 0x38 ; add rsp, 0x20 ; pop rdi ; ret ; \x24\x38\x48\x83\xc4\x20\x5f\xc3 (1 found)
0x140015170: and al, 0x38 ; add rsp, 0x20 ; pop rsi ; ret ; \x24\x38\x48\x83\xc4\x20\x5e\xc3 (1 found)
0x140001182: and al, 0x38 ; add rsp, 0x40 ; pop rbx ; ret ; \x24\x38\x48\x83\xc4\x40\x5b\xc3 (1 found)
0x1400105ca: and al, 0x38 ; mov rax, rbx ; mov rbx, qword [rsp+0x30] ; add rsp, 0x20 ; pop rdi ; ret ; \x24\x38\x48\x8b\xc3\x48\x8b\x5c\x24\x30\x48\x83\xc4\x20\x5f\xc3 (1 found)
0x14000e336: and al, 0x38 ; mov rax, rsi ; mov rsi, qword [rsp+0x40] ; add rsp, 0x20 ; pop rdi ; ret ; \x24\x38\x48\x8b\xc6\x48\x8b\x74\x24\x40\x48\x83\xc4\x20\x5f\xc3 (1 found)
0x140018978: and al, 0x38 ; mov rbp, qword [rsp+0x40] ; add rsp, 0x20 ; pop rdi ; ret ; \x24\x38\x48\x8b\x6c\x24\x40\x48\x83\xc4\x20\x5f\xc3 (1 found)
0x140017999: and al, 0x38 ; mov rbp, qword [rsp+0x40] ; mov rsi, qword [rsp+0x48] ; add rsp, 0x20 ; pop rdi ; ret ; \x24\x38\x48\x8b\x6c\x24\x40\x48\x8b\x74\x24\x48\x48\x83\xc4\x20\x5f\xc3 (1 found)
0x140017a95: and al, 0x38 ; mov rbp, qword [rsp+0x40] ; mov rsi, qword [rsp+0x48] ; add rsp, 0x20 ; pop rdi ; ret ; \x24\x38\x48\x8b\x6c\x24\x40\x48\x8b\x74\x24\x48\x48\x83\xc4\x20\x5f\xc3 (1 found)
0x140004088: and al, 0x38 ; mov rdi, qword [rsp+0x40] ; add rsp, 0x20 ; pop r14 ; ret ; \x24\x38\x48\x8b\x7c\x24\x40\x48\x83\xc4\x20\x41\x5e\xc3 (1 found)
0x14000549f: and al, 0x38 ; mov rdi, qword [rsp+0x40] ; add rsp, 0x20 ; pop r14 ; ret ; \x24\x38\x48\x8b\x7c\x24\x40\x48\x83\xc4\x20\x41\x5e\xc3 (1 found)
0x140014e20: and al, 0x38 ; mov rdi, qword [rsp+0x40] ; add rsp, 0x20 ; pop r14 ; ret ; \x24\x38\x48\x8b\x7c\x24\x40\x48\x83\xc4\x20\x41\x5e\xc3 (1 found)
0x1400037ad: and al, 0x38 ; mov rsi, qword [rsp+0x40] ; add rsp, 0x20 ; pop rdi ; ret ; \x24\x38\x48\x8b\x74\x24\x40\x48\x83\xc4\x20\x5f\xc3 (1 found)
0x140005357: and al, 0x38 ; mov rsi, qword [rsp+0x40] ; add rsp, 0x20 ; pop rdi ; ret ; \x24\x38\x48\x8b\x74\x24\x40\x48\x83\xc4\x20\x5f\xc3 (1 found)
0x140005b67: and al, 0x38 ; mov rsi, qword [rsp+0x40] ; add rsp, 0x20 ; pop rdi ; ret ; \x24\x38\x48\x8b\x74\x24\x40\x48\x83\xc4\x20\x5f\xc3 (1 found)
0x140005c13: and al, 0x38 ; mov rsi, qword [rsp+0x40] ; add rsp, 0x20 ; pop rdi ; ret ; \x24\x38\x48\x8b\x74\x24\x40\x48\x83\xc4\x20\x5f\xc3 (1 found)
0x14000bd2f: and al, 0x38 ; mov rsi, qword [rsp+0x40] ; add rsp, 0x20 ; pop rdi ; ret ; \x24\x38\x48\x8b\x74\x24\x40\x48\x83\xc4\x20\x5f\xc3 (1 found)
0x14000ce0a: and al, 0x38 ; mov rsi, qword [rsp+0x40] ; add rsp, 0x20 ; pop rdi ; ret ; \x24\x38\x48\x8b\x74\x24\x40\x48\x83\xc4\x20\x5f\xc3 (1 found)
0x140013fcd: and al, 0x38 ; mov rsi, qword [rsp+0x40] ; add rsp, 0x20 ; pop rdi ; ret ; \x24\x38\x48\x8b\x74\x24\x40\x48\x83\xc4\x20\x5f\xc3 (1 found)
0x14001451b: and al, 0x38 ; mov rsi, qword [rsp+0x40] ; add rsp, 0x20 ; pop rdi ; ret ; \x24\x38\x48\x8b\x74\x24\x40\x48\x83\xc4\x20\x5f\xc3 (1 found)
0x1400157d0: and al, 0x38 ; mov rsi, qword [rsp+0x40] ; add rsp, 0x20 ; pop rdi ; ret ; \x24\x38\x48\x8b\x74\x24\x40\x48\x83\xc4\x20\x5f\xc3 (1 found)
0x140015d3b: and al, 0x38 ; mov rsi, qword [rsp+0x40] ; add rsp, 0x20 ; pop rdi ; ret ; \x24\x38\x48\x8b\x74\x24\x40\x48\x83\xc4\x20\x5f\xc3 (1 found)
0x1400049da: and al, 0x38 ; mov rsi, qword [rsp+0x40] ; mov rdi, qword [rsp+0x48] ; add rsp, 0x20 ; pop r14 ; ret ; \x24\x38\x48\x8b\x74\x24\x40\x48\x8b\x7c\x24\x48\x48\x83\xc4\x20\x41\x5e\xc3 (1 found)
0x14000b998: and al, 0x38 ; mov rsi, qword [rsp+0x40] ; mov rdi, qword [rsp+0x48] ; add rsp, 0x20 ; pop r14 ; ret ; \x24\x38\x48\x8b\x74\x24\x40\x48\x8b\x7c\x24\x48\x48\x83\xc4\x20\x41\x5e\xc3 (1 found)
0x140010821: and al, 0x38 ; mov rsi, qword [rsp+0x40] ; mov rdi, qword [rsp+0x48] ; add rsp, 0x20 ; pop r14 ; ret ; \x24\x38\x48\x8b\x74\x24\x40\x48\x8b\x7c\x24\x48\x48\x83\xc4\x20\x41\x5e\xc3 (1 found)
0x140014bf8: and al, 0x38 ; mov rsi, qword [rsp+0x40] ; mov rdi, qword [rsp+0x48] ; add rsp, 0x20 ; pop r14 ; ret ; \x24\x38\x48\x8b\x74\x24\x40\x48\x8b\x7c\x24\x48\x48\x83\xc4\x20\x41\x5e\xc3 (1 found)
0x14001b1e8: and al, 0x38 ; mov rsi, qword [rsp+0x40] ; mov rdi, qword [rsp+0x48] ; add rsp, 0x20 ; pop r14 ; ret ; \x24\x38\x48\x8b\x74\x24\x40\x48\x8b\x7c\x24\x48\x48\x83\xc4\x20\x41\x5e\xc3 (1 found)
0x14001aeee: and al, 0x38 ; mov rsi, qword [rsp+0x40] ; mov rdi, qword [rsp+0x48] ; add rsp, 0x20 ; pop rbp ; ret ; \x24\x38\x48\x8b\x74\x24\x40\x48\x8b\x7c\x24\x48\x48\x83\xc4\x20\x5d\xc3 (1 found)
0x140010893: and al, 0x3B ; add byte [rax-0x7D], cl ; ret ; \x24\x3b\x00\x48\x83\xc3 (1 found)
0x140002a03: and al, 0x40 ; add rsp, 0x10 ; pop r14 ; pop rdi ; pop rbp ; ret ; \x24\x40\x48\x83\xc4\x10\x41\x5e\x5f\x5d\xc3 (1 found)
0x14000408d: and al, 0x40 ; add rsp, 0x20 ; pop r14 ; ret ; \x24\x40\x48\x83\xc4\x20\x41\x5e\xc3 (1 found)
0x1400054a4: and al, 0x40 ; add rsp, 0x20 ; pop r14 ; ret ; \x24\x40\x48\x83\xc4\x20\x41\x5e\xc3 (1 found)
0x140014e25: and al, 0x40 ; add rsp, 0x20 ; pop r14 ; ret ; \x24\x40\x48\x83\xc4\x20\x41\x5e\xc3 (1 found)
0x1400037b2: and al, 0x40 ; add rsp, 0x20 ; pop rdi ; ret ; \x24\x40\x48\x83\xc4\x20\x5f\xc3 (1 found)
0x1400051e6: and al, 0x40 ; add rsp, 0x20 ; pop rdi ; ret ; \x24\x40\x48\x83\xc4\x20\x5f\xc3 (1 found)
0x14000535c: and al, 0x40 ; add rsp, 0x20 ; pop rdi ; ret ; \x24\x40\x48\x83\xc4\x20\x5f\xc3 (1 found)
0x140005b6c: and al, 0x40 ; add rsp, 0x20 ; pop rdi ; ret ; \x24\x40\x48\x83\xc4\x20\x5f\xc3 (1 found)
0x140005c18: and al, 0x40 ; add rsp, 0x20 ; pop rdi ; ret ; \x24\x40\x48\x83\xc4\x20\x5f\xc3 (1 found)
0x14000bd34: and al, 0x40 ; add rsp, 0x20 ; pop rdi ; ret ; \x24\x40\x48\x83\xc4\x20\x5f\xc3 (1 found)
0x14000ce0f: and al, 0x40 ; add rsp, 0x20 ; pop rdi ; ret ; \x24\x40\x48\x83\xc4\x20\x5f\xc3 (1 found)
0x14000e33e: and al, 0x40 ; add rsp, 0x20 ; pop rdi ; ret ; \x24\x40\x48\x83\xc4\x20\x5f\xc3 (1 found)
0x140011f97: and al, 0x40 ; add rsp, 0x20 ; pop rdi ; ret ; \x24\x40\x48\x83\xc4\x20\x5f\xc3 (1 found)
0x140013fd2: and al, 0x40 ; add rsp, 0x20 ; pop rdi ; ret ; \x24\x40\x48\x83\xc4\x20\x5f\xc3 (1 found)
0x140014520: and al, 0x40 ; add rsp, 0x20 ; pop rdi ; ret ; \x24\x40\x48\x83\xc4\x20\x5f\xc3 (1 found)
0x1400157d5: and al, 0x40 ; add rsp, 0x20 ; pop rdi ; ret ; \x24\x40\x48\x83\xc4\x20\x5f\xc3 (1 found)
0x140015d40: and al, 0x40 ; add rsp, 0x20 ; pop rdi ; ret ; \x24\x40\x48\x83\xc4\x20\x5f\xc3 (1 found)
0x14001897d: and al, 0x40 ; add rsp, 0x20 ; pop rdi ; ret ; \x24\x40\x48\x83\xc4\x20\x5f\xc3 (1 found)
0x14000ada7: and al, 0x40 ; add rsp, 0x30 ; pop rdi ; ret ; \x24\x40\x48\x83\xc4\x30\x5f\xc3 (1 found)
0x14000ae5f: and al, 0x40 ; add rsp, 0x30 ; pop rdi ; ret ; \x24\x40\x48\x83\xc4\x30\x5f\xc3 (1 found)
0x14000af17: and al, 0x40 ; add rsp, 0x30 ; pop rdi ; ret ; \x24\x40\x48\x83\xc4\x30\x5f\xc3 (1 found)
0x14001a828: and al, 0x40 ; add rsp, 0x50 ; pop rbx ; ret ; \x44\x24\x40\x48\x83\xc4\x50\x5b\xc3 (1 found)
0x14001a829: and al, 0x40 ; add rsp, 0x50 ; pop rbx ; ret ; \x24\x40\x48\x83\xc4\x50\x5b\xc3 (1 found)
0x14000374c: and al, 0x40 ; add rsp, 0x70 ; pop rbx ; ret ; \x44\x24\x40\x48\x83\xc4\x70\x5b\xc3 (1 found)
0x14000374d: and al, 0x40 ; add rsp, 0x70 ; pop rbx ; ret ; \x24\x40\x48\x83\xc4\x70\x5b\xc3 (1 found)
0x140003d14: and al, 0x40 ; mov eax,  [rax+rcx+0x04] ; add rsp, 0x20 ; pop rbx ; ret ; \x4c\x24\x40\x8b\x44\x08\x04\x48\x83\xc4\x20\x5b\xc3 (1 found)
0x140003d15: and al, 0x40 ; mov eax,  [rax+rcx+0x04] ; add rsp, 0x20 ; pop rbx ; ret ; \x24\x40\x8b\x44\x08\x04\x48\x83\xc4\x20\x5b\xc3 (1 found)
0x140014a1c: and al, 0x40 ; mov rbp, qword [rsp+0x38] ; add rsp, 0x20 ; pop rdi ; ret ; \x24\x40\x48\x8b\x6c\x24\x38\x48\x83\xc4\x20\x5f\xc3 (1 found)
0x14000d59c: and al, 0x40 ; mov rbp, qword [rsp+0x48] ; mov rsi, qword [rsp+0x50] ; add rsp, 0x30 ; pop rdi ; ret ; \x24\x40\x48\x8b\x6c\x24\x48\x48\x8b\x74\x24\x50\x48\x83\xc4\x30\x5f\xc3 (1 found)
0x14000e5f8: and al, 0x40 ; mov rbp, qword [rsp+0x48] ; mov rsi, qword [rsp+0x50] ; add rsp, 0x30 ; pop rdi ; ret ; \x24\x40\x48\x8b\x6c\x24\x48\x48\x8b\x74\x24\x50\x48\x83\xc4\x30\x5f\xc3 (1 found)
0x140015e46: and al, 0x40 ; mov rbp, qword [rsp+0x48] ; mov rsi, qword [rsp+0x50] ; add rsp, 0x30 ; pop rdi ; ret ; \x24\x40\x48\x8b\x6c\x24\x48\x48\x8b\x74\x24\x50\x48\x83\xc4\x30\x5f\xc3 (1 found)
0x140017fff: and al, 0x40 ; mov rbp, qword [rsp+0x48] ; mov rsi, qword [rsp+0x50] ; add rsp, 0x30 ; pop rdi ; ret ; \x24\x40\x48\x8b\x6c\x24\x48\x48\x8b\x74\x24\x50\x48\x83\xc4\x30\x5f\xc3 (1 found)
0x1400049df: and al, 0x40 ; mov rdi, qword [rsp+0x48] ; add rsp, 0x20 ; pop r14 ; ret ; \x24\x40\x48\x8b\x7c\x24\x48\x48\x83\xc4\x20\x41\x5e\xc3 (1 found)
0x14000b99d: and al, 0x40 ; mov rdi, qword [rsp+0x48] ; add rsp, 0x20 ; pop r14 ; ret ; \x24\x40\x48\x8b\x7c\x24\x48\x48\x83\xc4\x20\x41\x5e\xc3 (1 found)
0x140010826: and al, 0x40 ; mov rdi, qword [rsp+0x48] ; add rsp, 0x20 ; pop r14 ; ret ; \x24\x40\x48\x8b\x7c\x24\x48\x48\x83\xc4\x20\x41\x5e\xc3 (1 found)
0x140012294: and al, 0x40 ; mov rdi, qword [rsp+0x48] ; add rsp, 0x20 ; pop r14 ; ret ; \x24\x40\x48\x8b\x7c\x24\x48\x48\x83\xc4\x20\x41\x5e\xc3 (1 found)
0x140014bfd: and al, 0x40 ; mov rdi, qword [rsp+0x48] ; add rsp, 0x20 ; pop r14 ; ret ; \x24\x40\x48\x8b\x7c\x24\x48\x48\x83\xc4\x20\x41\x5e\xc3 (1 found)
0x14001b1ed: and al, 0x40 ; mov rdi, qword [rsp+0x48] ; add rsp, 0x20 ; pop r14 ; ret ; \x24\x40\x48\x8b\x7c\x24\x48\x48\x83\xc4\x20\x41\x5e\xc3 (1 found)
0x14001aef3: and al, 0x40 ; mov rdi, qword [rsp+0x48] ; add rsp, 0x20 ; pop rbp ; ret ; \x24\x40\x48\x8b\x7c\x24\x48\x48\x83\xc4\x20\x5d\xc3 (1 found)
0x14001301e: and al, 0x40 ; mov rsi, qword [rsp+0x38] ; add rsp, 0x20 ; pop r14 ; ret ; \x24\x40\x48\x8b\x74\x24\x38\x48\x83\xc4\x20\x41\x5e\xc3 (1 found)
0x14001799e: and al, 0x40 ; mov rsi, qword [rsp+0x48] ; add rsp, 0x20 ; pop rdi ; ret ; \x24\x40\x48\x8b\x74\x24\x48\x48\x83\xc4\x20\x5f\xc3 (1 found)
0x140017a9a: and al, 0x40 ; mov rsi, qword [rsp+0x48] ; add rsp, 0x20 ; pop rdi ; ret ; \x24\x40\x48\x8b\x74\x24\x48\x48\x83\xc4\x20\x5f\xc3 (1 found)
0x14001afbf: and al, 0x40 ; mov rsi, qword [rsp+0x48] ; add rsp, 0x20 ; pop rdi ; ret ; \x24\x40\x48\x8b\x74\x24\x48\x48\x83\xc4\x20\x5f\xc3 (1 found)
0x140001f7e: and al, 0x40 ; mov rsi, qword [rsp+0x48] ; add rsp, 0x30 ; pop rdi ; ret ; \x24\x40\x48\x8b\x74\x24\x48\x48\x83\xc4\x30\x5f\xc3 (1 found)
0x14000c050: and al, 0x40 ; mov rsi, qword [rsp+0x48] ; add rsp, 0x30 ; pop rdi ; ret ; \x24\x40\x48\x8b\x74\x24\x48\x48\x83\xc4\x30\x5f\xc3 (1 found)
0x14000d9bd: and al, 0x40 ; mov rsi, qword [rsp+0x48] ; add rsp, 0x30 ; pop rdi ; ret ; \x24\x40\x48\x8b\x74\x24\x48\x48\x83\xc4\x30\x5f\xc3 (1 found)
0x140014ab1: and al, 0x40 ; mov rsi, qword [rsp+0x48] ; mov rdi, qword [rsp+0x50] ; add rsp, 0x30 ; pop r15 ; ret ; \x24\x40\x48\x8b\x74\x24\x48\x48\x8b\x7c\x24\x50\x48\x83\xc4\x30\x41\x5f\xc3 (1 found)
0x14001ab8a: and al, 0x48 ; add esp, 0x08 ; ret ; \x24\x48\x83\xc4\x08\xc3 (1 found)
0x14000e796: and al, 0x48 ; add esp, 0x28 ; ret ; \x24\x48\x83\xc4\x28\xc3 (1 found)
0x1400049e4: and al, 0x48 ; add rsp, 0x20 ; pop r14 ; ret ; \x24\x48\x48\x83\xc4\x20\x41\x5e\xc3 (1 found)
0x14000b9a2: and al, 0x48 ; add rsp, 0x20 ; pop r14 ; ret ; \x24\x48\x48\x83\xc4\x20\x41\x5e\xc3 (1 found)
0x14001082b: and al, 0x48 ; add rsp, 0x20 ; pop r14 ; ret ; \x24\x48\x48\x83\xc4\x20\x41\x5e\xc3 (1 found)
0x140012299: and al, 0x48 ; add rsp, 0x20 ; pop r14 ; ret ; \x24\x48\x48\x83\xc4\x20\x41\x5e\xc3 (1 found)
0x140014c02: and al, 0x48 ; add rsp, 0x20 ; pop r14 ; ret ; \x24\x48\x48\x83\xc4\x20\x41\x5e\xc3 (1 found)
0x14001b1f2: and al, 0x48 ; add rsp, 0x20 ; pop r14 ; ret ; \x24\x48\x48\x83\xc4\x20\x41\x5e\xc3 (1 found)
0x14001aef8: and al, 0x48 ; add rsp, 0x20 ; pop rbp ; ret ; \x24\x48\x48\x83\xc4\x20\x5d\xc3 (1 found)
0x1400179a3: and al, 0x48 ; add rsp, 0x20 ; pop rdi ; ret ; \x24\x48\x48\x83\xc4\x20\x5f\xc3 (1 found)
0x140017a9f: and al, 0x48 ; add rsp, 0x20 ; pop rdi ; ret ; \x24\x48\x48\x83\xc4\x20\x5f\xc3 (1 found)
0x14001afc4: and al, 0x48 ; add rsp, 0x20 ; pop rdi ; ret ; \x24\x48\x48\x83\xc4\x20\x5f\xc3 (1 found)
0x140001f83: and al, 0x48 ; add rsp, 0x30 ; pop rdi ; ret ; \x24\x48\x48\x83\xc4\x30\x5f\xc3 (1 found)
0x14000bf7d: and al, 0x48 ; add rsp, 0x30 ; pop rdi ; ret ; \x24\x48\x48\x83\xc4\x30\x5f\xc3 (1 found)
0x14000c055: and al, 0x48 ; add rsp, 0x30 ; pop rdi ; ret ; \x24\x48\x48\x83\xc4\x30\x5f\xc3 (1 found)
0x14000d9c2: and al, 0x48 ; add rsp, 0x30 ; pop rdi ; ret ; \x24\x48\x48\x83\xc4\x30\x5f\xc3 (1 found)
0x140010f16: and al, 0x48 ; add rsp, 0x30 ; pop rdi ; ret ; \x24\x48\x48\x83\xc4\x30\x5f\xc3 (1 found)
0x14000e584: and al, 0x48 ; mov ebx,  [rsp+0x00000080] ; add rsp, 0x70 ; pop rbp ; ret ; \x24\x48\x8b\x9c\x24\x80\x00\x00\x00\x48\x83\xc4\x70\x5d\xc3 (1 found)
0x140011f92: and al, 0x48 ; mov rbp, qword [rsp+0x40] ; add rsp, 0x20 ; pop rdi ; ret ; \x24\x48\x48\x8b\x6c\x24\x40\x48\x83\xc4\x20\x5f\xc3 (1 found)
0x140008549: and al, 0x48 ; mov rbp, qword [rsp+0x50] ; add rsp, 0x30 ; pop rdi ; ret ; \x24\x48\x48\x8b\x6c\x24\x50\x48\x83\xc4\x30\x5f\xc3 (1 found)
0x1400085d9: and al, 0x48 ; mov rbp, qword [rsp+0x50] ; add rsp, 0x30 ; pop rdi ; ret ; \x24\x48\x48\x8b\x6c\x24\x50\x48\x83\xc4\x30\x5f\xc3 (1 found)
0x140008669: and al, 0x48 ; mov rbp, qword [rsp+0x50] ; add rsp, 0x30 ; pop rdi ; ret ; \x24\x48\x48\x8b\x6c\x24\x50\x48\x83\xc4\x30\x5f\xc3 (1 found)
0x140014ab6: and al, 0x48 ; mov rdi, qword [rsp+0x50] ; add rsp, 0x30 ; pop r15 ; ret ; \x24\x48\x48\x8b\x7c\x24\x50\x48\x83\xc4\x30\x41\x5f\xc3 (1 found)
0x14000c923: and al, 0x48 ; mov rdi, qword [rsp+0x50] ; mov r14, qword [rsp+0x58] ; add rsp, 0x30 ; pop r15 ; ret ; \x24\x48\x48\x8b\x7c\x24\x50\x4c\x8b\x74\x24\x58\x48\x83\xc4\x30\x41\x5f\xc3 (1 found)
0x14000d5a1: and al, 0x48 ; mov rsi, qword [rsp+0x50] ; add rsp, 0x30 ; pop rdi ; ret ; \x24\x48\x48\x8b\x74\x24\x50\x48\x83\xc4\x30\x5f\xc3 (1 found)
0x14000e5fd: and al, 0x48 ; mov rsi, qword [rsp+0x50] ; add rsp, 0x30 ; pop rdi ; ret ; \x24\x48\x48\x8b\x74\x24\x50\x48\x83\xc4\x30\x5f\xc3 (1 found)
0x140015e4b: and al, 0x48 ; mov rsi, qword [rsp+0x50] ; add rsp, 0x30 ; pop rdi ; ret ; \x24\x48\x48\x8b\x74\x24\x50\x48\x83\xc4\x30\x5f\xc3 (1 found)
0x140018004: and al, 0x48 ; mov rsi, qword [rsp+0x50] ; add rsp, 0x30 ; pop rdi ; ret ; \x24\x48\x48\x8b\x74\x24\x50\x48\x83\xc4\x30\x5f\xc3 (1 found)
0x1400065ce: and al, 0x48 ; mov rsi, qword [rsp+0x50] ; mov rdi, qword [rsp+0x58] ; add rsp, 0x30 ; pop r14 ; ret ; \x24\x48\x48\x8b\x74\x24\x50\x48\x8b\x7c\x24\x58\x48\x83\xc4\x30\x41\x5e\xc3 (1 found)
0x1400067da: and al, 0x48 ; mov rsi, qword [rsp+0x50] ; mov rdi, qword [rsp+0x58] ; add rsp, 0x30 ; pop r14 ; ret ; \x24\x48\x48\x8b\x74\x24\x50\x48\x8b\x7c\x24\x58\x48\x83\xc4\x30\x41\x5e\xc3 (1 found)
0x1400069e6: and al, 0x48 ; mov rsi, qword [rsp+0x50] ; mov rdi, qword [rsp+0x58] ; add rsp, 0x30 ; pop r14 ; ret ; \x24\x48\x48\x8b\x74\x24\x50\x48\x8b\x7c\x24\x58\x48\x83\xc4\x30\x41\x5e\xc3 (1 found)
0x140006bf2: and al, 0x48 ; mov rsi, qword [rsp+0x50] ; mov rdi, qword [rsp+0x58] ; add rsp, 0x30 ; pop r14 ; ret ; \x24\x48\x48\x8b\x74\x24\x50\x48\x8b\x7c\x24\x58\x48\x83\xc4\x30\x41\x5e\xc3 (1 found)
0x140006dfe: and al, 0x48 ; mov rsi, qword [rsp+0x50] ; mov rdi, qword [rsp+0x58] ; add rsp, 0x30 ; pop r14 ; ret ; \x24\x48\x48\x8b\x74\x24\x50\x48\x8b\x7c\x24\x58\x48\x83\xc4\x30\x41\x5e\xc3 (1 found)
0x14000700a: and al, 0x48 ; mov rsi, qword [rsp+0x50] ; mov rdi, qword [rsp+0x58] ; add rsp, 0x30 ; pop r14 ; ret ; \x24\x48\x48\x8b\x74\x24\x50\x48\x8b\x7c\x24\x58\x48\x83\xc4\x30\x41\x5e\xc3 (1 found)
0x140007216: and al, 0x48 ; mov rsi, qword [rsp+0x50] ; mov rdi, qword [rsp+0x58] ; add rsp, 0x30 ; pop r14 ; ret ; \x24\x48\x48\x8b\x74\x24\x50\x48\x8b\x7c\x24\x58\x48\x83\xc4\x30\x41\x5e\xc3 (1 found)
0x140007422: and al, 0x48 ; mov rsi, qword [rsp+0x50] ; mov rdi, qword [rsp+0x58] ; add rsp, 0x30 ; pop r14 ; ret ; \x24\x48\x48\x8b\x74\x24\x50\x48\x8b\x7c\x24\x58\x48\x83\xc4\x30\x41\x5e\xc3 (1 found)
0x14000762e: and al, 0x48 ; mov rsi, qword [rsp+0x50] ; mov rdi, qword [rsp+0x58] ; add rsp, 0x30 ; pop r14 ; ret ; \x24\x48\x48\x8b\x74\x24\x50\x48\x8b\x7c\x24\x58\x48\x83\xc4\x30\x41\x5e\xc3 (1 found)
0x140008912: and al, 0x48 ; mov rsi, qword [rsp+0x50] ; mov rdi, qword [rsp+0x58] ; add rsp, 0x30 ; pop r14 ; ret ; \x24\x48\x48\x8b\x74\x24\x50\x48\x8b\x7c\x24\x58\x48\x83\xc4\x30\x41\x5e\xc3 (1 found)
0x140008be4: and al, 0x48 ; mov rsi, qword [rsp+0x50] ; mov rdi, qword [rsp+0x58] ; add rsp, 0x30 ; pop r14 ; ret ; \x24\x48\x48\x8b\x74\x24\x50\x48\x8b\x7c\x24\x58\x48\x83\xc4\x30\x41\x5e\xc3 (1 found)
0x140008ebb: and al, 0x48 ; mov rsi, qword [rsp+0x50] ; mov rdi, qword [rsp+0x58] ; add rsp, 0x30 ; pop r14 ; ret ; \x24\x48\x48\x8b\x74\x24\x50\x48\x8b\x7c\x24\x58\x48\x83\xc4\x30\x41\x5e\xc3 (1 found)
0x14000be53: and al, 0x48 ; mov rsi, qword [rsp+0x50] ; mov rdi, qword [rsp+0x58] ; add rsp, 0x30 ; pop r14 ; ret ; \x24\x48\x48\x8b\x74\x24\x50\x48\x8b\x7c\x24\x58\x48\x83\xc4\x30\x41\x5e\xc3 (1 found)
0x14000fc19: and al, 0x48 ; mov rsi, qword [rsp+0x50] ; mov rdi, qword [rsp+0x58] ; add rsp, 0x30 ; pop r14 ; ret ; \x24\x48\x48\x8b\x74\x24\x50\x48\x8b\x7c\x24\x58\x48\x83\xc4\x30\x41\x5e\xc3 (1 found)
0x1400148b9: and al, 0x48 ; mov rsi, qword [rsp+0x50] ; mov rdi, qword [rsp+0x58] ; add rsp, 0x30 ; pop r14 ; ret ; \x24\x48\x48\x8b\x74\x24\x50\x48\x8b\x7c\x24\x58\x48\x83\xc4\x30\x41\x5e\xc3 (1 found)
0x14001b253: and al, 0x4C ; mov ebx,  [rsp+0x08] ; add rsp, 0x10 ; ret ; \x24\x4c\x8b\x5c\x24\x08\x48\x83\xc4\x10\xc3 (1 found)
0x14001a3d6: and al, 0x50 ; add rsp, 0x20 ; pop r15 ; pop r14 ; pop r12 ; ret ; \x24\x50\x48\x83\xc4\x20\x41\x5f\x41\x5e\x41\x5c\xc3 (1 found)
0x14001a7bd: and al, 0x50 ; add rsp, 0x20 ; pop r15 ; pop r14 ; pop r12 ; ret ; \x24\x50\x48\x83\xc4\x20\x41\x5f\x41\x5e\x41\x5c\xc3 (1 found)
0x14000b371: and al, 0x50 ; add rsp, 0x20 ; pop r15 ; pop r14 ; pop rdi ; ret ; \x24\x50\x48\x83\xc4\x20\x41\x5f\x41\x5e\x5f\xc3 (1 found)
0x14000b451: and al, 0x50 ; add rsp, 0x20 ; pop r15 ; pop r14 ; pop rdi ; ret ; \x24\x50\x48\x83\xc4\x20\x41\x5f\x41\x5e\x5f\xc3 (1 found)
0x14000dccc: and al, 0x50 ; add rsp, 0x20 ; pop r15 ; pop r14 ; pop rdi ; ret ; \x24\x50\x48\x83\xc4\x20\x41\x5f\x41\x5e\x5f\xc3 (1 found)
0x14000ddec: and al, 0x50 ; add rsp, 0x20 ; pop r15 ; pop r14 ; pop rdi ; ret ; \x24\x50\x48\x83\xc4\x20\x41\x5f\x41\x5e\x5f\xc3 (1 found)
0x14000f3a2: and al, 0x50 ; add rsp, 0x20 ; pop r15 ; pop r14 ; pop rdi ; ret ; \x24\x50\x48\x83\xc4\x20\x41\x5f\x41\x5e\x5f\xc3 (1 found)
0x140017d92: and al, 0x50 ; add rsp, 0x20 ; pop r15 ; pop r14 ; pop rdi ; ret ; \x24\x50\x48\x83\xc4\x20\x41\x5f\x41\x5e\x5f\xc3 (1 found)
0x1400188a1: and al, 0x50 ; add rsp, 0x30 ; pop r14 ; pop rdi ; pop rsi ; ret ; \x24\x50\x48\x83\xc4\x30\x41\x5e\x5f\x5e\xc3 (1 found)
0x140014abb: and al, 0x50 ; add rsp, 0x30 ; pop r15 ; ret ; \x24\x50\x48\x83\xc4\x30\x41\x5f\xc3 (1 found)
0x14000854e: and al, 0x50 ; add rsp, 0x30 ; pop rdi ; ret ; \x24\x50\x48\x83\xc4\x30\x5f\xc3 (1 found)
0x1400085de: and al, 0x50 ; add rsp, 0x30 ; pop rdi ; ret ; \x24\x50\x48\x83\xc4\x30\x5f\xc3 (1 found)
0x14000866e: and al, 0x50 ; add rsp, 0x30 ; pop rdi ; ret ; \x24\x50\x48\x83\xc4\x30\x5f\xc3 (1 found)
0x14000d5a6: and al, 0x50 ; add rsp, 0x30 ; pop rdi ; ret ; \x24\x50\x48\x83\xc4\x30\x5f\xc3 (1 found)
0x14000e602: and al, 0x50 ; add rsp, 0x30 ; pop rdi ; ret ; \x24\x50\x48\x83\xc4\x30\x5f\xc3 (1 found)
0x140015e50: and al, 0x50 ; add rsp, 0x30 ; pop rdi ; ret ; \x24\x50\x48\x83\xc4\x30\x5f\xc3 (1 found)
0x140018009: and al, 0x50 ; add rsp, 0x30 ; pop rdi ; ret ; \x24\x50\x48\x83\xc4\x30\x5f\xc3 (1 found)
0x1400010b0: and al, 0x50 ; add rsp, 0x40 ; pop rdi ; ret ; \x24\x50\x48\x83\xc4\x40\x5f\xc3 (1 found)
0x140001306: and al, 0x50 ; add rsp, 0x40 ; pop rdi ; ret ; \x24\x50\x48\x83\xc4\x40\x5f\xc3 (1 found)
0x140001321: and al, 0x50 ; add rsp, 0x40 ; pop rdi ; ret ; \x24\x50\x48\x83\xc4\x40\x5f\xc3 (1 found)
0x1400139ae: and al, 0x50 ; add rsp, 0x40 ; pop rdi ; ret ; \x24\x50\x48\x83\xc4\x40\x5f\xc3 (1 found)
0x14001ab5f: and al, 0x50 ; add rsp, 0x68 ; ret ; \x24\x50\x48\x83\xc4\x68\xc3 (1 found)
0x14000c928: and al, 0x50 ; mov r14, qword [rsp+0x58] ; add rsp, 0x30 ; pop r15 ; ret ; \x24\x50\x4c\x8b\x74\x24\x58\x48\x83\xc4\x30\x41\x5f\xc3 (1 found)
0x1400065d3: and al, 0x50 ; mov rdi, qword [rsp+0x58] ; add rsp, 0x30 ; pop r14 ; ret ; \x24\x50\x48\x8b\x7c\x24\x58\x48\x83\xc4\x30\x41\x5e\xc3 (1 found)
0x1400067df: and al, 0x50 ; mov rdi, qword [rsp+0x58] ; add rsp, 0x30 ; pop r14 ; ret ; \x24\x50\x48\x8b\x7c\x24\x58\x48\x83\xc4\x30\x41\x5e\xc3 (1 found)
0x1400069eb: and al, 0x50 ; mov rdi, qword [rsp+0x58] ; add rsp, 0x30 ; pop r14 ; ret ; \x24\x50\x48\x8b\x7c\x24\x58\x48\x83\xc4\x30\x41\x5e\xc3 (1 found)
0x140006bf7: and al, 0x50 ; mov rdi, qword [rsp+0x58] ; add rsp, 0x30 ; pop r14 ; ret ; \x24\x50\x48\x8b\x7c\x24\x58\x48\x83\xc4\x30\x41\x5e\xc3 (1 found)
0x140006e03: and al, 0x50 ; mov rdi, qword [rsp+0x58] ; add rsp, 0x30 ; pop r14 ; ret ; \x24\x50\x48\x8b\x7c\x24\x58\x48\x83\xc4\x30\x41\x5e\xc3 (1 found)
0x14000700f: and al, 0x50 ; mov rdi, qword [rsp+0x58] ; add rsp, 0x30 ; pop r14 ; ret ; \x24\x50\x48\x8b\x7c\x24\x58\x48\x83\xc4\x30\x41\x5e\xc3 (1 found)
0x14000721b: and al, 0x50 ; mov rdi, qword [rsp+0x58] ; add rsp, 0x30 ; pop r14 ; ret ; \x24\x50\x48\x8b\x7c\x24\x58\x48\x83\xc4\x30\x41\x5e\xc3 (1 found)
0x140007427: and al, 0x50 ; mov rdi, qword [rsp+0x58] ; add rsp, 0x30 ; pop r14 ; ret ; \x24\x50\x48\x8b\x7c\x24\x58\x48\x83\xc4\x30\x41\x5e\xc3 (1 found)
0x140007633: and al, 0x50 ; mov rdi, qword [rsp+0x58] ; add rsp, 0x30 ; pop r14 ; ret ; \x24\x50\x48\x8b\x7c\x24\x58\x48\x83\xc4\x30\x41\x5e\xc3 (1 found)
0x140008917: and al, 0x50 ; mov rdi, qword [rsp+0x58] ; add rsp, 0x30 ; pop r14 ; ret ; \x24\x50\x48\x8b\x7c\x24\x58\x48\x83\xc4\x30\x41\x5e\xc3 (1 found)
0x140008be9: and al, 0x50 ; mov rdi, qword [rsp+0x58] ; add rsp, 0x30 ; pop r14 ; ret ; \x24\x50\x48\x8b\x7c\x24\x58\x48\x83\xc4\x30\x41\x5e\xc3 (1 found)
0x140008ec0: and al, 0x50 ; mov rdi, qword [rsp+0x58] ; add rsp, 0x30 ; pop r14 ; ret ; \x24\x50\x48\x8b\x7c\x24\x58\x48\x83\xc4\x30\x41\x5e\xc3 (1 found)
0x14000be58: and al, 0x50 ; mov rdi, qword [rsp+0x58] ; add rsp, 0x30 ; pop r14 ; ret ; \x24\x50\x48\x8b\x7c\x24\x58\x48\x83\xc4\x30\x41\x5e\xc3 (1 found)
0x14000fc1e: and al, 0x50 ; mov rdi, qword [rsp+0x58] ; add rsp, 0x30 ; pop r14 ; ret ; \x24\x50\x48\x8b\x7c\x24\x58\x48\x83\xc4\x30\x41\x5e\xc3 (1 found)
0x1400148be: and al, 0x50 ; mov rdi, qword [rsp+0x58] ; add rsp, 0x30 ; pop r14 ; ret ; \x24\x50\x48\x8b\x7c\x24\x58\x48\x83\xc4\x30\x41\x5e\xc3 (1 found)
0x14001a1a9: and al, 0x50 ; mov rsi, qword [rsp+0x60] ; add rsp, 0x40 ; pop rdi ; ret ; \x24\x50\x48\x8b\x74\x24\x60\x48\x83\xc4\x40\x5f\xc3 (1 found)
0x14000241a: and al, 0x50 ; not rax ; mov qword [0x000000014002A040], rax ; add rsp, 0x30 ; pop rbp ; ret ; \x24\x50\x48\xf7\xd0\x48\x89\x05\x1a\x7c\x02\x00\x48\x83\xc4\x30\x5d\xc3 (1 found)
0x14000f60d: and al, 0x58 ; add rsp, 0x20 ; pop r15 ; pop r14 ; pop r12 ; ret ; \x24\x58\x48\x83\xc4\x20\x41\x5f\x41\x5e\x41\x5c\xc3 (1 found)
0x140012ac0: and al, 0x58 ; add rsp, 0x20 ; pop r15 ; pop r14 ; pop r13 ; ret ; \x64\x24\x58\x48\x83\xc4\x20\x41\x5f\x41\x5e\x41\x5d\xc3 (1 found)
0x140012ac1: and al, 0x58 ; add rsp, 0x20 ; pop r15 ; pop r14 ; pop r13 ; ret ; \x24\x58\x48\x83\xc4\x20\x41\x5f\x41\x5e\x41\x5d\xc3 (1 found)
0x1400065d8: and al, 0x58 ; add rsp, 0x30 ; pop r14 ; ret ; \x24\x58\x48\x83\xc4\x30\x41\x5e\xc3 (1 found)
0x1400067e4: and al, 0x58 ; add rsp, 0x30 ; pop r14 ; ret ; \x24\x58\x48\x83\xc4\x30\x41\x5e\xc3 (1 found)
0x1400069f0: and al, 0x58 ; add rsp, 0x30 ; pop r14 ; ret ; \x24\x58\x48\x83\xc4\x30\x41\x5e\xc3 (1 found)
0x140006bfc: and al, 0x58 ; add rsp, 0x30 ; pop r14 ; ret ; \x24\x58\x48\x83\xc4\x30\x41\x5e\xc3 (1 found)
0x140006e08: and al, 0x58 ; add rsp, 0x30 ; pop r14 ; ret ; \x24\x58\x48\x83\xc4\x30\x41\x5e\xc3 (1 found)
0x140007014: and al, 0x58 ; add rsp, 0x30 ; pop r14 ; ret ; \x24\x58\x48\x83\xc4\x30\x41\x5e\xc3 (1 found)
0x140007220: and al, 0x58 ; add rsp, 0x30 ; pop r14 ; ret ; \x24\x58\x48\x83\xc4\x30\x41\x5e\xc3 (1 found)
0x14000742c: and al, 0x58 ; add rsp, 0x30 ; pop r14 ; ret ; \x24\x58\x48\x83\xc4\x30\x41\x5e\xc3 (1 found)
0x140007638: and al, 0x58 ; add rsp, 0x30 ; pop r14 ; ret ; \x24\x58\x48\x83\xc4\x30\x41\x5e\xc3 (1 found)
0x14000891c: and al, 0x58 ; add rsp, 0x30 ; pop r14 ; ret ; \x24\x58\x48\x83\xc4\x30\x41\x5e\xc3 (1 found)
0x140008bee: and al, 0x58 ; add rsp, 0x30 ; pop r14 ; ret ; \x24\x58\x48\x83\xc4\x30\x41\x5e\xc3 (1 found)
0x140008ec5: and al, 0x58 ; add rsp, 0x30 ; pop r14 ; ret ; \x24\x58\x48\x83\xc4\x30\x41\x5e\xc3 (1 found)
0x14000be5d: and al, 0x58 ; add rsp, 0x30 ; pop r14 ; ret ; \x24\x58\x48\x83\xc4\x30\x41\x5e\xc3 (1 found)
0x14000fc23: and al, 0x58 ; add rsp, 0x30 ; pop r14 ; ret ; \x24\x58\x48\x83\xc4\x30\x41\x5e\xc3 (1 found)
0x1400148c3: and al, 0x58 ; add rsp, 0x30 ; pop r14 ; ret ; \x24\x58\x48\x83\xc4\x30\x41\x5e\xc3 (1 found)
0x14000c92d: and al, 0x58 ; add rsp, 0x30 ; pop r15 ; ret ; \x24\x58\x48\x83\xc4\x30\x41\x5f\xc3 (1 found)
0x140003cb0: and al, 0x58 ; mov rbp, qword [rsp+0x60] ; mov rsi, qword [rsp+0x68] ; add rsp, 0x40 ; pop rdi ; ret ; \x24\x58\x48\x8b\x6c\x24\x60\x48\x8b\x74\x24\x68\x48\x83\xc4\x40\x5f\xc3 (1 found)
0x140014d65: and al, 0x60 ; add rsp, 0x30 ; pop r15 ; pop r14 ; pop r12 ; ret ; \x24\x60\x48\x83\xc4\x30\x41\x5f\x41\x5e\x41\x5c\xc3 (1 found)
0x140003fad: and al, 0x60 ; add rsp, 0x30 ; pop r15 ; pop r14 ; pop r13 ; ret ; \x24\x60\x48\x83\xc4\x30\x41\x5f\x41\x5e\x41\x5d\xc3 (1 found)
0x14000d4cc: and al, 0x60 ; add rsp, 0x30 ; pop r15 ; pop r14 ; pop rdi ; ret ; \x24\x60\x48\x83\xc4\x30\x41\x5f\x41\x5e\x5f\xc3 (1 found)
0x14001a1ae: and al, 0x60 ; add rsp, 0x40 ; pop rdi ; ret ; \x24\x60\x48\x83\xc4\x40\x5f\xc3 (1 found)
0x140005739: and al, 0x60 ; add rsp, 0x50 ; pop rbp ; ret ; \x24\x60\x48\x83\xc4\x50\x5d\xc3 (1 found)
0x1400183a5: and al, 0x60 ; add rsp, 0x50 ; pop rdi ; ret ; \x24\x60\x48\x83\xc4\x50\x5f\xc3 (1 found)
0x14000f243: and al, 0x60 ; mov rbp, qword [rsp+0x68] ; mov rsi, qword [rsp+0x70] ; add rsp, 0x50 ; pop rdi ; ret ; \x24\x60\x48\x8b\x6c\x24\x68\x48\x8b\x74\x24\x70\x48\x83\xc4\x50\x5f\xc3 (1 found)
0x140010c16: and al, 0x60 ; mov rbp, qword [rsp+0x68] ; mov rsi, qword [rsp+0x70] ; add rsp, 0x50 ; pop rdi ; ret ; \x24\x60\x48\x8b\x6c\x24\x68\x48\x8b\x74\x24\x70\x48\x83\xc4\x50\x5f\xc3 (1 found)
0x140010d92: and al, 0x60 ; mov rbp, qword [rsp+0x68] ; mov rsi, qword [rsp+0x70] ; add rsp, 0x50 ; pop rdi ; ret ; \x24\x60\x48\x8b\x6c\x24\x68\x48\x8b\x74\x24\x70\x48\x83\xc4\x50\x5f\xc3 (1 found)
0x140017e35: and al, 0x60 ; mov rbp, qword [rsp+0x68] ; mov rsi, qword [rsp+0x70] ; add rsp, 0x50 ; pop rdi ; ret ; \x24\x60\x48\x8b\x6c\x24\x68\x48\x8b\x74\x24\x70\x48\x83\xc4\x50\x5f\xc3 (1 found)
0x14001932a: and al, 0x60 ; mov rbp, qword [rsp+0x68] ; mov rsi, qword [rsp+0x70] ; add rsp, 0x50 ; pop rdi ; ret ; \x24\x60\x48\x8b\x6c\x24\x68\x48\x8b\x74\x24\x70\x48\x83\xc4\x50\x5f\xc3 (1 found)
0x140003cb5: and al, 0x60 ; mov rsi, qword [rsp+0x68] ; add rsp, 0x40 ; pop rdi ; ret ; \x24\x60\x48\x8b\x74\x24\x68\x48\x83\xc4\x40\x5f\xc3 (1 found)
0x14000f8de: and al, 0x60 ; mov rsi, qword [rsp+0x68] ; add rsp, 0x50 ; pop rdi ; ret ; \x24\x60\x48\x8b\x74\x24\x68\x48\x83\xc4\x50\x5f\xc3 (1 found)
0x140012333: and al, 0x60 ; mov rsi, qword [rsp+0x78] ; add rsp, 0x50 ; pop rdi ; ret ; \x24\x60\x48\x8b\x74\x24\x78\x48\x83\xc4\x50\x5f\xc3 (1 found)
0x14000f017: and al, 0x68 ; add rsp, 0x30 ; pop r15 ; pop r14 ; pop r13 ; ret ; \x24\x68\x48\x83\xc4\x30\x41\x5f\x41\x5e\x41\x5d\xc3 (1 found)
0x14001869b: and al, 0x68 ; add rsp, 0x30 ; pop r15 ; pop r14 ; pop rdi ; ret ; \x24\x68\x48\x83\xc4\x30\x41\x5f\x41\x5e\x5f\xc3 (1 found)
0x140003cba: and al, 0x68 ; add rsp, 0x40 ; pop rdi ; ret ; \x24\x68\x48\x83\xc4\x40\x5f\xc3 (1 found)
0x14000f8e3: and al, 0x68 ; add rsp, 0x50 ; pop rdi ; ret ; \x24\x68\x48\x83\xc4\x50\x5f\xc3 (1 found)
0x14000f4ef: and al, 0x68 ; mov rdi, qword [rsp+0x70] ; mov r14, qword [rsp+0x78] ; add rsp, 0x50 ; pop r15 ; ret ; \x24\x68\x48\x8b\x7c\x24\x70\x4c\x8b\x74\x24\x78\x48\x83\xc4\x50\x41\x5f\xc3 (1 found)
0x14000f248: and al, 0x68 ; mov rsi, qword [rsp+0x70] ; add rsp, 0x50 ; pop rdi ; ret ; \x24\x68\x48\x8b\x74\x24\x70\x48\x83\xc4\x50\x5f\xc3 (1 found)
0x140010c1b: and al, 0x68 ; mov rsi, qword [rsp+0x70] ; add rsp, 0x50 ; pop rdi ; ret ; \x24\x68\x48\x8b\x74\x24\x70\x48\x83\xc4\x50\x5f\xc3 (1 found)
0x140010d97: and al, 0x68 ; mov rsi, qword [rsp+0x70] ; add rsp, 0x50 ; pop rdi ; ret ; \x24\x68\x48\x8b\x74\x24\x70\x48\x83\xc4\x50\x5f\xc3 (1 found)
0x140017e3a: and al, 0x68 ; mov rsi, qword [rsp+0x70] ; add rsp, 0x50 ; pop rdi ; ret ; \x24\x68\x48\x8b\x74\x24\x70\x48\x83\xc4\x50\x5f\xc3 (1 found)
0x14001932f: and al, 0x68 ; mov rsi, qword [rsp+0x70] ; add rsp, 0x50 ; pop rdi ; ret ; \x24\x68\x48\x8b\x74\x24\x70\x48\x83\xc4\x50\x5f\xc3 (1 found)
0x14000ef89: and al, 0x68 ; mov rsi, qword [rsp+0x70] ; mov rdi, qword [rsp+0x78] ; add rsp, 0x50 ; pop r14 ; ret ; \x24\x68\x48\x8b\x74\x24\x70\x48\x8b\x7c\x24\x78\x48\x83\xc4\x50\x41\x5e\xc3 (1 found)
0x14001a4a6: and al, 0x68 ; mov rsi, qword [rsp+0x70] ; mov rdi, qword [rsp+0x78] ; add rsp, 0x50 ; pop r14 ; ret ; \x24\x68\x48\x8b\x74\x24\x70\x48\x8b\x7c\x24\x78\x48\x83\xc4\x50\x41\x5e\xc3 (1 found)
0x14000f9fa: and al, 0x70 ; add rsp, 0x40 ; pop r14 ; pop rdi ; pop rsi ; ret ; \x24\x70\x48\x83\xc4\x40\x41\x5e\x5f\x5e\xc3 (1 found)
0x14000f24d: and al, 0x70 ; add rsp, 0x50 ; pop rdi ; ret ; \x24\x70\x48\x83\xc4\x50\x5f\xc3 (1 found)
0x140010c20: and al, 0x70 ; add rsp, 0x50 ; pop rdi ; ret ; \x24\x70\x48\x83\xc4\x50\x5f\xc3 (1 found)
0x140010d9c: and al, 0x70 ; add rsp, 0x50 ; pop rdi ; ret ; \x24\x70\x48\x83\xc4\x50\x5f\xc3 (1 found)
0x140017e3f: and al, 0x70 ; add rsp, 0x50 ; pop rdi ; ret ; \x24\x70\x48\x83\xc4\x50\x5f\xc3 (1 found)
0x140019334: and al, 0x70 ; add rsp, 0x50 ; pop rdi ; ret ; \x24\x70\x48\x83\xc4\x50\x5f\xc3 (1 found)
0x14000bdff: and al, 0x70 ; mov eax, edi ; mov rdi, qword [rsp+0x78] ; add rsp, 0x60 ; pop rbp ; ret ; \x24\x70\x8b\xc7\x48\x8b\x7c\x24\x78\x48\x83\xc4\x60\x5d\xc3 (1 found)
0x14000c0e9: and al, 0x70 ; mov eax, edi ; mov rdi, qword [rsp+0x78] ; add rsp, 0x60 ; pop rbp ; ret ; \x24\x70\x8b\xc7\x48\x8b\x7c\x24\x78\x48\x83\xc4\x60\x5d\xc3 (1 found)
0x140011a09: and al, 0x70 ; mov eax, edi ; mov rdi, qword [rsp+0x78] ; add rsp, 0x60 ; pop rbp ; ret ; \x24\x70\x8b\xc7\x48\x8b\x7c\x24\x78\x48\x83\xc4\x60\x5d\xc3 (1 found)
0x140012505: and al, 0x70 ; mov eax, edi ; mov rdi, qword [rsp+0x78] ; add rsp, 0x60 ; pop rbp ; ret ; \x24\x70\x8b\xc7\x48\x8b\x7c\x24\x78\x48\x83\xc4\x60\x5d\xc3 (1 found)
0x14001a241: and al, 0x70 ; mov eax, edi ; mov rdi, qword [rsp+0x78] ; add rsp, 0x60 ; pop rbp ; ret ; \x24\x70\x8b\xc7\x48\x8b\x7c\x24\x78\x48\x83\xc4\x60\x5d\xc3 (1 found)
0x14000f4f4: and al, 0x70 ; mov r14, qword [rsp+0x78] ; add rsp, 0x50 ; pop r15 ; ret ; \x24\x70\x4c\x8b\x74\x24\x78\x48\x83\xc4\x50\x41\x5f\xc3 (1 found)
0x14001809e: and al, 0x70 ; mov rax, rdi ; mov rdi, qword [rsp+0x78] ; add rsp, 0x60 ; pop rbp ; ret ; \x24\x70\x48\x8b\xc7\x48\x8b\x7c\x24\x78\x48\x83\xc4\x60\x5d\xc3 (1 found)
0x14001813a: and al, 0x70 ; mov rax, rdi ; mov rdi, qword [rsp+0x78] ; add rsp, 0x60 ; pop rbp ; ret ; \x24\x70\x48\x8b\xc7\x48\x8b\x7c\x24\x78\x48\x83\xc4\x60\x5d\xc3 (1 found)
0x1400191d3: and al, 0x70 ; mov rbx, qword [r11+0x10] ; mov rsi, qword [r11+0x18] ; mov rsp, r11 ; pop rdi ; ret ; \x24\x70\x49\x8b\x5b\x10\x49\x8b\x73\x18\x49\x8b\xe3\x5f\xc3 (1 found)
0x14000ef8e: and al, 0x70 ; mov rdi, qword [rsp+0x78] ; add rsp, 0x50 ; pop r14 ; ret ; \x24\x70\x48\x8b\x7c\x24\x78\x48\x83\xc4\x50\x41\x5e\xc3 (1 found)
0x14001a4ab: and al, 0x70 ; mov rdi, qword [rsp+0x78] ; add rsp, 0x50 ; pop r14 ; ret ; \x24\x70\x48\x8b\x7c\x24\x78\x48\x83\xc4\x50\x41\x5e\xc3 (1 found)
0x140005572: and al, 0x70 ; mov rsi, qword [rsp+0x78] ; add rsp, 0x50 ; pop rdi ; ret ; \x24\x70\x48\x8b\x74\x24\x78\x48\x83\xc4\x50\x5f\xc3 (1 found)
0x140016236: and al, 0x78 ; add al, byte [rax] ; add byte [rcx-0x7D], cl ; ret ; \x24\x78\x02\x00\x00\x49\x83\xc3 (1 found)
0x140018368: and al, 0x78 ; add rsp, 0x40 ; pop r15 ; pop r14 ; pop r12 ; ret ; \x24\x78\x48\x83\xc4\x40\x41\x5f\x41\x5e\x41\x5c\xc3 (1 found)
0x14000ef93: and al, 0x78 ; add rsp, 0x50 ; pop r14 ; ret ; \x24\x78\x48\x83\xc4\x50\x41\x5e\xc3 (1 found)
0x14001a4b0: and al, 0x78 ; add rsp, 0x50 ; pop r14 ; ret ; \x24\x78\x48\x83\xc4\x50\x41\x5e\xc3 (1 found)
0x14000f4f9: and al, 0x78 ; add rsp, 0x50 ; pop r15 ; ret ; \x24\x78\x48\x83\xc4\x50\x41\x5f\xc3 (1 found)
0x140005577: and al, 0x78 ; add rsp, 0x50 ; pop rdi ; ret ; \x24\x78\x48\x83\xc4\x50\x5f\xc3 (1 found)
0x140012338: and al, 0x78 ; add rsp, 0x50 ; pop rdi ; ret ; \x24\x78\x48\x83\xc4\x50\x5f\xc3 (1 found)
0x14000be06: and al, 0x78 ; add rsp, 0x60 ; pop rbp ; ret ; \x24\x78\x48\x83\xc4\x60\x5d\xc3 (1 found)
0x14000c0f0: and al, 0x78 ; add rsp, 0x60 ; pop rbp ; ret ; \x24\x78\x48\x83\xc4\x60\x5d\xc3 (1 found)
0x140011a10: and al, 0x78 ; add rsp, 0x60 ; pop rbp ; ret ; \x24\x78\x48\x83\xc4\x60\x5d\xc3 (1 found)
0x14001250c: and al, 0x78 ; add rsp, 0x60 ; pop rbp ; ret ; \x24\x78\x48\x83\xc4\x60\x5d\xc3 (1 found)
0x1400180a6: and al, 0x78 ; add rsp, 0x60 ; pop rbp ; ret ; \x24\x78\x48\x83\xc4\x60\x5d\xc3 (1 found)
0x140018142: and al, 0x78 ; add rsp, 0x60 ; pop rbp ; ret ; \x24\x78\x48\x83\xc4\x60\x5d\xc3 (1 found)
0x14001a248: and al, 0x78 ; add rsp, 0x60 ; pop rbp ; ret ; \x24\x78\x48\x83\xc4\x60\x5d\xc3 (1 found)
0x14001ab87: and al, 0x8B ; add al, 0x24 ; add rsp, 0x08 ; ret ; \x24\x8b\x04\x24\x48\x83\xc4\x08\xc3 (1 found)
0x14000f6bd: and al, 0x98 ; add byte [rax], al ; add dh, dh ; ret ; \x24\x98\x00\x00\x00\xf6\xc3 (1 found)
0x140010efe: and al, 0xF8 ; add bh, bh ; ret ; \x24\xf8\x00\xff\xc3 (1 found)
0x140019e92: and al, byte [rax] ; mov rax, rcx ; ret ; \x22\x00\x48\x8b\xc1\xc3 (1 found)
0x140016253: and al, byte [rcx-0x01] ; retn 0x4C8B ; \x22\x41\xff\xc2\x8b\x4c (1 found)
0x14001aac5: and al, ch ; add eax, 0x48000000 ; add esp, 0x38 ; ret ; \x20\xe8\x05\x00\x00\x00\x48\x83\xc4\x38\xc3 (1 found)
0x1400176e3: and al, ch ; ret ; \x20\xe8\xc3 (1 found)
0x14001bf66: and bh, bh ; call qword [rax+0x002045C7] ; \x20\xff\xff\x90\xc7\x45\x20\x00 (1 found)
0x14000fdfe: and bh, byte [rbp+0x00] ; add byte [rax-0x75], cl ; add cl, byte [rax+0x02FF4808] ; movzx eax, cl ; ret ; \x22\x7d\x00\x00\x48\x8b\x02\x88\x08\x48\xff\x02\x0f\xb6\xc1\xc3 (1 found)
0x1400028ea: and byte [r10], r12L ; ret ; \x45\x20\x22\xc3 (1 found)
0x14000294b: and byte [r10], r12L ; retn 0xC23A ; \x45\x20\x22\xc2\x3a\xc2 (1 found)
0x140002996: and byte [r10], r12L ; retn 0xC23A ; \x45\x20\x22\xc2\x3a\xc2 (1 found)
0x140001098: and byte [rax-0x39], cl ; ret ; \x20\x48\xc7\xc3 (1 found)
0x140010f12: and byte [rax-0x75], cl ; pop rsp ; and al, 0x48 ; add rsp, 0x30 ; pop rdi ; ret ; \x20\x48\x8b\x5c\x24\x48\x48\x83\xc4\x30\x5f\xc3 (1 found)
0x14000ff50: and byte [rax], al ; and qword [rbx+0x08], 0x0000000000000000 ; and qword [rbx], 0x0000000000000000 ; add rsp, 0x20 ; pop rbx ; ret ; \x20\x00\x48\x83\x63\x08\x00\x48\x83\x23\x00\x48\x83\xc4\x20\x5b\xc3 (1 found)
0x14001c293: and byte [rbp-0x17], bl ; retn 0xFF1F ; \x20\x5d\xe9\xc2\x1f\xff (1 found)
0x14000f82a: and byte [rbp-0x75], cl ; ret ; \x20\x4d\x8b\xc3 (1 found)
0x14000f85e: and byte [rbp-0x75], cl ; ret ; \x20\x4d\x8b\xc3 (1 found)
0x14000f898: and byte [rbp-0x75], cl ; ret ; \x20\x4d\x8b\xc3 (1 found)
0x14000f8d2: and byte [rbp-0x75], cl ; ret ; \x20\x4d\x8b\xc3 (1 found)
0x140013a25: and byte [rbx+0x0003A8A1], al ; add ch, bh ; mov eax, ebx ; add rsp, 0x40 ; pop rbx ; ret ; \x20\x83\xa1\xa8\x03\x00\x00\xfd\x8b\xc3\x48\x83\xc4\x40\x5b\xc3 (1 found)
0x14000d171: and byte [rbx+rcx*4+0x74], cl ; and al, 0x28 ; pop r15 ; ret ; \x20\x4c\x8b\x74\x24\x28\x41\x5f\xc3 (1 found)
0x140004092: and byte [rcx+0x5E], al ; ret ; \x20\x41\x5e\xc3 (1 found)
0x1400049e9: and byte [rcx+0x5E], al ; ret ; \x20\x41\x5e\xc3 (1 found)
0x1400054a9: and byte [rcx+0x5E], al ; ret ; \x20\x41\x5e\xc3 (1 found)
0x14000b9a7: and byte [rcx+0x5E], al ; ret ; \x20\x41\x5e\xc3 (1 found)
0x140010830: and byte [rcx+0x5E], al ; ret ; \x20\x41\x5e\xc3 (1 found)
0x14001229e: and byte [rcx+0x5E], al ; ret ; \x20\x41\x5e\xc3 (1 found)
0x140013028: and byte [rcx+0x5E], al ; ret ; \x20\x41\x5e\xc3 (1 found)
0x140014c07: and byte [rcx+0x5E], al ; ret ; \x20\x41\x5e\xc3 (1 found)
0x140014e2a: and byte [rcx+0x5E], al ; ret ; \x20\x41\x5e\xc3 (1 found)
0x14001b1f7: and byte [rcx+0x5E], al ; ret ; \x20\x41\x5e\xc3 (1 found)
0x140003912: and byte [rcx+0x5F], al ; pop r14 ; pop r12 ; pop rdi ; pop rsi ; ret ; \x20\x41\x5f\x41\x5e\x41\x5c\x5f\x5e\xc3 (1 found)
0x14000f612: and byte [rcx+0x5F], al ; pop r14 ; pop r12 ; ret ; \x20\x41\x5f\x41\x5e\x41\x5c\xc3 (1 found)
0x14001a3db: and byte [rcx+0x5F], al ; pop r14 ; pop r12 ; ret ; \x20\x41\x5f\x41\x5e\x41\x5c\xc3 (1 found)
0x14001a7c2: and byte [rcx+0x5F], al ; pop r14 ; pop r12 ; ret ; \x20\x41\x5f\x41\x5e\x41\x5c\xc3 (1 found)
0x14000352a: and byte [rcx+0x5F], al ; pop r14 ; pop r13 ; pop r12 ; pop rdi ; ret ; \x20\x41\x5f\x41\x5e\x41\x5d\x41\x5c\x5f\xc3 (1 found)
0x1400052cc: and byte [rcx+0x5F], al ; pop r14 ; pop r13 ; pop r12 ; pop rdi ; ret ; \x20\x41\x5f\x41\x5e\x41\x5d\x41\x5c\x5f\xc3 (1 found)
0x140010a7f: and byte [rcx+0x5F], al ; pop r14 ; pop r13 ; pop r12 ; pop rdi ; ret ; \x20\x41\x5f\x41\x5e\x41\x5d\x41\x5c\x5f\xc3 (1 found)
0x140012ac6: and byte [rcx+0x5F], al ; pop r14 ; pop r13 ; ret ; \x20\x41\x5f\x41\x5e\x41\x5d\xc3 (1 found)
0x14000b376: and byte [rcx+0x5F], al ; pop r14 ; pop rdi ; ret ; \x20\x41\x5f\x41\x5e\x5f\xc3 (1 found)
0x14000b456: and byte [rcx+0x5F], al ; pop r14 ; pop rdi ; ret ; \x20\x41\x5f\x41\x5e\x5f\xc3 (1 found)
0x14000dcd1: and byte [rcx+0x5F], al ; pop r14 ; pop rdi ; ret ; \x20\x41\x5f\x41\x5e\x5f\xc3 (1 found)
0x14000ddf1: and byte [rcx+0x5F], al ; pop r14 ; pop rdi ; ret ; \x20\x41\x5f\x41\x5e\x5f\xc3 (1 found)
0x14000f3a7: and byte [rcx+0x5F], al ; pop r14 ; pop rdi ; ret ; \x20\x41\x5f\x41\x5e\x5f\xc3 (1 found)
0x140017d97: and byte [rcx+0x5F], al ; pop r14 ; pop rdi ; ret ; \x20\x41\x5f\x41\x5e\x5f\xc3 (1 found)
0x140010bd5: and byte [rcx-0x75], cl ; ret ; \x20\x49\x8b\xc3 (1 found)
0x140010d51: and byte [rcx-0x75], cl ; ret ; \x20\x49\x8b\xc3 (1 found)
0x14001b527: and byte [rdi+0x0C], dh ; movdqu  [rcx], xmm0 ; movdqu  [rcx+r8-0x10], xmm0 ; ret ; \x20\x77\x0c\xf3\x0f\x7f\x01\xf3\x42\x0f\x7f\x44\x01\xf0\xc3 (1 found)
0x14001b953: and byte [rdi+0x17], dh ; movdqu xmm1,  [rdx] ; movdqu xmm2,  [rdx+r8-0x10] ; movdqu  [rcx], xmm1 ; movdqu  [rcx+r8-0x10], xmm2 ; ret ; \x20\x77\x17\xf3\x0f\x6f\x0a\xf3\x42\x0f\x6f\x54\x02\xf0\xf3\x0f\x7f\x09\xf3\x42\x0f\x7f\x54\x01\xf0\xc3 (1 found)
0x14001c4e8: and byte [rdi+0x4890FFFF], al ; add esp, 0x40 ; pop rbp ; ret ; \x20\x87\xff\xff\x90\x48\x83\xc4\x40\x5d\xc3 (1 found)
0x1400158df: and byte [rdi-0x3D], bl ; int3 ; int3 ; mov qword [0x000000014002BDC0], rcx ; ret ; \x20\x5f\xc3\xcc\xcc\x48\x89\x0d\xd5\x64\x01\x00\xc3 (1 found)
0x14000cc76: and byte [rdi-0x3D], bl ; mov rbx, qword [rsp+0x30] ; xor eax, eax ; add rsp, 0x20 ; pop rdi ; ret ; \x20\x5f\xc3\x48\x8b\x5c\x24\x30\x33\xc0\x48\x83\xc4\x20\x5f\xc3 (1 found)
0x14000273d: and byte [rdi-0x3D], bl ; retn 0x0000 ; \x20\x5f\xc3\xc2\x00\x00 (1 found)
0x1400028dd: and byte [rdi], cl ; mov edx, 0x830F1CE7 ; test byte [rax], 0x00 ; add byte [rax-0x75], cl ; and byte [r10], r12L ; ret ; \x20\x0f\xba\xe7\x1c\x0f\x83\xf6\x00\x00\x00\x48\x8b\x45\x20\x22\xc3 (1 found)
0x1400028eb: and byte [rdx], ah ; ret ; \x20\x22\xc3 (1 found)
0x14000294c: and byte [rdx], ah ; retn 0xC23A ; \x20\x22\xc2\x3a\xc2 (1 found)
0x140002997: and byte [rdx], ah ; retn 0xC23A ; \x20\x22\xc2\x3a\xc2 (1 found)
0x14000ff59: and eax,  [rax] ; add rsp, 0x20 ; pop rbx ; ret ; \x23\x00\x48\x83\xc4\x20\x5b\xc3 (1 found)
0x1400054c9: and eax,  [rax] ; mov byte [rbx+0x08], 0x00 ; add rsp, 0x20 ; pop rbx ; ret ; \x23\x00\xc6\x43\x08\x00\x48\x83\xc4\x20\x5b\xc3 (1 found)
0x1400161f1: and eax,  [rbp-0x75] ; retn 0xC88B ; \x23\x45\x8b\xc2\x8b\xc8 (1 found)
0x14000e27c: and eax, 0x00000030 ; mov rcx, qword [rax+0x60] ; mov eax,  [rcx+0x000000BC] ; shr eax, 0x08 ; and al, 0x01 ; ret ; \x25\x30\x00\x00\x00\x48\x8b\x48\x60\x8b\x81\xbc\x00\x00\x00\xc1\xe8\x08\x24\x01\xc3 (1 found)
0x14000e298: and eax, 0x00000030 ; mov rcx, qword [rax+0x60] ; mov rax, qword [rcx+0x20] ; mov eax,  [rax+0x08] ; shr eax, 0x1F ; ret ; \x25\x30\x00\x00\x00\x48\x8b\x48\x60\x48\x8b\x41\x20\x8b\x40\x08\xc1\xe8\x1f\xc3 (1 found)
0x140010b2c: and eax, 0x0000C7D7 ; mov eax, 0xC0000225 ; add rsp, 0x20 ; pop rbx ; ret ; \x25\xd7\xc7\x00\x00\xb8\x25\x02\x00\xc0\x48\x83\xc4\x20\x5b\xc3 (1 found)
0x140002661: and eax, 0x0001AA92 ; int3 ; int3 ; xor eax, eax ; ret ; \x25\x92\xaa\x01\x00\xcc\xcc\x33\xc0\xc3 (1 found)
0x140002455: and eax, 0x0001ACD6 ; int3 ; int3 ; mov al, 0x01 ; ret ; \x25\xd6\xac\x01\x00\xcc\xcc\xb0\x01\xc3 (1 found)
0x14000dfea: and eax, 0x0001D518 ; add byte [rax-0x3B7CB7FF], dh ; sub bl, al ; int3 ; mov al, 0x01 ; ret ; \x25\x18\xd5\x01\x00\x00\xb0\x01\x48\x83\xc4\x28\xc3\xcc\xb0\x01\xc3 (1 found)
0x14000cc0c: and eax, 0x08 ; mov rbx, qword [rsp+0x30] ; add rsp, 0x20 ; pop rdi ; ret ; \x83\xe0\x08\x48\x8b\x5c\x24\x30\x48\x83\xc4\x20\x5f\xc3 (1 found)
0x14000cc4c: and eax, 0x08 ; mov rbx, qword [rsp+0x30] ; add rsp, 0x20 ; pop rdi ; ret ; \x83\xe0\x08\x48\x8b\x5c\x24\x30\x48\x83\xc4\x20\x5f\xc3 (1 found)
0x14001aff5: and eax, 0x3F ; add rsp, 0x28 ; ret ; \x83\xe0\x3f\x48\x83\xc4\x28\xc3 (1 found)
0x140010b32: and eax, 0x48C00002 ; add esp, 0x20 ; pop rbx ; ret ; \x25\x02\x00\xc0\x48\x83\xc4\x20\x5b\xc3 (1 found)
0x140019b4b: and eax, 0xE80000A4 ; pop rsp ; sldt word [rax] ; vmovdqa xmm6,  [rsp+0x20] ; add rsp, 0x58 ; ret ; \x25\xa4\x00\x00\xe8\x5c\x0f\x00\x00\xc5\xf9\x6f\x74\x24\x20\x48\x83\xc4\x58\xc3 (1 found)
0x140019e04: and eax, 0xFFFF003F ; movzx ecx, r8w ; or eax, ecx ; mov  [rsp+0x08], eax ; ldmxcsr  [rsp+0x08] ; ret ; \x25\x3f\x00\xff\xff\x41\x0f\xb7\xc8\x0b\xc1\x89\x44\x24\x08\x0f\xae\x54\x24\x08\xc3 (1 found)
0x140019c76: and eax, 0xFFFFFF00 ; lea ecx,  [0x00000000+rdx*4] ; or eax, ecx ; shl eax, 0x16 ; or eax, edx ; ret ; \x25\x00\xff\xff\xff\x8d\x0c\x95\x00\x00\x00\x00\x0b\xc1\xc1\xe0\x16\x0b\xc2\xc3 (1 found)
0x140019e7d: and eax, 0xFFFFFFC0 ; and ecx, 0x3F ; or eax, ecx ; mov  [rsp+0x08], eax ; ldmxcsr  [rsp+0x08] ; ret ; \x83\xe0\xc0\x83\xe1\x3f\x0b\xc1\x89\x44\x24\x08\x0f\xae\x54\x24\x08\xc3 (1 found)
0x140019b9c: and ecx, 0x00000300 ; mov eax, ecx ; ret ; \x81\xe1\x00\x03\x00\x00\x8b\xc1\xc3 (1 found)
0x140019e80: and ecx, 0x3F ; or eax, ecx ; mov  [rsp+0x08], eax ; ldmxcsr  [rsp+0x08] ; ret ; \x83\xe1\x3f\x0b\xc1\x89\x44\x24\x08\x0f\xae\x54\x24\x08\xc3 (1 found)
0x14000cf5f: and ecx, 0x3F ; ror rdx, cl ; test rdx, rdx ; setne al ; ret ; \x83\xe1\x3f\x48\xd3\xca\x48\x85\xd2\x0f\x95\xc0\xc3 (1 found)
0x14001b5ef: and ecx, 0xFFFFFFE0 ; mov r11, r9 ; shr r11, 0x05 ; mov r11d,  [r10+r11*4+0x000263A0] ; add r11, r10 ; jmp r11 ; \x83\xe1\xe0\x4d\x8b\xd9\x49\xc1\xeb\x05\x47\x8b\x9c\x9a\xa0\x63\x02\x00\x4d\x03\xda\x41\xff\xe3 (1 found)
0x14001b6af: and ecx, 0xFFFFFFE0 ; mov r11, r9 ; shr r11, 0x05 ; mov r11d,  [r10+r11*4+0x000263C4] ; add r11, r10 ; jmp r11 ; \x83\xe1\xe0\x4d\x8b\xd9\x49\xc1\xeb\x05\x47\x8b\x9c\x9a\xc4\x63\x02\x00\x4d\x03\xda\x41\xff\xe3 (1 found)
0x14001ba8d: and ecx, 0xFFFFFFE0 ; mov r11, r9 ; shr r11, 0x05 ; mov r11d,  [r10+r11*4+0x00026450] ; add r11, r10 ; jmp r11 ; \x83\xe1\xe0\x4d\x8b\xd9\x49\xc1\xeb\x05\x47\x8b\x9c\x9a\x50\x64\x02\x00\x4d\x03\xda\x41\xff\xe3 (1 found)
0x14001bbbd: and ecx, 0xFFFFFFE0 ; mov r11, r9 ; shr r11, 0x05 ; mov r11d,  [r10+r11*4+0x00026474] ; add r11, r10 ; jmp r11 ; \x83\xe1\xe0\x4d\x8b\xd9\x49\xc1\xeb\x05\x47\x8b\x9c\x9a\x74\x64\x02\x00\x4d\x03\xda\x41\xff\xe3 (1 found)
0x14001b7a3: and ecx, 0xFFFFFFF0 ; mov r11, r9 ; shr r11, 0x04 ; mov r11d,  [r10+r11*4+0x000263E8] ; add r11, r10 ; jmp r11 ; \x83\xe1\xf0\x4d\x8b\xd9\x49\xc1\xeb\x04\x47\x8b\x9c\x9a\xe8\x63\x02\x00\x4d\x03\xda\x41\xff\xe3 (1 found)
0x14001bd31: and ecx, 0xFFFFFFF0 ; mov r11, r9 ; shr r11, 0x04 ; mov r11d,  [r10+r11*4+0x00026498] ; add r11, r10 ; jmp r11 ; \x83\xe1\xf0\x4d\x8b\xd9\x49\xc1\xeb\x04\x47\x8b\x9c\x9a\x98\x64\x02\x00\x4d\x03\xda\x41\xff\xe3 (1 found)
0x14000cfc2: and edx, 0x3F ; sub ecx, edx ; ror r9, cl ; xor r9, r8 ; mov qword [0x000000014002B2B0], r9 ; ret ; \x83\xe2\x3f\x2b\xca\x49\xd3\xc9\x4d\x33\xc8\x4c\x89\x0d\xdc\xe2\x01\x00\xc3 (1 found)
0x14000ba0d: and qword [0x000000014002B2A0], 0x0000000000000000 ; add rsp, 0x20 ; pop rbx ; ret ; \x48\x83\x25\x8b\xf8\x01\x00\x00\x48\x83\xc4\x20\x5b\xc3 (1 found)
0x14000dfe8: and qword [0x000000014002B508], 0x0000000000000000 ; mov al, 0x01 ; add rsp, 0x28 ; ret ; \x48\x83\x25\x18\xd5\x01\x00\x00\xb0\x01\x48\x83\xc4\x28\xc3 (1 found)
0x1400157fc: and qword [0x000000014002BDB8], 0x0000000000000000 ; mov al, 0x01 ; ret ; \x48\x83\x25\xb4\x65\x01\x00\x00\xb0\x01\xc3 (1 found)
0x14000ff52: and qword [rbx+0x08], 0x0000000000000000 ; and qword [rbx], 0x0000000000000000 ; add rsp, 0x20 ; pop rbx ; ret ; \x48\x83\x63\x08\x00\x48\x83\x23\x00\x48\x83\xc4\x20\x5b\xc3 (1 found)
0x14000ff57: and qword [rbx], 0x0000000000000000 ; add rsp, 0x20 ; pop rbx ; ret ; \x48\x83\x23\x00\x48\x83\xc4\x20\x5b\xc3 (1 found)
0x1400054c7: and qword [rbx], 0x0000000000000000 ; mov byte [rbx+0x08], 0x00 ; add rsp, 0x20 ; pop rbx ; ret ; \x48\x83\x23\x00\xc6\x43\x08\x00\x48\x83\xc4\x20\x5b\xc3 (1 found)
0x140019e98: and qword [rcx], 0x0000000000000000 ; or rax, 0xFFFFFFFFFFFFFFFF ; mov byte [rdx+0x30], 0x01 ; mov  [rdx+0x2C], 0x0000002A ; ret ; \x48\x83\x21\x00\x48\x83\xc8\xff\xc6\x42\x30\x01\xc7\x42\x2c\x2a\x00\x00\x00\xc3 (1 found)
0x140019e90: and qword [rdx], 0x0000000000000000 ; mov rax, rcx ; ret ; \x48\x83\x22\x00\x48\x8b\xc1\xc3 (1 found)
0x14001b5ee: and r9, 0xFFFFFFFFFFFFFFE0 ; mov r11, r9 ; shr r11, 0x05 ; mov r11d,  [r10+r11*4+0x000263A0] ; add r11, r10 ; jmp r11 ; \x49\x83\xe1\xe0\x4d\x8b\xd9\x49\xc1\xeb\x05\x47\x8b\x9c\x9a\xa0\x63\x02\x00\x4d\x03\xda\x41\xff\xe3 (1 found)
0x14001b6ae: and r9, 0xFFFFFFFFFFFFFFE0 ; mov r11, r9 ; shr r11, 0x05 ; mov r11d,  [r10+r11*4+0x000263C4] ; add r11, r10 ; jmp r11 ; \x49\x83\xe1\xe0\x4d\x8b\xd9\x49\xc1\xeb\x05\x47\x8b\x9c\x9a\xc4\x63\x02\x00\x4d\x03\xda\x41\xff\xe3 (1 found)
0x14001ba8c: and r9, 0xFFFFFFFFFFFFFFE0 ; mov r11, r9 ; shr r11, 0x05 ; mov r11d,  [r10+r11*4+0x00026450] ; add r11, r10 ; jmp r11 ; \x49\x83\xe1\xe0\x4d\x8b\xd9\x49\xc1\xeb\x05\x47\x8b\x9c\x9a\x50\x64\x02\x00\x4d\x03\xda\x41\xff\xe3 (1 found)
0x14001bbbc: and r9, 0xFFFFFFFFFFFFFFE0 ; mov r11, r9 ; shr r11, 0x05 ; mov r11d,  [r10+r11*4+0x00026474] ; add r11, r10 ; jmp r11 ; \x49\x83\xe1\xe0\x4d\x8b\xd9\x49\xc1\xeb\x05\x47\x8b\x9c\x9a\x74\x64\x02\x00\x4d\x03\xda\x41\xff\xe3 (1 found)
0x14001b7a2: and r9, 0xFFFFFFFFFFFFFFF0 ; mov r11, r9 ; shr r11, 0x04 ; mov r11d,  [r10+r11*4+0x000263E8] ; add r11, r10 ; jmp r11 ; \x49\x83\xe1\xf0\x4d\x8b\xd9\x49\xc1\xeb\x04\x47\x8b\x9c\x9a\xe8\x63\x02\x00\x4d\x03\xda\x41\xff\xe3 (1 found)
0x14001bd30: and r9, 0xFFFFFFFFFFFFFFF0 ; mov r11, r9 ; shr r11, 0x04 ; mov r11d,  [r10+r11*4+0x00026498] ; add r11, r10 ; jmp r11 ; \x49\x83\xe1\xf0\x4d\x8b\xd9\x49\xc1\xeb\x04\x47\x8b\x9c\x9a\x98\x64\x02\x00\x4d\x03\xda\x41\xff\xe3 (1 found)
0x140002a7f: bsf ecx, eax ; add r8, rcx ; cmp word [r8], dx ; cmove r9, r8 ; mov rax, r9 ; ret ; \x0f\xbc\xc8\x4c\x03\xc1\x66\x41\x39\x10\x4d\x0f\x44\xc8\x49\x8b\xc1\xc3 (1 found)
0x140002cea: bsf edx, edx ; add rdx, r8 ; cmp byte [rdx], r10L ; cmove r9, rdx ; mov rax, r9 ; ret ; \x0f\xbc\xd2\x49\x03\xd0\x44\x38\x12\x4c\x0f\x44\xca\x49\x8b\xc1\xc3 (1 found)
0x14001a518: bts ecx, 0x13 ; mov eax, r9d ; add rsp, 0x20 ; pop rbx ; ret ; \x0f\xba\xe9\x13\x41\x8b\xc1\x48\x83\xc4\x20\x5b\xc3 (1 found)
0x14001a517: bts r9d, 0x13 ; mov eax, r9d ; add rsp, 0x20 ; pop rbx ; ret ; \x41\x0f\xba\xe9\x13\x41\x8b\xc1\x48\x83\xc4\x20\x5b\xc3 (1 found)
0x140010e84: call qword [rax+0x000003BB] ; \xff\x90\xbb\x03\x00\x00 (1 found)
0x14001bf68: call qword [rax+0x002045C7] ; \xff\x90\xc7\x45\x20\x00 (1 found)
0x14000572e: call qword [rax+0x00207D83] ; \xff\x90\x83\x7d\x20\x00 (1 found)
0x140014acd: call qword [rax+0x058BDF8B] ; \xff\x90\x8b\xdf\x8b\x05 (1 found)
0x14000ffff: call qword [rax+0x08478B48] ; \xff\x90\x48\x8b\x47\x08 (1 found)
0x14000baec: call qword [rax+0x08538B48] ; \xff\x90\x48\x8b\x53\x08 (1 found)
0x1400156a7: call qword [rax+0x10158B48] ; \xff\x90\x48\x8b\x15\x10 (1 found)
0x14000d6bc: call qword [rax+0x130D8D48] ; \xff\x90\x48\x8d\x0d\x13 (1 found)
0x14000d6c9: call qword [rax+0x160D8B48] ; \xff\x90\x48\x8b\x0d\x16 (1 found)
0x14001bec5: call qword [rax+0x20C48348] ; \xff\x90\x48\x83\xc4\x20 (1 found)
0x14001c040: call qword [rax+0x20C48348] ; \xff\x90\x48\x83\xc4\x20 (1 found)
0x14001c0dc: call qword [rax+0x20C48348] ; \xff\x90\x48\x83\xc4\x20 (1 found)
0x14001c1df: call qword [rax+0x20C48348] ; \xff\x90\x48\x83\xc4\x20 (1 found)
0x14001c45c: call qword [rax+0x20C48348] ; \xff\x90\x48\x83\xc4\x20 (1 found)
0x140011e56: call qword [rax+0x244C8D48] ; \xff\x90\x48\x8d\x4c\x24 (1 found)
0x14000c93d: call qword [rax+0x245C8948] ; \xff\x90\x48\x89\x5c\x24 (1 found)
0x140013fde: call qword [rax+0x28EC8348] ; \xff\x90\x48\x83\xec\x28 (1 found)
0x14000ffbf: call qword [rax+0x330F8B48] ; \xff\x90\x48\x8b\x0f\x33 (1 found)
0x1400020c4: call qword [rax+0x38C48348] ; \xff\x90\x48\x83\xc4\x38 (1 found)
0x14000de44: call qword [rax+0x38C48348] ; \xff\x90\x48\x83\xc4\x38 (1 found)
0x14001c1d5: call qword [rax+0x404D8B48] ; \xff\x90\x48\x8b\x4d\x40 (1 found)
0x14001c4eb: call qword [rax+0x40C48348] ; \xff\x90\x48\x83\xc4\x40 (1 found)
0x140015b27: call qword [rax+0x45378B48] ; \xff\x90\x48\x8b\x37\x45 (1 found)
0x140013803: call qword [rax+0x48038B48] ; \xff\x90\x48\x8b\x03\x48 (1 found)
0x14000ff7f: call qword [rax+0x48078B48] ; \xff\x90\x48\x8b\x07\x48 (1 found)
0x140010047: call qword [rax+0x48078B48] ; \xff\x90\x48\x8b\x07\x48 (1 found)
0x14000bf9b: call qword [rax+0x48D78B48] ; \xff\x90\x48\x8b\xd7\x48 (1 found)
0x1400130ae: call qword [rax+0x5D7506A8] ; \xff\x90\xa8\x06\x75\x5d (1 found)
0x14001597c: call qword [rax+0x7B058B48] ; \xff\x90\x48\x8b\x05\x7b (1 found)
0x14001c0a8: call qword [rax-0x018E5218] ; \xff\x90\xe8\xad\x71\xfe (1 found)
0x14000c984: call qword [rax-0x173074B8] ; \xff\x90\x48\x8b\xcf\xe8 (1 found)
0x140010077: call qword [rax-0x2317F475] ; \xff\x90\x8b\x0b\xe8\xdc (1 found)
0x140015c72: call qword [rax-0x33333334] ; \xff\x90\xcc\xcc\xcc\xcc (1 found)
0x140015938: call qword [rax-0x40FA74B8] ; \xff\x90\x48\x8b\x05\xbf (1 found)
0x140003459: call qword [rax-0x4E] ; \xff\x50\xb2 (1 found)
0x140003511: call qword [rax-0x4E] ; \xff\x50\xb2 (1 found)
0x14000356c: call qword [rax-0x4E] ; \xff\x50\xb2 (1 found)
0x1400156dc: call qword [rax-0x76B73334] ; \xff\x90\xcc\xcc\x48\x89 (1 found)
0x140013f67: call qword [rax-0x776074B8] ; \xff\x90\x48\x8b\x9f\x88 (1 found)
0x14001768b: call qword [rax] ; \xff\x10 (1 found)
0x140016dfd: call qword [rcx+0x4C2BFFFE] ; \xff\x91\xfe\xff\x2b\x4c (1 found)
0x140002f8f: call r8 ; \x41\xff\xd0 (1 found)
0x140015c1d: call r8 ; \x41\xff\xd0 (1 found)
0x140002e49: call rax ; \xff\xd0 (1 found)
0x140002f90: call rax ; \xff\xd0 (1 found)
0x1400053fe: call rax ; \xff\xd0 (1 found)
0x140015c1e: call rax ; \xff\xd0 (1 found)
0x140002c9c: call rbx ; \xff\xd3 (1 found)
0x140015c38: call rdx ; \xff\xd2 (1 found)
0x140003253: cdq ; add byte [rax], al ; add rsp, 0x28 ; ret ; \x99\x00\x00\x48\x83\xc4\x28\xc3 (1 found)
0x14000239a: cdq ; sub eax,  [rax] ; add byte [rax+0x3B], cl ; ret ; \x99\x2b\x00\x00\x48\x3b\xc3 (1 found)
0x140002405: cdq ; sub eax,  [rax] ; add byte [rax+0x3B], cl ; ret ; \x99\x2b\x00\x00\x48\x3b\xc3 (1 found)
0x14000e6ea: clc ; adc  [rdi+0x06], esi ; mov eax, 0x0000000D ; ret ; \xf8\x11\x77\x06\xb8\x0d\x00\x00\x00\xc3 (1 found)
0x14001b28c: clc ; add  [rbx+rcx+0x48], esi ; mov ebx,  [rsp+0x30] ; add rsp, 0x20 ; pop rdi ; ret ; \xf8\x01\x74\x0b\x48\x8b\x5c\x24\x30\x48\x83\xc4\x20\x5f\xc3 (1 found)
0x14001787a: clc ; add al, 0x75 ; add ecx,  [rax-0x01] ; ret ; \xf8\x04\x75\x03\x48\xff\xc3 (1 found)
0x140010eff: clc ; add bh, bh ; ret ; \xf8\x00\xff\xc3 (1 found)
0x14000787f: clc ; add rax, 0x02 ; mov  [r9+0x48], r8d ; mov qword [r9+0x40], rax ; ret ; \xf8\x48\x83\xc0\x02\x45\x89\x41\x48\x49\x89\x41\x40\xc3 (1 found)
0x14000793f: clc ; add rax, 0x02 ; mov  [r9+0x48], r8d ; mov qword [r9+0x40], rax ; ret ; \xf8\x48\x83\xc0\x02\x45\x89\x41\x48\x49\x89\x41\x40\xc3 (1 found)
0x1400079ff: clc ; add rax, 0x02 ; mov  [r9+0x48], r8d ; mov qword [r9+0x40], rax ; ret ; \xf8\x48\x83\xc0\x02\x45\x89\x41\x48\x49\x89\x41\x40\xc3 (1 found)
0x140007e3d: clc ; add rax, 0x02 ; mov  [r9+0x48], r8d ; mov qword [r9+0x40], rax ; ret ; \xf8\x48\x83\xc0\x02\x45\x89\x41\x48\x49\x89\x41\x40\xc3 (1 found)
0x140007f01: clc ; add rax, 0x02 ; mov  [r9+0x48], r8d ; mov qword [r9+0x40], rax ; ret ; \xf8\x48\x83\xc0\x02\x45\x89\x41\x48\x49\x89\x41\x40\xc3 (1 found)
0x140007fc5: clc ; add rax, 0x02 ; mov  [r9+0x48], r8d ; mov qword [r9+0x40], rax ; ret ; \xf8\x48\x83\xc0\x02\x45\x89\x41\x48\x49\x89\x41\x40\xc3 (1 found)
0x14001b526: clc ; and byte [rdi+0x0C], dh ; movdqu  [rcx], xmm0 ; movdqu  [rcx+r8-0x10], xmm0 ; ret ; \xf8\x20\x77\x0c\xf3\x0f\x7f\x01\xf3\x42\x0f\x7f\x44\x01\xf0\xc3 (1 found)
0x1400129dc: clc ; cmp al, 0x8B ; retn 0x2B48 ; \x4c\xf8\x3c\x8b\xc2\x48\x2b (1 found)
0x1400129dd: clc ; cmp al, 0x8B ; retn 0x2B48 ; \xf8\x3c\x8b\xc2\x48\x2b (1 found)
0x14001a0cd: clc ; dec  [rdi] ; xchg eax, ebp ; ret ; \xf8\xff\x0f\x95\xc3 (1 found)
0x14000fd9b: clc ; push qword [rbp+rcx-0x01] ; ret ; \xf8\xff\x74\x0d\xff\xc3 (1 found)
0x14001b51d: clc ; ret ; \xf8\xc3 (1 found)
0x140013356: clc ; sub eax, 0xB70F0977 ; ror byte [rax+0x0F], 0xA3 ; ret ; \xf8\x2d\x77\x09\x0f\xb7\xc0\x48\x0f\xa3\xc3 (1 found)
0x14001b711: clc ; vzeroupper ; ret ; \xf8\xc5\xf8\x77\xc3 (1 found)
0x14001bc5c: clc ; vzeroupper ; ret ; \xf8\xc5\xf8\x77\xc3 (1 found)
0x14001b4f7: cld ; ret ; \xfc\xc3 (1 found)
0x14000ee59: cli ; add cl, byte [rax-0x75] ; retn 0xC148 ; \xfa\x02\x48\x8b\xc2\x48\xc1 (1 found)
0x140014d0b: cli ; add cl, byte [rax-0x75] ; retn 0xC148 ; \xfa\x02\x48\x8b\xc2\x48\xc1 (1 found)
0x1400127a5: cli ; cmp bl, ch ; ret ; \x44\xfa\x38\xeb\xc3 (1 found)
0x1400127a6: cli ; cmp bl, ch ; ret ; \xfa\x38\xeb\xc3 (1 found)
0x140007aa7: cli ; mov  [rcx+0x48], edx ; mov qword [rcx+0x40], rax ; ret ; \xfa\x89\x51\x48\x48\x89\x41\x40\xc3 (1 found)
0x140007b47: cli ; mov  [rcx+0x48], edx ; mov qword [rcx+0x40], rax ; ret ; \xfa\x89\x51\x48\x48\x89\x41\x40\xc3 (1 found)
0x140007be7: cli ; mov  [rcx+0x48], edx ; mov qword [rcx+0x40], rax ; ret ; \xfa\x89\x51\x48\x48\x89\x41\x40\xc3 (1 found)
0x14000806b: cli ; mov  [rcx+0x48], edx ; mov qword [rcx+0x40], rax ; ret ; \xfa\x89\x51\x48\x48\x89\x41\x40\xc3 (1 found)
0x14000810b: cli ; mov  [rcx+0x48], edx ; mov qword [rcx+0x40], rax ; ret ; \xfa\x89\x51\x48\x48\x89\x41\x40\xc3 (1 found)
0x1400081ab: cli ; mov  [rcx+0x48], edx ; mov qword [rcx+0x40], rax ; ret ; \xfa\x89\x51\x48\x48\x89\x41\x40\xc3 (1 found)
0x14000ea29: cli ; mov rax, rdx ; ret ; \xfa\x48\x8b\xc2\xc3 (1 found)
0x14001b4ca: cli ; mov word [rcx-0x02], r11w ; ret ; \xfa\x66\x44\x89\x59\xfe\xc3 (1 found)
0x140013384: cli ; sub eax, 0xB70F0B77 ; retn 0x0F48 ; \xfa\x2d\x77\x0b\x0f\xb7\xc2\x48\x0f (1 found)
0x14001b4fc: cmc ; mov word [rcx-0x03], r11w ; mov byte [rcx-0x01], r11L ; ret ; \xf5\x66\x44\x89\x59\xfd\x44\x88\x59\xff\xc3 (1 found)
0x14000e703: cmovbe eax, eax ; ret ; \x0f\x46\xc0\xc3 (1 found)
0x14000e702: cmovbe eax, r8d ; ret ; \x41\x0f\x46\xc0\xc3 (1 found)
0x140014eb5: cmove eax, ecx ; mov  [0x000000014002BDA8], eax ; xor eax, eax ; ret ; \x0f\x44\xc1\x89\x05\xea\x6e\x01\x00\x33\xc0\xc3 (1 found)
0x14000d90d: cmove eax, esi ; mov rbx, qword [rsp+0x08] ; mov rdi, qword [rsp+0x10] ; mov r14, qword [rsp+0x18] ; ret ; \x0f\x44\xc6\x48\x8b\x5c\x24\x08\x48\x8b\x7c\x24\x10\x4c\x8b\x74\x24\x18\xc3 (1 found)
0x14000d90c: cmove eax, r14d ; mov rbx, qword [rsp+0x08] ; mov rdi, qword [rsp+0x10] ; mov r14, qword [rsp+0x18] ; ret ; \x41\x0f\x44\xc6\x48\x8b\x5c\x24\x08\x48\x8b\x7c\x24\x10\x4c\x8b\x74\x24\x18\xc3 (1 found)
0x140002a8a: cmove ecx, eax ; mov rax, r9 ; ret ; \x0f\x44\xc8\x49\x8b\xc1\xc3 (1 found)
0x140002d36: cmove ecx, eax ; mov rax, rcx ; ret ; \x0f\x44\xc8\x48\x8b\xc1\xc3 (1 found)
0x14000ab66: cmove ecx, edi ; mov qword [rbx+0x40], rcx ; mov rbx, qword [rsp+0x38] ; add rsp, 0x20 ; pop rdi ; ret ; \x0f\x44\xcf\x48\x89\x4b\x40\x48\x8b\x5c\x24\x38\x48\x83\xc4\x20\x5f\xc3 (1 found)
0x14000ac2a: cmove ecx, edi ; mov qword [rbx+0x40], rcx ; mov rbx, qword [rsp+0x38] ; add rsp, 0x20 ; pop rdi ; ret ; \x0f\x44\xcf\x48\x89\x4b\x40\x48\x8b\x5c\x24\x38\x48\x83\xc4\x20\x5f\xc3 (1 found)
0x14000acee: cmove ecx, edi ; mov qword [rbx+0x40], rcx ; mov rbx, qword [rsp+0x38] ; add rsp, 0x20 ; pop rdi ; ret ; \x0f\x44\xcf\x48\x89\x4b\x40\x48\x8b\x5c\x24\x38\x48\x83\xc4\x20\x5f\xc3 (1 found)
0x140002cf4: cmove ecx, edx ; mov rax, r9 ; ret ; \x0f\x44\xca\x49\x8b\xc1\xc3 (1 found)
0x14000235a: cmove edx, ebx ; mov rax, rdx ; add rsp, 0x20 ; pop rbx ; ret ; \x0f\x44\xd3\x48\x8b\xc2\x48\x83\xc4\x20\x5b\xc3 (1 found)
0x140002a89: cmove r9, r8 ; mov rax, r9 ; ret ; \x4d\x0f\x44\xc8\x49\x8b\xc1\xc3 (1 found)
0x140002cf3: cmove r9, rdx ; mov rax, r9 ; ret ; \x4c\x0f\x44\xca\x49\x8b\xc1\xc3 (1 found)
0x140002d35: cmove rcx, r8 ; mov rax, rcx ; ret ; \x49\x0f\x44\xc8\x48\x8b\xc1\xc3 (1 found)
0x14000ab65: cmove rcx, rdi ; mov qword [rbx+0x40], rcx ; mov rbx, qword [rsp+0x38] ; add rsp, 0x20 ; pop rdi ; ret ; \x48\x0f\x44\xcf\x48\x89\x4b\x40\x48\x8b\x5c\x24\x38\x48\x83\xc4\x20\x5f\xc3 (1 found)
0x14000ac29: cmove rcx, rdi ; mov qword [rbx+0x40], rcx ; mov rbx, qword [rsp+0x38] ; add rsp, 0x20 ; pop rdi ; ret ; \x48\x0f\x44\xcf\x48\x89\x4b\x40\x48\x8b\x5c\x24\x38\x48\x83\xc4\x20\x5f\xc3 (1 found)
0x14000aced: cmove rcx, rdi ; mov qword [rbx+0x40], rcx ; mov rbx, qword [rsp+0x38] ; add rsp, 0x20 ; pop rdi ; ret ; \x48\x0f\x44\xcf\x48\x89\x4b\x40\x48\x8b\x5c\x24\x38\x48\x83\xc4\x20\x5f\xc3 (1 found)
0x140002359: cmove rdx, rbx ; mov rax, rdx ; add rsp, 0x20 ; pop rbx ; ret ; \x48\x0f\x44\xd3\x48\x8b\xc2\x48\x83\xc4\x20\x5b\xc3 (1 found)
0x14000bca3: cmovne eax,  [rbp+0x28] ; add rsp, 0x40 ; pop rbp ; ret ; \x0f\x45\x45\x28\x48\x83\xc4\x40\x5d\xc3 (1 found)
0x140005391: cmovne eax,  [rcx+0x08] ; ret ; \x0f\x45\x41\x08\xc3 (1 found)
0x14001b3b1: cmovne ecx, ecx ; mov rax, r9 ; mov rbx, qword [rsp+0x08] ; ret ; \x0f\x45\xc9\x49\x8b\xc1\x48\x8b\x5c\x24\x08\xc3 (1 found)
0x14001b3b0: cmovne r9, rcx ; mov rax, r9 ; mov rbx, qword [rsp+0x08] ; ret ; \x4c\x0f\x45\xc9\x49\x8b\xc1\x48\x8b\x5c\x24\x08\xc3 (1 found)
0x140005390: cmovne rax, qword [rcx+0x08] ; ret ; \x48\x0f\x45\x41\x08\xc3 (1 found)
0x1400010aa: cmovs eax, ebx ; mov rbx, qword [rsp+0x50] ; add rsp, 0x40 ; pop rdi ; ret ; \x0f\x48\xc3\x48\x8b\x5c\x24\x50\x48\x83\xc4\x40\x5f\xc3 (1 found)
0x14000248e: cmp  [0x000000014002A04C], eax ; sete al ; ret ; \x39\x05\xb8\x7b\x02\x00\x0f\x94\xc0\xc3 (1 found)
0x14000fc62: cmp  [0x000000014002B7A8], ecx ; sete al ; ret ; \x39\x0d\x40\xbb\x01\x00\x0f\x94\xc0\xc3 (1 found)
0x140002a12: cmp  [0x0000000140046C48], eax ; setne al ; ret ; \x39\x05\x30\x42\x04\x00\x0f\x95\xc0\xc3 (1 found)
0x140002a86: cmp  [r8], edx ; cmove r9, r8 ; mov rax, r9 ; ret ; \x41\x39\x10\x4d\x0f\x44\xc8\x49\x8b\xc1\xc3 (1 found)
0x140002d32: cmp  [r8], r9d ; cmove rcx, r8 ; mov rax, rcx ; ret ; \x45\x39\x08\x49\x0f\x44\xc8\x48\x8b\xc1\xc3 (1 found)
0x14001c55e: cmp  [rax], 0xC0000005 ; sete cl ; mov eax, ecx ; add rsp, 0x20 ; pop rbp ; ret ; \x81\x38\x05\x00\x00\xc0\x0f\x94\xc1\x8b\xc1\x48\x83\xc4\x20\x5d\xc3 (1 found)
0x14001bed8: cmp  [rax], 0xC0000005 ; sete cl ; mov eax, ecx ; pop rbp ; ret ; \x81\x38\x05\x00\x00\xc0\x0f\x94\xc1\x8b\xc1\x5d\xc3 (1 found)
0x140002d33: cmp  [rax], ecx ; cmove rcx, r8 ; mov rax, rcx ; ret ; \x39\x08\x49\x0f\x44\xc8\x48\x8b\xc1\xc3 (1 found)
0x140002a87: cmp  [rax], edx ; cmove r9, r8 ; mov rax, r9 ; ret ; \x39\x10\x4d\x0f\x44\xc8\x49\x8b\xc1\xc3 (1 found)
0x140005385: cmp  [rcx+0x08], 0x00000000 ; lea rax, qword [0x000000014001E3C0] ; cmovne rax, qword [rcx+0x08] ; ret ; \x83\x79\x08\x00\x48\x8d\x05\x30\x90\x01\x00\x48\x0f\x45\x41\x08\xc3 (1 found)
0x14001b0c1: cmp  [rdx+0x18], ecx ; sete al ; ret ; \x39\x4a\x18\x0f\x94\xc0\xc3 (1 found)
0x140011279: cmp  [rsi+rcx-0x01], esi ; retn 0xFF49 ; \x39\x74\x0e\xff\xc2\x49\xff (1 found)
0x14000e2cb: cmp  [rsp+0x30], 0x01 ; setne bl ; mov eax, ebx ; add rsp, 0x20 ; pop rbx ; ret ; \x83\x7c\x24\x30\x01\x0f\x95\xc3\x8b\xc3\x48\x83\xc4\x20\x5b\xc3 (1 found)
0x140002d78: cmp ah, byte [rbx-0x38] ; adc eax, 0x6348EF75 ; ror  [rcx-0x73], 0x04 ; ret ; \x3a\x63\xc8\x15\x75\xef\x48\x63\xc1\x49\x8d\x04\x40\xc3 (1 found)
0x14001a3f3: cmp al, 0x08 ; add byte [rbp-0x0E], dh ; ret ; \x3c\x08\x00\x75\xf2\xc3 (1 found)
0x1400129de: cmp al, 0x8B ; retn 0x2B48 ; \x3c\x8b\xc2\x48\x2b (1 found)
0x14000d8d7: cmp bl, ch ; adc al, byte [rax-0x77BD7F37] ; retn 0x4A38 ; \x38\xeb\x12\x80\xc9\x80\x42\x88\x4c\xc2\x38\x4a (1 found)
0x1400127a7: cmp bl, ch ; ret ; \x38\xeb\xc3 (1 found)
0x14000d69a: cmp bl, dh ; add  [rax], eax ; add rsp, 0x28 ; ret ; \x3a\xde\x01\x00\x48\x83\xc4\x28\xc3 (1 found)
0x14001c55f: cmp byte [0x000000014FC1C565], al ; xchg eax, esp ; ror  [rbx-0x3B7CB73F], 0x20 ; pop rbp ; ret ; \x38\x05\x00\x00\xc0\x0f\x94\xc1\x8b\xc1\x48\x83\xc4\x20\x5d\xc3 (1 found)
0x14000ad9f: cmp byte [r9], al ; mov al, 0x01 ; mov rbx, qword [rsp+0x40] ; add rsp, 0x30 ; pop rdi ; ret ; \x43\x38\x01\xb0\x01\x48\x8b\x5c\x24\x40\x48\x83\xc4\x30\x5f\xc3 (1 found)
0x14000ae57: cmp byte [r9], al ; mov al, 0x01 ; mov rbx, qword [rsp+0x40] ; add rsp, 0x30 ; pop rdi ; ret ; \x43\x38\x01\xb0\x01\x48\x8b\x5c\x24\x40\x48\x83\xc4\x30\x5f\xc3 (1 found)
0x14000af0f: cmp byte [r9], al ; mov al, 0x01 ; mov rbx, qword [rsp+0x40] ; add rsp, 0x30 ; pop rdi ; ret ; \x43\x38\x01\xb0\x01\x48\x8b\x5c\x24\x40\x48\x83\xc4\x30\x5f\xc3 (1 found)
0x140018979: cmp byte [rax-0x75], cl ; insb ; and al, 0x40 ; add rsp, 0x20 ; pop rdi ; ret ; \x38\x48\x8b\x6c\x24\x40\x48\x83\xc4\x20\x5f\xc3 (1 found)
0x1400105cb: cmp byte [rax-0x75], cl ; ret ; \x38\x48\x8b\xc3 (1 found)
0x140012288: cmp byte [rax-0x75], cl ; ret ; \x38\x48\x8b\xc3 (1 found)
0x14000bc9c: cmp byte [rbp+0x10], 0x00 ; mov eax,  [rbp+0x20] ; cmovne eax,  [rbp+0x28] ; add rsp, 0x40 ; pop rbp ; ret ; \x80\x7d\x10\x00\x8b\x45\x20\x0f\x45\x45\x28\x48\x83\xc4\x40\x5d\xc3 (1 found)
0x140016107: cmp byte [rbp-0x75], al ; ret ; \x38\x45\x8b\xc3 (1 found)
0x1400051db: cmp byte [rbx+0x5C8B48C3], cl ; and al, 0x30 ; mov rsi, qword [rsp+0x40] ; add rsp, 0x20 ; pop rdi ; ret ; \x38\x8b\xc3\x48\x8b\x5c\x24\x30\x48\x8b\x74\x24\x40\x48\x83\xc4\x20\x5f\xc3 (1 found)
0x1400084b5: cmp byte [rcx+rcx+0x48], dh ; mov eax,  [rdi] ; add rsp, 0x20 ; pop rdi ; ret ; \x38\x74\x09\x48\x8b\x07\x48\x83\xc4\x20\x5f\xc3 (1 found)
0x14000ada0: cmp byte [rcx], al ; mov al, 0x01 ; mov rbx, qword [rsp+0x40] ; add rsp, 0x30 ; pop rdi ; ret ; \x38\x01\xb0\x01\x48\x8b\x5c\x24\x40\x48\x83\xc4\x30\x5f\xc3 (1 found)
0x14000ae58: cmp byte [rcx], al ; mov al, 0x01 ; mov rbx, qword [rsp+0x40] ; add rsp, 0x30 ; pop rdi ; ret ; \x38\x01\xb0\x01\x48\x8b\x5c\x24\x40\x48\x83\xc4\x30\x5f\xc3 (1 found)
0x14000af10: cmp byte [rcx], al ; mov al, 0x01 ; mov rbx, qword [rsp+0x40] ; add rsp, 0x30 ; pop rdi ; ret ; \x38\x01\xb0\x01\x48\x8b\x5c\x24\x40\x48\x83\xc4\x30\x5f\xc3 (1 found)
0x1400122dc: cmp byte [rdx], bh ; ret ; \x38\x3a\xc3 (1 found)
0x140002cf1: cmp byte [rdx], dl ; cmove r9, rdx ; mov rax, r9 ; ret ; \x38\x12\x4c\x0f\x44\xca\x49\x8b\xc1\xc3 (1 found)
0x140002cf0: cmp byte [rdx], r10L ; cmove r9, rdx ; mov rax, r9 ; ret ; \x44\x38\x12\x4c\x0f\x44\xca\x49\x8b\xc1\xc3 (1 found)
0x14000d875: cmp byte [rsi-0x76], al ; pop rsp ; retn 0x8B39 ; \x38\x46\x8a\x5c\xc2\x39\x8b (1 found)
0x14000ae8b: cmp ch, al ; ret ; \x3a\xe8\xc3 (1 found)
0x14000bf98: cmp dl, 0xFF ; call qword [rax+0x48D78B48] ; \x80\xfa\xff\xff\x90\x48\x8b\xd7\x48 (1 found)
0x1400110d2: cmp eax,  [rax] ; add byte [rbx+0x5C8B48C3], cl ; and al, 0x30 ; add rsp, 0x20 ; pop rdi ; ret ; \x36\x3b\x00\x00\x8b\xc3\x48\x8b\x5c\x24\x30\x48\x83\xc4\x20\x5f\xc3 (1 found)
0x1400110d3: cmp eax,  [rax] ; add byte [rbx+0x5C8B48C3], cl ; and al, 0x30 ; add rsp, 0x20 ; pop rdi ; ret ; \x3b\x00\x00\x8b\xc3\x48\x8b\x5c\x24\x30\x48\x83\xc4\x20\x5f\xc3 (1 found)
0x14001a6d6: cmp eax, 0x0001037C ; add byte [rsi+rsi-0x0A], dh ; ret ; \x3d\x7c\x03\x01\x00\x00\x74\x36\xf6\xc3 (1 found)
0x140010e12: cmp eax, 0x0001AE79 ; mov ecx, 0x0000001F ; rep stosq ; mov rdi, qword [rsp+0x08] ; mov al, 0x01 ; ret ; \x3d\x79\xae\x01\x00\xb9\x1f\x00\x00\x00\xf3\x48\xab\x48\x8b\x7c\x24\x08\xb0\x01\xc3 (1 found)
0x140017a31: cmp eax, 0x8B490001 ; retn 0xC148 ; \x3d\x01\x00\x49\x8b\xc2\x48\xc1 (1 found)
0x14001a0cc: cmp eax, 0xFFFFFFFF ; setne bl ; mov eax, ebx ; add rsp, 0x40 ; pop rbx ; ret ; \x83\xf8\xff\x0f\x95\xc3\x8b\xc3\x48\x83\xc4\x40\x5b\xc3 (1 found)
0x14000e6ff: cmp ecx, 0x0E ; cmovbe eax, r8d ; ret ; \x83\xf9\x0e\x41\x0f\x46\xc0\xc3 (1 found)
0x140013260: cmp ecx, edx ; setnbe al ; ret ; \x3b\xca\x0f\x97\xc0\xc3 (1 found)
0x140014c9f: cmp esi, 0x6348FFFF ; ret ; \x81\xfe\xff\xff\x48\x63\xc3 (1 found)
0x14000fc61: cmp qword [0x000000014002B7A8], rcx ; sete al ; ret ; \x48\x39\x0d\x40\xbb\x01\x00\x0f\x94\xc0\xc3 (1 found)
0x140005384: cmp qword [rcx+0x08], 0x0000000000000000 ; lea rax, qword [0x000000014001E3C0] ; cmovne rax, qword [rcx+0x08] ; ret ; \x48\x83\x79\x08\x00\x48\x8d\x05\x30\x90\x01\x00\x48\x0f\x45\x41\x08\xc3 (1 found)
0x14001a0cb: cmp rax, 0xFFFFFFFFFFFFFFFF ; setne bl ; mov eax, ebx ; add rsp, 0x40 ; pop rbx ; ret ; \x48\x83\xf8\xff\x0f\x95\xc3\x8b\xc3\x48\x83\xc4\x40\x5b\xc3 (1 found)
0x14001325f: cmp rcx, rdx ; setnbe al ; ret ; \x48\x3b\xca\x0f\x97\xc0\xc3 (1 found)
0x140002a85: cmp word [r8], dx ; cmove r9, r8 ; mov rax, r9 ; ret ; \x66\x41\x39\x10\x4d\x0f\x44\xc8\x49\x8b\xc1\xc3 (1 found)
0x140002d31: cmp word [r8], r9w ; cmove rcx, r8 ; mov rax, rcx ; ret ; \x66\x45\x39\x08\x49\x0f\x44\xc8\x48\x8b\xc1\xc3 (1 found)
0x14001b0c0: cmp word [rdx+0x18], cx ; sete al ; ret ; \x66\x39\x4a\x18\x0f\x94\xc0\xc3 (1 found)
0x1400195dd: cmpsq ; add byte [rax], al ; ret ; \x47\xa7\x00\x00\xc3 (1 found)
0x1400195de: cmpsq ; add byte [rax], al ; ret ; \xa7\x00\x00\xc3 (1 found)
0x14001abc8: cvtpi2ps xmm0, mm1 ; ret ; \x48\x0f\x2a\xc1\xc3 (1 found)
0x14001abc9: cvtpi2ps xmm0, mm1 ; ret ; \x0f\x2a\xc1\xc3 (1 found)
0x14001abc3: cvtps2pi mm1, xmm0 ; cvtsi2sd xmm0, rcx ; ret ; \x48\x0f\x2d\xc8\xf2\x48\x0f\x2a\xc1\xc3 (1 found)
0x14001abc4: cvtps2pi mm1, xmm0 ; cvtsi2sd xmm0, rcx ; ret ; \x0f\x2d\xc8\xf2\x48\x0f\x2a\xc1\xc3 (1 found)
0x14001abc2: cvtsd2si rcx, xmm0 ; cvtsi2sd xmm0, rcx ; ret ; \xf2\x48\x0f\x2d\xc8\xf2\x48\x0f\x2a\xc1\xc3 (1 found)
0x14001abc7: cvtsi2sd xmm0, rcx ; ret ; \xf2\x48\x0f\x2a\xc1\xc3 (1 found)
0x14001bd3f: cwde ; add al, byte [fs:rax] ; add r11, r10 ; jmp r11 ; \x98\x64\x02\x00\x4d\x03\xda\x41\xff\xe3 (1 found)
0x14000f6be: cwde ; add byte [rax], al ; add dh, dh ; ret ; \x98\x00\x00\x00\xf6\xc3 (1 found)
0x140005080: dec  [rax+0x03] ; ret ; \xff\x48\x03\xc3 (1 found)
0x1400050c5: dec  [rax+0x03] ; ret ; \xff\x48\x03\xc3 (1 found)
0x140005327: dec  [rax+0x03] ; ret ; \xff\x48\x03\xc3 (1 found)
0x14001c0fe: dec  [rax+0x30] ; add rsp, 0x20 ; pop rbp ; ret ; \xff\x48\x30\x48\x83\xc4\x20\x5d\xc3 (1 found)
0x140003132: dec  [rax+0x30] ; mov rbx, qword [rsp+0x30] ; xor eax, eax ; add rsp, 0x20 ; pop rdi ; ret ; \xff\x48\x30\x48\x8b\x5c\x24\x30\x33\xc0\x48\x83\xc4\x20\x5f\xc3 (1 found)
0x140003211: dec  [rax+0x3B] ; retn 0x2374 ; \xff\x48\x3b\xc2\x74\x23 (1 found)
0x140014ca2: dec  [rax+0x63] ; ret ; \xff\x48\x63\xc3 (1 found)
0x14000a5bf: dec  [rax-0x01] ; retn 0x3C80 ; \xff\x48\xff\xc2\x80\x3c (1 found)
0x14000a827: dec  [rax-0x01] ; retn 0x3C80 ; \xff\x48\xff\xc2\x80\x3c (1 found)
0x14000aa8f: dec  [rax-0x01] ; retn 0x3C80 ; \xff\x48\xff\xc2\x80\x3c (1 found)
0x140002370: dec  [rax-0x09] ; fcomp  [rbx] ; sal bh, 0xD8 ; dec eax ; add rsp, 0x28 ; ret ; \xff\x48\xf7\xd8\x1b\xc0\xf7\xd8\xff\xc8\x48\x83\xc4\x28\xc3 (1 found)
0x14001c0be: dec  [rax-0x75] ; mov qword [rax+0x28], rcx ; add rsp, 0x28 ; pop rbp ; pop rbx ; ret ; \xff\x48\x8b\x4d\x40\x48\x89\x48\x28\x48\x83\xc4\x28\x5d\x5b\xc3 (1 found)
0x14000bb60: dec  [rax-0x75] ; pop rsp ; and al, 0x30 ; add rsp, 0x20 ; pop rdi ; ret ; \xff\x48\x8b\x5c\x24\x30\x48\x83\xc4\x20\x5f\xc3 (1 found)
0x14000ff97: dec  [rax-0x75] ; pop rsp ; and al, 0x30 ; add rsp, 0x20 ; pop rdi ; ret ; \xff\x48\x8b\x5c\x24\x30\x48\x83\xc4\x20\x5f\xc3 (1 found)
0x14000ffd5: dec  [rax-0x75] ; pop rsp ; and al, 0x30 ; add rsp, 0x20 ; pop rdi ; ret ; \xff\x48\x8b\x5c\x24\x30\x48\x83\xc4\x20\x5f\xc3 (1 found)
0x14001001d: dec  [rax-0x75] ; pop rsp ; and al, 0x30 ; add rsp, 0x20 ; pop rdi ; ret ; \xff\x48\x8b\x5c\x24\x30\x48\x83\xc4\x20\x5f\xc3 (1 found)
0x14001007f: dec  [rax-0x75] ; pop rsp ; and al, 0x30 ; add rsp, 0x20 ; pop rdi ; ret ; \xff\x48\x8b\x5c\x24\x30\x48\x83\xc4\x20\x5f\xc3 (1 found)
0x14000bf79: dec  [rax-0x75] ; pop rsp ; and al, 0x48 ; add rsp, 0x30 ; pop rdi ; ret ; \xff\x48\x8b\x5c\x24\x48\x48\x83\xc4\x30\x5f\xc3 (1 found)
0x1400139aa: dec  [rax-0x75] ; pop rsp ; and al, 0x50 ; add rsp, 0x40 ; pop rdi ; ret ; \xff\x48\x8b\x5c\x24\x50\x48\x83\xc4\x40\x5f\xc3 (1 found)
0x140003c00: dec  [rax-0x75] ; push 0x28C48348 ; ret ; \xff\x48\x8b\x40\x68\x48\x83\xc4\x28\xc3 (1 found)
0x140004f32: dec  [rax-0x75] ; ret ; \xff\x48\x8b\xc3 (1 found)
0x14000bed8: dec  [rax-0x75] ; ret ; \xff\x48\x8b\xc3 (1 found)
0x140010442: dec  [rax-0x75] ; ret ; \xff\x48\x8b\xc3 (1 found)
0x140011e8c: dec  [rax-0x75] ; ret ; \xff\x48\x8b\xc3 (1 found)
0x140014957: dec  [rax-0x75] ; ret ; \xff\x48\x8b\xc3 (1 found)
0x140015959: dec  [rax-0x75] ; ret ; \xff\x48\x8b\xc3 (1 found)
0x14001599d: dec  [rax-0x75] ; ret ; \xff\x48\x8b\xc3 (1 found)
0x140003c31: dec  [rax-0x77] ; pop rax ; push 0x20C48348 ; pop rbx ; ret ; \xff\x48\x89\x58\x68\x48\x83\xc4\x20\x5b\xc3 (1 found)
0x140002481: dec  [rax-0x7D] ; or byte [rdx], al ; add rsp, 0x28 ; ret ; \xff\x48\x83\x08\x02\x48\x83\xc4\x28\xc3 (1 found)
0x1400134ae: dec  [rax-0x7D] ; ret ; \xff\x48\x83\xc3 (1 found)
0x1400134e2: dec  [rax-0x7D] ; ret ; \xff\x48\x83\xc3 (1 found)
0x14001355e: dec  [rax-0x7D] ; ret ; \xff\x48\x83\xc3 (1 found)
0x140013604: dec  [rax-0x7D] ; ret ; \xff\x48\x83\xc3 (1 found)
0x140015059: dec  [rax-0x7D] ; ret ; \xff\x48\x83\xc3 (1 found)
0x140002c41: dec  [rax-0x7D] ; retn 0x4910 ; \xff\x48\x83\xc2\x10\x49 (1 found)
0x140019c7a: dec  [rbp+0x0000950C] ; add byte [rax], al ; or eax, ecx ; shl eax, 0x16 ; or eax, edx ; ret ; \xff\x8d\x0c\x95\x00\x00\x00\x00\x0b\xc1\xc1\xe0\x16\x0b\xc2\xc3 (1 found)
0x140010f0e: dec  [rbx+0x48202444] ; mov ebx,  [rsp+0x48] ; add rsp, 0x30 ; pop rdi ; ret ; \xff\x8b\x44\x24\x20\x48\x8b\x5c\x24\x48\x48\x83\xc4\x30\x5f\xc3 (1 found)
0x14000131b: dec  [rbx+0x5C8B48C3] ; and al, 0x50 ; add rsp, 0x40 ; pop rdi ; ret ; \xff\x8b\xc3\x48\x8b\x5c\x24\x50\x48\x83\xc4\x40\x5f\xc3 (1 found)
0x14001839f: dec  [rbx+0x5C8B48C3] ; and al, 0x60 ; add rsp, 0x50 ; pop rdi ; ret ; \xff\x8b\xc3\x48\x8b\x5c\x24\x60\x48\x83\xc4\x50\x5f\xc3 (1 found)
0x14001afb9: dec  [rbx+0x5C8B48C6] ; and al, 0x40 ; mov rsi, qword [rsp+0x48] ; add rsp, 0x20 ; pop rdi ; ret ; \xff\x8b\xc6\x48\x8b\x5c\x24\x40\x48\x8b\x74\x24\x48\x48\x83\xc4\x20\x5f\xc3 (1 found)
0x14000c997: dec  [rbx+0x5C8B48C7] ; and al, 0x30 ; add rsp, 0x20 ; pop rdi ; ret ; \xff\x8b\xc7\x48\x8b\x5c\x24\x30\x48\x83\xc4\x20\x5f\xc3 (1 found)
0x1400162a0: dec  [rbx+rcx*4-0x54] ; and al, 0x18 ; add al, byte [rax] ; add byte [rcx-0x01], al ; retn 0x8B41 ; \xff\x4c\x8b\xac\x24\x18\x02\x00\x00\x41\xff\xc2\x41\x8b (1 found)
0x1400130a8: dec  [rbx-0x307CEBBA] ; call qword [rax+0x5D7506A8] ; \xff\x8b\x46\x14\x83\xcf\xff\x90\xa8\x06\x75\x5d (1 found)
0x14000e76c: dec  [rcx+0x43C62C43] ; xor byte [rcx], al ; add rsp, 0x20 ; pop rbx ; ret ; \xff\x89\x43\x2c\xc6\x43\x30\x01\x48\x83\xc4\x20\x5b\xc3 (1 found)
0x14000b573: dec  [rcx-0x3874DBA8] ; add rsp, 0x00000000000000B0 ; pop rdi ; pop rbx ; pop rbp ; ret ; \xff\x89\x58\x24\x8b\xc7\x48\x81\xc4\xb0\x00\x00\x00\x5f\x5b\x5d\xc3 (1 found)
0x14000b697: dec  [rcx-0x3874DBA8] ; add rsp, 0x00000000000000B0 ; pop rdi ; pop rbx ; pop rbp ; ret ; \xff\x89\x58\x24\x8b\xc7\x48\x81\xc4\xb0\x00\x00\x00\x5f\x5b\x5d\xc3 (1 found)
0x14000cbb4: dec  [rcx-0x3874DBA8] ; add rsp, 0x00000000000000B0 ; pop rdi ; pop rbx ; pop rbp ; ret ; \xff\x89\x58\x24\x8b\xc7\x48\x81\xc4\xb0\x00\x00\x00\x5f\x5b\x5d\xc3 (1 found)
0x140003dbf: dec  [rcx-0x73] ; add al, 0xCA ; mov eax,  [rax+r11+0x04] ; add rsp, 0x20 ; pop rbx ; ret ; \xff\x49\x8d\x04\xca\x42\x8b\x44\x18\x04\x48\x83\xc4\x20\x5b\xc3 (1 found)
0x1400163b5: dec  [rdi] ; add byte [rax+0x23], cl ; retn 0x2175 ; \xff\x0f\x00\x48\x23\xc2\x75\x21 (1 found)
0x14000f6ed: dec  [rdi] ; add byte [rax-0x75], cl ; retn 0xB841 ; \xff\x0f\x00\x48\x8b\xc2\x41\xb8 (1 found)
0x14001ab58: dec  [rdi] ; sub dh, al ; movaps xmm6,  [rsp+0x50] ; add rsp, 0x68 ; ret ; \xff\x0f\x28\xc6\x0f\x28\x74\x24\x50\x48\x83\xc4\x68\xc3 (1 found)
0x14001a0ce: dec  [rdi] ; xchg eax, ebp ; ret ; \xff\x0f\x95\xc3 (1 found)
0x140005472: dec byte [rbx-0x74B80000] ; ret ; \xfe\x8b\x00\x00\x48\x8b\xc3 (1 found)
0x140002378: dec eax ; add rsp, 0x28 ; ret ; \xff\xc8\x48\x83\xc4\x28\xc3 (1 found)
0x1400155bc: dec eax ; ret ; \xff\xc8\xc3 (1 found)
0x14000cf38: dec esp ; int3 ; int3 ; mov eax,  [0x000000014002B2AC] ; ret ; \xff\xcc\xcc\xcc\x8b\x05\x6a\xe3\x01\x00\xc3 (1 found)
0x140003dbe: dec qword [r9-0x73] ; add al, 0xCA ; mov eax,  [rax+r11+0x04] ; add rsp, 0x20 ; pop rbx ; ret ; \x49\xff\x49\x8d\x04\xca\x42\x8b\x44\x18\x04\x48\x83\xc4\x20\x5b\xc3 (1 found)
0x140010ca4: enter 0x00C4, 0x00 ; mov rbx, qword [rsp+0x30] ; mov rsi, qword [rsp+0x38] ; add rsp, 0x20 ; pop rdi ; ret ; \xc8\xc4\x00\x00\x48\x8b\x5c\x24\x30\x48\x8b\x74\x24\x38\x48\x83\xc4\x20\x5f\xc3 (1 found)
0x140002a81: enter 0x034C, 0xC1 ; cmp word [r8], dx ; cmove r9, r8 ; mov rax, r9 ; ret ; \xc8\x4c\x03\xc1\x66\x41\x39\x10\x4d\x0f\x44\xc8\x49\x8b\xc1\xc3 (1 found)
0x140010070: enter 0x0674, 0xE8 ; out 0xFF, eax ; call qword [rax-0x2317F475] ; \xc8\x74\x06\xe8\x44\xe7\xff\xff\x90\x8b\x0b\xe8\xdc (1 found)
0x140002af9: enter 0x0F66, 0x74 ; ret ; \xc8\x66\x0f\x74\xc3 (1 found)
0x140002b50: enter 0x0F66, 0x74 ; retn 0x0F66 ; \xc8\x66\x0f\x74\xc2\x66\x0f (1 found)
0x140002a52: enter 0x0F66, 0x75 ; retn 0x560F ; \xc8\x66\x0f\x75\xc2\x0f\x56 (1 found)
0x140002b5b: enter 0x0F66, 0xD7 ; rol  [rbp+0x480A75C0], 0xFFFFFF83 ; retn 0x4910 ; \xc8\x66\x0f\xd7\xc1\x85\xc0\x75\x0a\x48\x83\xc2\x10\x49 (1 found)
0x14001554e: enter 0x1074, 0xB8 ; add  [rax], eax ; add byte [rax], al ; lock xadd  [rcx+0x0000015C], eax ; inc eax ; ret ; \xc8\x74\x10\xb8\x01\x00\x00\x00\xf0\x0f\xc1\x81\x5c\x01\x00\x00\xff\xc0\xc3 (1 found)
0x14000cf5b: enter 0x3348, 0xD0 ; and ecx, 0x3F ; ror rdx, cl ; test rdx, rdx ; setne al ; ret ; \xc8\x48\x33\xd0\x83\xe1\x3f\x48\xd3\xca\x48\x85\xd2\x0f\x95\xc0\xc3 (1 found)
0x14001abc6: enter 0x48F2, 0x0F ; sub al, cl ; ret ; \xc8\xf2\x48\x0f\x2a\xc1\xc3 (1 found)
0x14000bf78: enter 0x48FF, 0x8B ; pop rsp ; and al, 0x48 ; add rsp, 0x30 ; pop rdi ; ret ; \xc8\xff\x48\x8b\x5c\x24\x48\x48\x83\xc4\x30\x5f\xc3 (1 found)
0x140002d7a: enter 0x7515, 0xEF ; movsxd rax, rcx ; lea rax, qword [r8+rax*2] ; ret ; \xc8\x15\x75\xef\x48\x63\xc1\x49\x8d\x04\x40\xc3 (1 found)
0x1400076b7: enter 0x8348, 0xC0 ; add cl, byte [rax-0x2F] ; stc ; mov  [r8+0x48], ecx ; mov qword [r8+0x40], rax ; ret ; \xc8\x48\x83\xc0\x02\x48\xd1\xf9\x41\x89\x48\x48\x49\x89\x40\x40\xc3 (1 found)
0x14000773b: enter 0x8348, 0xC0 ; add cl, byte [rax-0x2F] ; stc ; mov  [r8+0x48], ecx ; mov qword [r8+0x40], rax ; ret ; \xc8\x48\x83\xc0\x02\x48\xd1\xf9\x41\x89\x48\x48\x49\x89\x40\x40\xc3 (1 found)
0x1400077bf: enter 0x8348, 0xC0 ; add cl, byte [rax-0x2F] ; stc ; mov  [r8+0x48], ecx ; mov qword [r8+0x40], rax ; ret ; \xc8\x48\x83\xc0\x02\x48\xd1\xf9\x41\x89\x48\x48\x49\x89\x40\x40\xc3 (1 found)
0x140007c65: enter 0x8348, 0xC0 ; add cl, byte [rax-0x2F] ; stc ; mov  [r8+0x48], ecx ; mov qword [r8+0x40], rax ; ret ; \xc8\x48\x83\xc0\x02\x48\xd1\xf9\x41\x89\x48\x48\x49\x89\x40\x40\xc3 (1 found)
0x140007ced: enter 0x8348, 0xC0 ; add cl, byte [rax-0x2F] ; stc ; mov  [r8+0x48], ecx ; mov qword [r8+0x40], rax ; ret ; \xc8\x48\x83\xc0\x02\x48\xd1\xf9\x41\x89\x48\x48\x49\x89\x40\x40\xc3 (1 found)
0x140007d75: enter 0x8348, 0xC0 ; add cl, byte [rax-0x2F] ; stc ; mov  [r8+0x48], ecx ; mov qword [r8+0x40], rax ; ret ; \xc8\x48\x83\xc0\x02\x48\xd1\xf9\x41\x89\x48\x48\x49\x89\x40\x40\xc3 (1 found)
0x140003568: enter 0x8749, 0x8C ; call qword [rax-0x4E] ; \xc8\x49\x87\x8c\xff\x50\xb2 (1 found)
0x14001aa24: enter 0x8948, 0x4C ; and al, 0x08 ; movsd xmm0, qword [rsp+0x08] ; ret ; \xc8\x48\x89\x4c\x24\x08\xf2\x0f\x10\x44\x24\x08\xc3 (1 found)
0x14000cfcc: enter 0x894C, 0x0D ; fsubr st2, st0 ; add  [rax], eax ; ret ; \xc8\x4c\x89\x0d\xdc\xe2\x01\x00\xc3 (1 found)
0x140002d37: enter 0x8B48, 0xC1 ; ret ; \x44\xc8\x48\x8b\xc1\xc3 (1 found)
0x140002d38: enter 0x8B48, 0xC1 ; ret ; \xc8\x48\x8b\xc1\xc3 (1 found)
0x140002a8b: enter 0x8B49, 0xC1 ; ret ; \x44\xc8\x49\x8b\xc1\xc3 (1 found)
0x140002a8c: enter 0x8B49, 0xC1 ; ret ; \xc8\x49\x8b\xc1\xc3 (1 found)
0x14001b82a: enter 0xA4F3, 0x5E ; pop rdi ; ret ; \xc8\xf3\xa4\x5e\x5f\xc3 (1 found)
0x14001b468: enter 0xAAF3, 0x49 ; mov eax, ecx ; pop rdi ; ret ; \xc8\xf3\xaa\x49\x8b\xc1\x5f\xc3 (1 found)
0x140019e0c: enter 0xC10B, 0x89 ; and al, 0x08 ; ldmxcsr  [rsp+0x08] ; ret ; \xc8\x0b\xc1\x89\x44\x24\x08\x0f\xae\x54\x24\x08\xc3 (1 found)
0x14001325a: enter 0xC3FF, 0x33 ; ror byte [rax+0x3B], 0xCA ; setnbe al ; ret ; \xc8\xff\xc3\x33\xc0\x48\x3b\xca\x0f\x97\xc0\xc3 (1 found)
0x140019e9e: enter 0xC6FF, 0x42 ; xor byte [rcx], al ; mov  [rdx+0x2C], 0x0000002A ; ret ; \xc8\xff\xc6\x42\x30\x01\xc7\x42\x2c\x2a\x00\x00\x00\xc3 (1 found)
0x14000586d: enter 0xD348, 0xCA ; xor rdx, r8 ; mov qword [0x000000014002B288], rdx ; add rsp, 0x28 ; ret ; \xc8\x48\xd3\xca\x49\x33\xd0\x48\x89\x15\x0d\x5a\x02\x00\x48\x83\xc4\x28\xc3 (1 found)
0x14000dcff: enter 0xE9FF, 0xD9 ; add byte [rax], al ; add byte [rbx+rcx*4+0x05], cl ; retn 0x0001 ; \xc8\xff\xe9\xd9\x00\x00\x00\x4c\x8b\x05\xf3\xc2\x01\x00 (1 found)
0x14000fc46: enter 0xEBFF, 0x04 ; mov eax,  [rcx+0x18] ; nop ; add rsp, 0x28 ; ret ; \xc8\xff\xeb\x04\x8b\x41\x18\x90\x48\x83\xc4\x28\xc3 (1 found)
0x14000da96: enter 0xEBFF, 0x08 ; xchg  [0x000000014002B524], ecx ; mov eax, ecx ; add rsp, 0x28 ; ret ; \xc8\xff\xeb\x08\x87\x0d\x84\xda\x01\x00\x8b\xc1\x48\x83\xc4\x28\xc3 (1 found)
0x140015060: fbstp  [rbp-0x11] ; mov rbx, qword [rsp+0x30] ; add rsp, 0x20 ; pop rdi ; ret ; \xdf\x75\xef\x48\x8b\x5c\x24\x30\x48\x83\xc4\x20\x5f\xc3 (1 found)
0x14000d773: fbstp  [rbp-0x21] ; mov rbx, qword [rsp+0x30] ; add rsp, 0x20 ; pop rdi ; ret ; \xdf\x75\xdf\x48\x8b\x5c\x24\x30\x48\x83\xc4\x20\x5f\xc3 (1 found)
0x1400158d2: fbstp  [rbp-0x24] ; mov rbx, qword [rsp+0x30] ; mov al, 0x01 ; add rsp, 0x20 ; pop rdi ; ret ; \xdf\x75\xdc\x48\x8b\x5c\x24\x30\xb0\x01\x48\x83\xc4\x20\x5f\xc3 (1 found)
0x1400026f6: fbstp  [rdx-0x17] ; mov rbx, qword [rsp+0x30] ; add rsp, 0x20 ; pop rdi ; ret ; \xdf\x72\xe9\x48\x8b\x5c\x24\x30\x48\x83\xc4\x20\x5f\xc3 (1 found)
0x140002732: fbstp  [rdx-0x17] ; mov rbx, qword [rsp+0x30] ; add rsp, 0x20 ; pop rdi ; ret ; \xdf\x72\xe9\x48\x8b\x5c\x24\x30\x48\x83\xc4\x20\x5f\xc3 (1 found)
0x14000d93a: fcmovu st0, st3 ; add  [rax], eax ; mov al, 0x01 ; add rsp, 0x28 ; ret ; \xda\xdb\x01\x00\xb0\x01\x48\x83\xc4\x28\xc3 (1 found)
0x140019e49: fcomp  [rbx] ; rol byte [rbx-0x37F4F720], 0x8B ; retn 0xE083 ; \xd8\x1b\xc0\x83\xe0\x08\x0b\xc8\x8b\xc2\x83\xe0 (1 found)
0x140002373: fcomp  [rbx] ; sal bh, 0xD8 ; dec eax ; add rsp, 0x28 ; ret ; \xd8\x1b\xc0\xf7\xd8\xff\xc8\x48\x83\xc4\x28\xc3 (1 found)
0x140010e5e: fdiv  [rbp-0x28] ; mov al, 0x01 ; add rsp, 0x20 ; pop rbx ; ret ; \xd8\x75\xd8\xb0\x01\x48\x83\xc4\x20\x5b\xc3 (1 found)
0x14000debf: ffree st2 ; add  [rax], eax ; mov qword [0x000000014002B7C0], rax ; mov al, 0x01 ; ret ; \xdd\xc2\x01\x00\x48\x89\x05\xf6\xd8\x01\x00\xb0\x01\xc3 (1 found)
0x14000da9d: fiadd  [rcx] ; add byte [rbx-0x3B7CB73F], cl ; sub bl, al ; int3 ; lea rax, qword [0x000000014002B528] ; ret ; \xda\x01\x00\x8b\xc1\x48\x83\xc4\x28\xc3\xcc\x48\x8d\x05\x79\xda\x01\x00\xc3 (1 found)
0x1400143c3: fiadd word [rax] ; add byte [rcx+0x0F], al ; xchg eax, esi ; retn 0xFF33 ; \xde\x00\x00\x41\x0f\x96\xc2\x33\xff (1 found)
0x14000e57e: ficomp word [rsi+0x5889FFFF] ; and al, 0x48 ; mov ebx,  [rsp+0x00000080] ; add rsp, 0x70 ; pop rbp ; ret ; \xde\x9e\xff\xff\x89\x58\x24\x48\x8b\x9c\x24\x80\x00\x00\x00\x48\x83\xc4\x70\x5d\xc3 (1 found)
0x140016cb5: fild  [rbp-0x75] ; retn 0x8545 ; \xdb\x45\x8b\xc2\x45\x85 (1 found)
0x14001711a: fild  [rbp-0x75] ; retn 0x8545 ; \xdb\x45\x8b\xc2\x45\x85 (1 found)
0x14000d950: fild  [rcx] ; add bl, al ; lea rax, qword [0x000000014002B508] ; ret ; \xdb\x01\x00\xc3\x48\x8d\x05\xad\xdb\x01\x00\xc3 (1 found)
0x14001a821: fild  [rsi] ; add byte [rax], al ; movsd xmm0, qword [rsp+0x40] ; add rsp, 0x50 ; pop rbx ; ret ; \xdb\x06\x00\x00\xf2\x0f\x10\x44\x24\x40\x48\x83\xc4\x50\x5b\xc3 (1 found)
0x140003179: fild word [rax] ; add byte [rax], al ; add rax, 0x28 ; add rsp, 0x28 ; ret ; \xdf\x00\x00\x00\x48\x83\xc0\x28\x48\x83\xc4\x28\xc3 (1 found)
0x140004cec: fimul  [rax-0x7D] ; ror  [rax], 0xFFFFFFE8 ; mov edx, 0xF6000007 ; ret ; \xda\x48\x83\xc1\x08\xe8\xba\x07\x00\x00\xf6\xc3 (1 found)
0x140014703: fimul word [rax-0x01] ; ret ; \xde\x48\xff\xc3 (1 found)
0x14000e7ad: fistp qword [rcx+0x04EB0001] ; add rax, 0x20 ; add rsp, 0x28 ; ret ; \xdf\xb9\x01\x00\xeb\x04\x48\x83\xc0\x20\x48\x83\xc4\x28\xc3 (1 found)
0x14000c49a: fisttp qword [rcx-0x75] ; jmp qword [rsi-0x70] ; \xdd\x49\x8b\xff\x66\x90 (1 found)
0x14000d775: fisttp word [rax-0x75] ; pop rsp ; and al, 0x30 ; add rsp, 0x20 ; pop rdi ; ret ; \xdf\x48\x8b\x5c\x24\x30\x48\x83\xc4\x20\x5f\xc3 (1 found)
0x14000cc6a: fisub word [rax+rax+0x00] ; mov rbx, qword [rsp+0x30] ; add rsp, 0x20 ; pop rdi ; ret ; \xde\x64\x00\x00\x48\x8b\x5c\x24\x30\x48\x83\xc4\x20\x5f\xc3 (1 found)
0x140015295: fld qword [rax] ; add byte [rax-0x7D], cl ; ret ; \xdd\x00\x00\x48\x83\xc3 (1 found)
0x140018f21: fld qword [rax] ; add byte [rax-0x7D], cl ; ret ; \xdd\x00\x00\x48\x83\xc3 (1 found)
0x14000d727: fld qword [rcx] ; add byte [rax-0x77], cl ; add eax, 0x0001DDAF ; add rsp, 0x28 ; ret ; \xdd\x01\x00\x48\x89\x05\xaf\xdd\x01\x00\x48\x83\xc4\x28\xc3 (1 found)
0x14001b395: fldenv  [rsi+0x0F] ; xlatb ; rol byte [rbp-0x742C8B25], 1 ; ret ; \xd9\x66\x0f\xd7\xd0\x85\xdb\x74\xd3\x8b\xc3 (1 found)
0x1400129d2: fmul qword [rcx-0x75] ; test bl, ch ; sal byte [rdi+0x4C880002], 1 ; clc ; cmp al, 0x8B ; retn 0x2B48 ; \xdc\x49\x8b\x84\xeb\xd0\xb7\x02\x00\x88\x4c\xf8\x3c\x8b\xc2\x48\x2b (1 found)
0x140015cd9: fsave  [rbp+rdx*2-0x76] ; jmp qword [r10] ; \xdd\x74\x55\x8a\x43\xff\x22 (1 found)
0x14001944b: fst  [rax] ; add byte [rax], al ; xor eax, eax ; add rsp, 0x20 ; pop rbx ; ret ; \xd9\x10\x00\x00\x33\xc0\x48\x83\xc4\x20\x5b\xc3 (1 found)
0x14000d7bd: fstenv  [rbx] ; ror byte [rax-0x75], 0x5C ; and al, 0x30 ; add rsp, 0x20 ; pop rdi ; ret ; \xd9\x33\xc0\x48\x8b\x5c\x24\x30\x48\x83\xc4\x20\x5f\xc3 (1 found)
0x1400134df: fstenv  [rdx-0x7CB70001] ; ret ; \xd9\xb2\xff\xff\x48\x83\xc3 (1 found)
0x14001b3a1: fsub  [rbx] ; ret ; \xd8\x23\xc3 (1 found)
0x14000d1c6: fsubr st0, st0 ; lock adc eax, 0x8B480000 ; ret ; \xd8\xe8\xf0\x15\x00\x00\x48\x8b\xc3 (1 found)
0x14000cfd0: fsubr st2, st0 ; add  [rax], eax ; ret ; \xdc\xe2\x01\x00\xc3 (1 found)
0x14001b4f3: hlt ; mov  [rcx-0x04], r11d ; ret ; \xf4\x44\x89\x59\xfc\xc3 (1 found)
0x140003bfe: idiv bh ; dec  [rax-0x75] ; push 0x28C48348 ; ret ; \xf6\xff\xff\x48\x8b\x40\x68\x48\x83\xc4\x28\xc3 (1 found)
0x140003c2f: idiv bh ; dec  [rax-0x77] ; pop rax ; push 0x20C48348 ; pop rbx ; ret ; \xf6\xff\xff\x48\x89\x58\x68\x48\x83\xc4\x20\x5b\xc3 (1 found)
0x1400033ce: idiv byte [rbp+0x02] ; add bh, bh ; ret ; \xf6\x7d\x02\x00\xff\xc3 (1 found)
0x14000df02: idiv edi ; push qword [rax-0x3B7CB7FF] ; sub bl, al ; mov al, 0x01 ; ret ; \xf7\xff\xff\xb0\x01\x48\x83\xc4\x28\xc3\xb0\x01\xc3 (1 found)
0x1400025f9: imul eax,  [rax], 0x00 ; add ah, cl ; int3 ; int3 ; xor eax, eax ; ret ; \x6b\x00\x00\x00\xcc\xcc\xcc\x33\xc0\xc3 (1 found)
0x14000ea8d: imul eax,  [rax], 0x00 ; mov qword [rbx], rax ; add rsp, 0x20 ; pop rbx ; ret ; \x6b\x00\x00\x48\x89\x03\x48\x83\xc4\x20\x5b\xc3 (1 found)
0x140004cb1: imul eax,  [rdi], 0x00 ; add byte [rax-0x75], cl ; ret ; \x6b\x07\x00\x00\x48\x8b\xc3 (1 found)
0x14000b9b6: imul eax, eax, 0x58 ; add rax, rcx ; ret ; \x6b\xc0\x58\x48\x03\xc1\xc3 (1 found)
0x140004c11: imul ebx,  [rax], 0x49 ; mov esi,  [rbx+0x20] ; mov rdi, qword [r11+0x28] ; mov rsp, r11 ; pop r14 ; ret ; \x6b\x18\x49\x8b\x73\x20\x49\x8b\x7b\x28\x49\x8b\xe3\x41\x5e\xc3 (1 found)
0x140010719: imul ebx,  [rax], 0x49 ; mov esi,  [rbx+0x20] ; mov rdi, qword [r11+0x28] ; mov rsp, r11 ; pop r14 ; ret ; \x6b\x18\x49\x8b\x73\x20\x49\x8b\x7b\x28\x49\x8b\xe3\x41\x5e\xc3 (1 found)
0x14000a0b6: imul ecx,  [rax+0x0F], 0x8E ; ret ; \x6b\x48\x0f\x8e\xc3 (1 found)
0x140017d11: imul edi, edi, 0x48C033FF ; add esp, 0x28 ; ret ; \x69\xff\xff\x33\xc0\x48\x83\xc4\x28\xc3 (1 found)
0x14000a5d9: imul esi,  [rax], 0x49 ; mov esp, ebx ; pop r12 ; pop rdi ; pop rsi ; ret ; \x6b\x30\x49\x8b\xe3\x41\x5c\x5f\x5e\xc3 (1 found)
0x14000a841: imul esi,  [rax], 0x49 ; mov esp, ebx ; pop r12 ; pop rdi ; pop rsi ; ret ; \x6b\x30\x49\x8b\xe3\x41\x5c\x5f\x5e\xc3 (1 found)
0x14000aaa9: imul esi,  [rax], 0x49 ; mov esp, ebx ; pop r12 ; pop rdi ; pop rsi ; ret ; \x6b\x30\x49\x8b\xe3\x41\x5c\x5f\x5e\xc3 (1 found)
0x1400116e8: imul esi,  [rax], 0x49 ; mov esp, ebx ; pop r14 ; pop rdi ; pop rsi ; ret ; \x6b\x30\x49\x8b\xe3\x41\x5e\x5f\x5e\xc3 (1 found)
0x140011803: imul esi,  [rax], 0x49 ; mov esp, ebx ; pop r14 ; pop rdi ; pop rsi ; ret ; \x6b\x30\x49\x8b\xe3\x41\x5e\x5f\x5e\xc3 (1 found)
0x140017d10: imul r15, rdi, 0x48C033FF ; add esp, 0x28 ; ret ; \x4c\x69\xff\xff\x33\xc0\x48\x83\xc4\x28\xc3 (1 found)
0x14000b9b5: imul rax, rax, 0x58 ; add rax, rcx ; ret ; \x48\x6b\xc0\x58\x48\x03\xc1\xc3 (1 found)
0x140002da6: in al, 0x48 ; mov eax, edx ; ret ; \xe4\x48\x8b\xc2\xc3 (1 found)
0x140002fe4: in al, dx ; mov al, 0x01 ; add rsp, 0x28 ; ret ; \xec\xb0\x01\x48\x83\xc4\x28\xc3 (1 found)
0x140014042: in al, dx ; sub al, ch ; xchg eax, ebx ; retn 0xFFFF ; \xec\x28\xe8\x93\xc2\xff\xff (1 found)
0x14000d7ef: in eax, 0x01 ; add byte [rax-0x3FCCFE77], dl ; add rsp, 0x28 ; ret ; \xe5\x01\x00\x90\x89\x01\x33\xc0\x48\x83\xc4\x28\xc3 (1 found)
0x14000ccaa: in eax, 0x0F ; mov bh, 0x01 ; movzx ecx, word [rdx] ; sub eax, ecx ; ret ; \xe5\x0f\xb7\x01\x0f\xb7\x0a\x2b\xc1\xc3 (1 found)
0x1400159df: in eax, 0x63 ; add  [rax], eax ; mov qword [0x000000014002BDD0], rcx ; mov qword [0x000000014002BDD8], rcx ; mov qword [0x000000014002BDE0], rcx ; ret ; \xe5\x63\x01\x00\x48\x89\x0d\xe6\x63\x01\x00\x48\x89\x0d\xe7\x63\x01\x00\x48\x89\x0d\xe8\x63\x01\x00\xc3 (1 found)
0x1400023f9: inc  [rax] ; add byte [rax+0x23], cl ; ror  [rax-0x47], 0x33 ; mov byte [0x3B4800002B992DDF], al ; ret ; \xff\x00\x00\x48\x23\xc1\x48\xb9\x33\xa2\xdf\x2d\x99\x2b\x00\x00\x48\x3b\xc3 (1 found)
0x14000b3e7: inc  [rax] ; add byte [rsi+0x3B], ah ; retn 0x3B75 ; \xff\x00\x00\x66\x3b\xc2\x75\x3b (1 found)
0x14000d692: inc  [rbp+0x48EA75C0] ; mov eax,  [0x000000014002B4D8] ; add rsp, 0x28 ; ret ; \xff\x85\xc0\x75\xea\x48\x8b\x05\x3a\xde\x01\x00\x48\x83\xc4\x28\xc3 (1 found)
0x14000d71e: inc  [rbp+0x48EA75C0] ; mov eax,  [0x000000014002B4D8] ; mov qword [0x000000014002B4E0], rax ; add rsp, 0x28 ; ret ; \xff\x85\xc0\x75\xea\x48\x8b\x05\xae\xdd\x01\x00\x48\x89\x05\xaf\xdd\x01\x00\x48\x83\xc4\x28\xc3 (1 found)
0x1400184dd: inc  [rbp-0x72DE8B3E] ; add  [rax], 0x85FFFC00 ; retn 0x1F75 ; \xff\x85\xc2\x74\x21\x8d\x81\x00\x00\xfc\xff\x85\xc2\x75\x1f (1 found)
0x1400184d3: inc  [rbp-0x72E18B3E] ; add  [rax], 0x85FFFE00 ; retn 0x2174 ; \xff\x85\xc2\x74\x1e\x8d\x81\x00\x00\xfe\xff\x85\xc2\x74\x21 (1 found)
0x1400165c1: inc  [rbp-0x75] ; ret ; \xff\x45\x8b\xc3 (1 found)
0x1400166af: inc  [rbp-0x75] ; ret ; \xff\x45\x8b\xc3 (1 found)
0x14000fc44: inc  [rbx+0x04EBFFC8] ; mov eax,  [rcx+0x18] ; nop ; add rsp, 0x28 ; ret ; \xff\x83\xc8\xff\xeb\x04\x8b\x41\x18\x90\x48\x83\xc4\x28\xc3 (1 found)
0x14000ff4d: inc  [rbx+0x48002063] ; and  [rbx+0x08], 0x00000000 ; and qword [rbx], 0x0000000000000000 ; add rsp, 0x20 ; pop rbx ; ret ; \xff\x83\x63\x20\x00\x48\x83\x63\x08\x00\x48\x83\x23\x00\x48\x83\xc4\x20\x5b\xc3 (1 found)
0x140019e08: inc  [rcx+0x0F] ; mov bh, 0xC8 ; or eax, ecx ; mov  [rsp+0x08], eax ; ldmxcsr  [rsp+0x08] ; ret ; \xff\x41\x0f\xb7\xc8\x0b\xc1\x89\x44\x24\x08\x0f\xae\x54\x24\x08\xc3 (1 found)
0x14001688e: inc  [rcx+0x3B] ; ret ; \x46\xff\x41\x3b\xc3 (1 found)
0x14001688f: inc  [rcx+0x3B] ; ret ; \xff\x41\x3b\xc3 (1 found)
0x140016958: inc  [rcx+0x3B] ; ret ; \x46\xff\x41\x3b\xc3 (1 found)
0x140016959: inc  [rcx+0x3B] ; ret ; \xff\x41\x3b\xc3 (1 found)
0x140016955: inc  [rcx-0x73] ; inc  [rcx+0x3B] ; ret ; \xff\x41\x8d\x46\xff\x41\x3b\xc3 (1 found)
0x14000fe08: inc  [rdx] ; movzx eax, cl ; ret ; \xff\x02\x0f\xb6\xc1\xc3 (1 found)
0x14001b518: inc bl ; mov qword [rcx-0x08], r11 ; ret ; \xfe\xc3\x4c\x89\x59\xf8\xc3 (1 found)
0x14001b4cf: inc bl ; nop word [rax+rax+0x00000000] ; mov qword [rcx-0x0D], r11 ; mov  [rcx-0x05], r11d ; mov byte [rcx-0x01], r11L ; ret ; \xfe\xc3\x66\x66\x66\x66\x66\x66\x66\x0f\x1f\x84\x00\x00\x00\x00\x00\x4c\x89\x59\xf3\x44\x89\x59\xfb\x44\x88\x59\xff\xc3 (1 found)
0x14001555e: inc eax ; ret ; \xff\xc0\xc3 (1 found)
0x14001b505: inc ebx ; mov qword [rcx-0x09], r11 ; mov byte [rcx-0x01], r11L ; ret ; \xff\xc3\x4c\x89\x59\xf7\x44\x88\x59\xff\xc3 (1 found)
0x14001b50e: inc ebx ; mov qword [rcx-0x0A], r11 ; mov word [rcx-0x02], r11w ; ret ; \xff\xc3\x4c\x89\x59\xf6\x66\x44\x89\x59\xfe\xc3 (1 found)
0x14001b4c1: inc ebx ; mov qword [rcx-0x0E], r11 ; mov  [rcx-0x06], r11d ; mov word [rcx-0x02], r11w ; ret ; \xff\xc3\x4c\x89\x59\xf2\x44\x89\x59\xfa\x66\x44\x89\x59\xfe\xc3 (1 found)
0x14001b4eb: inc ebx ; nop  [rax] ; mov qword [rcx-0x0C], r11 ; mov  [rcx-0x04], r11d ; ret ; \xff\xc3\x0f\x1f\x00\x4c\x89\x59\xf4\x44\x89\x59\xfc\xc3 (1 found)
0x14001325b: inc ebx ; xor eax, eax ; cmp rcx, rdx ; setnbe al ; ret ; \xff\xc3\x33\xc0\x48\x3b\xca\x0f\x97\xc0\xc3 (1 found)
0x140019e9f: inc esi ; xor byte [rcx], al ; mov  [rdx+0x2C], 0x0000002A ; ret ; \xff\xc6\x42\x30\x01\xc7\x42\x2c\x2a\x00\x00\x00\xc3 (1 found)
0x14000fe07: inc qword [rdx] ; movzx eax, cl ; ret ; \x48\xff\x02\x0f\xb6\xc1\xc3 (1 found)
0x14000ea55: insb ; add byte [rax], al ; mov qword [rbx], rax ; add rsp, 0x20 ; pop rbx ; ret ; \x6c\x00\x00\x48\x89\x03\x48\x83\xc4\x20\x5b\xc3 (1 found)
0x14001bdaf: insb ; add eax, esi ; movdqu  [rax], xmm0 ; ret ; \x6c\x01\xf0\xf3\x0f\x7f\x00\xc3 (1 found)
0x14001bc53: insb ; add eax, esp ; vmovdqu  [rax], ymm0 ; sfence ; vzeroupper ; ret ; \x6c\x01\xe0\xc5\xfe\x7f\x00\x0f\xae\xf8\xc5\xf8\x77\xc3 (1 found)
0x14001bb23: insb ; add eax, esp ; vmovdqu  [rax], ymm0 ; vzeroupper ; ret ; \x6c\x01\xe0\xc5\xfe\x7f\x00\xc5\xf8\x77\xc3 (1 found)
0x140014a20: insb ; and al, 0x38 ; add rsp, 0x20 ; pop rdi ; ret ; \x6c\x24\x38\x48\x83\xc4\x20\x5f\xc3 (1 found)
0x14001516f: insb ; and al, 0x38 ; add rsp, 0x20 ; pop rsi ; ret ; \x6c\x24\x38\x48\x83\xc4\x20\x5e\xc3 (1 found)
0x1400037ac: insb ; and al, 0x38 ; mov rsi, qword [rsp+0x40] ; add rsp, 0x20 ; pop rdi ; ret ; \x6c\x24\x38\x48\x8b\x74\x24\x40\x48\x83\xc4\x20\x5f\xc3 (1 found)
0x140005356: insb ; and al, 0x38 ; mov rsi, qword [rsp+0x40] ; add rsp, 0x20 ; pop rdi ; ret ; \x6c\x24\x38\x48\x8b\x74\x24\x40\x48\x83\xc4\x20\x5f\xc3 (1 found)
0x140005b66: insb ; and al, 0x38 ; mov rsi, qword [rsp+0x40] ; add rsp, 0x20 ; pop rdi ; ret ; \x6c\x24\x38\x48\x8b\x74\x24\x40\x48\x83\xc4\x20\x5f\xc3 (1 found)
0x140005c12: insb ; and al, 0x38 ; mov rsi, qword [rsp+0x40] ; add rsp, 0x20 ; pop rdi ; ret ; \x6c\x24\x38\x48\x8b\x74\x24\x40\x48\x83\xc4\x20\x5f\xc3 (1 found)
0x14000bd2e: insb ; and al, 0x38 ; mov rsi, qword [rsp+0x40] ; add rsp, 0x20 ; pop rdi ; ret ; \x6c\x24\x38\x48\x8b\x74\x24\x40\x48\x83\xc4\x20\x5f\xc3 (1 found)
0x14000ce09: insb ; and al, 0x38 ; mov rsi, qword [rsp+0x40] ; add rsp, 0x20 ; pop rdi ; ret ; \x6c\x24\x38\x48\x8b\x74\x24\x40\x48\x83\xc4\x20\x5f\xc3 (1 found)
0x14001451a: insb ; and al, 0x38 ; mov rsi, qword [rsp+0x40] ; add rsp, 0x20 ; pop rdi ; ret ; \x6c\x24\x38\x48\x8b\x74\x24\x40\x48\x83\xc4\x20\x5f\xc3 (1 found)
0x1400157cf: insb ; and al, 0x38 ; mov rsi, qword [rsp+0x40] ; add rsp, 0x20 ; pop rdi ; ret ; \x6c\x24\x38\x48\x8b\x74\x24\x40\x48\x83\xc4\x20\x5f\xc3 (1 found)
0x140015d3a: insb ; and al, 0x38 ; mov rsi, qword [rsp+0x40] ; add rsp, 0x20 ; pop rdi ; ret ; \x6c\x24\x38\x48\x8b\x74\x24\x40\x48\x83\xc4\x20\x5f\xc3 (1 found)
0x140011f96: insb ; and al, 0x40 ; add rsp, 0x20 ; pop rdi ; ret ; \x6c\x24\x40\x48\x83\xc4\x20\x5f\xc3 (1 found)
0x14001897c: insb ; and al, 0x40 ; add rsp, 0x20 ; pop rdi ; ret ; \x6c\x24\x40\x48\x83\xc4\x20\x5f\xc3 (1 found)
0x14001799d: insb ; and al, 0x40 ; mov rsi, qword [rsp+0x48] ; add rsp, 0x20 ; pop rdi ; ret ; \x6c\x24\x40\x48\x8b\x74\x24\x48\x48\x83\xc4\x20\x5f\xc3 (1 found)
0x140017a99: insb ; and al, 0x40 ; mov rsi, qword [rsp+0x48] ; add rsp, 0x20 ; pop rdi ; ret ; \x6c\x24\x40\x48\x8b\x74\x24\x48\x48\x83\xc4\x20\x5f\xc3 (1 found)
0x14000d5a0: insb ; and al, 0x48 ; mov rsi, qword [rsp+0x50] ; add rsp, 0x30 ; pop rdi ; ret ; \x6c\x24\x48\x48\x8b\x74\x24\x50\x48\x83\xc4\x30\x5f\xc3 (1 found)
0x14000e5fc: insb ; and al, 0x48 ; mov rsi, qword [rsp+0x50] ; add rsp, 0x30 ; pop rdi ; ret ; \x6c\x24\x48\x48\x8b\x74\x24\x50\x48\x83\xc4\x30\x5f\xc3 (1 found)
0x140015e4a: insb ; and al, 0x48 ; mov rsi, qword [rsp+0x50] ; add rsp, 0x30 ; pop rdi ; ret ; \x6c\x24\x48\x48\x8b\x74\x24\x50\x48\x83\xc4\x30\x5f\xc3 (1 found)
0x140018003: insb ; and al, 0x48 ; mov rsi, qword [rsp+0x50] ; add rsp, 0x30 ; pop rdi ; ret ; \x6c\x24\x48\x48\x8b\x74\x24\x50\x48\x83\xc4\x30\x5f\xc3 (1 found)
0x14000854d: insb ; and al, 0x50 ; add rsp, 0x30 ; pop rdi ; ret ; \x6c\x24\x50\x48\x83\xc4\x30\x5f\xc3 (1 found)
0x1400085dd: insb ; and al, 0x50 ; add rsp, 0x30 ; pop rdi ; ret ; \x6c\x24\x50\x48\x83\xc4\x30\x5f\xc3 (1 found)
0x14000866d: insb ; and al, 0x50 ; add rsp, 0x30 ; pop rdi ; ret ; \x6c\x24\x50\x48\x83\xc4\x30\x5f\xc3 (1 found)
0x140003cb4: insb ; and al, 0x60 ; mov rsi, qword [rsp+0x68] ; add rsp, 0x40 ; pop rdi ; ret ; \x6c\x24\x60\x48\x8b\x74\x24\x68\x48\x83\xc4\x40\x5f\xc3 (1 found)
0x14000f247: insb ; and al, 0x68 ; mov rsi, qword [rsp+0x70] ; add rsp, 0x50 ; pop rdi ; ret ; \x6c\x24\x68\x48\x8b\x74\x24\x70\x48\x83\xc4\x50\x5f\xc3 (1 found)
0x140010c1a: insb ; and al, 0x68 ; mov rsi, qword [rsp+0x70] ; add rsp, 0x50 ; pop rdi ; ret ; \x6c\x24\x68\x48\x8b\x74\x24\x70\x48\x83\xc4\x50\x5f\xc3 (1 found)
0x140010d96: insb ; and al, 0x68 ; mov rsi, qword [rsp+0x70] ; add rsp, 0x50 ; pop rdi ; ret ; \x6c\x24\x68\x48\x8b\x74\x24\x70\x48\x83\xc4\x50\x5f\xc3 (1 found)
0x140017e39: insb ; and al, 0x68 ; mov rsi, qword [rsp+0x70] ; add rsp, 0x50 ; pop rdi ; ret ; \x6c\x24\x68\x48\x8b\x74\x24\x70\x48\x83\xc4\x50\x5f\xc3 (1 found)
0x14001932e: insb ; and al, 0x68 ; mov rsi, qword [rsp+0x70] ; add rsp, 0x50 ; pop rdi ; ret ; \x6c\x24\x68\x48\x8b\x74\x24\x70\x48\x83\xc4\x50\x5f\xc3 (1 found)
0x14001b522: insb ; ror byte [rcx-0x7D], 0xF8 ; and byte [rdi+0x0C], dh ; movdqu  [rcx], xmm0 ; movdqu  [rcx+r8-0x10], xmm0 ; ret ; \x6c\xc0\x49\x83\xf8\x20\x77\x0c\xf3\x0f\x7f\x01\xf3\x42\x0f\x7f\x44\x01\xf0\xc3 (1 found)
0x140005817: insd ; pop rdx ; add al, byte [rax] ; ret ; \x6d\x5a\x02\x00\xc3 (1 found)
0x140003238: int 0x29 ; ret ; \xcd\x29\xc3 (1 found)
0x140017d56: int 0x2B ; retn 0xF8D1 ; \xcd\x2b\xc2\xd1\xf8 (1 found)
0x14001b4b4: int1 ; mov  [rcx-0x07], r11d ; mov word [rcx-0x03], r11w ; mov byte [rcx-0x01], r11L ; ret ; \xf1\x44\x89\x59\xf9\x66\x44\x89\x59\xfd\x44\x88\x59\xff\xc3 (1 found)
0x140002d2c: int1 ; mov rax, r8 ; ret ; \xf1\x49\x8b\xc0\xc3 (1 found)
0x140019b9b: int3 ; and ecx, 0x00000300 ; mov eax, ecx ; ret ; \xcc\x81\xe1\x00\x03\x00\x00\x8b\xc1\xc3 (1 found)
0x140019e8f: int3 ; and qword [rdx], 0x0000000000000000 ; mov rax, rcx ; ret ; \xcc\x48\x83\x22\x00\x48\x8b\xc1\xc3 (1 found)
0x140005383: int3 ; cmp qword [rcx+0x08], 0x0000000000000000 ; lea rax, qword [0x000000014001E3C0] ; cmovne rax, qword [rcx+0x08] ; ret ; \xcc\x48\x83\x79\x08\x00\x48\x8d\x05\x30\x90\x01\x00\x48\x0f\x45\x41\x08\xc3 (1 found)
0x1400031eb: int3 ; int3 ; int3 ; int3 ; int3 ; ret ; \xcc\xcc\xcc\xcc\xcc\xc3 (1 found)
0x1400031fb: int3 ; int3 ; int3 ; int3 ; int3 ; ret ; \xcc\xcc\xcc\xcc\xcc\xc3 (1 found)
0x14000132c: int3 ; int3 ; int3 ; int3 ; mov eax, 0x00000001 ; ret ; \xcc\xcc\xcc\xcc\xb8\x01\x00\x00\x00\xc3 (1 found)
0x14001b402: int3 ; int3 ; int3 ; int3 ; nop word [rax+rax+0x00000000] ; jmp rax ; \xcc\xcc\xcc\xcc\x66\x66\x0f\x1f\x84\x00\x00\x00\x00\x00\xff\xe0 (1 found)
0x1400031ec: int3 ; int3 ; int3 ; int3 ; ret ; \xcc\xcc\xcc\xcc\xc3 (1 found)
0x1400031fc: int3 ; int3 ; int3 ; int3 ; ret ; \xcc\xcc\xcc\xcc\xc3 (1 found)
0x14000309d: int3 ; int3 ; int3 ; jmp rdx ; \xcc\xcc\xcc\x48\xff\xe2 (1 found)
0x14000d945: int3 ; int3 ; int3 ; mov al, 0x01 ; ret ; \xcc\xcc\xcc\xb0\x01\xc3 (1 found)
0x14000cf39: int3 ; int3 ; int3 ; mov eax,  [0x000000014002B2AC] ; ret ; \xcc\xcc\xcc\x8b\x05\x6a\xe3\x01\x00\xc3 (1 found)
0x14000da71: int3 ; int3 ; int3 ; mov eax,  [0x000000014002B524] ; nop ; ret ; \xcc\xcc\xcc\x8b\x05\xaa\xda\x01\x00\x90\xc3 (1 found)
0x14000132d: int3 ; int3 ; int3 ; mov eax, 0x00000001 ; ret ; \xcc\xcc\xcc\xb8\x01\x00\x00\x00\xc3 (1 found)
0x14001b403: int3 ; int3 ; int3 ; nop word [rax+rax+0x00000000] ; jmp rax ; \xcc\xcc\xcc\x66\x66\x0f\x1f\x84\x00\x00\x00\x00\x00\xff\xe0 (1 found)
0x1400031ed: int3 ; int3 ; int3 ; ret ; \xcc\xcc\xcc\xc3 (1 found)
0x1400031fd: int3 ; int3 ; int3 ; ret ; \xcc\xcc\xcc\xc3 (1 found)
0x1400025fd: int3 ; int3 ; int3 ; xor eax, eax ; ret ; \xcc\xcc\xcc\x33\xc0\xc3 (1 found)
0x14000309e: int3 ; int3 ; jmp rdx ; \xcc\xcc\x48\xff\xe2 (1 found)
0x14000245a: int3 ; int3 ; mov al, 0x01 ; ret ; \xcc\xcc\xb0\x01\xc3 (1 found)
0x14000d946: int3 ; int3 ; mov al, 0x01 ; ret ; \xcc\xcc\xb0\x01\xc3 (1 found)
0x14000cf3a: int3 ; int3 ; mov eax,  [0x000000014002B2AC] ; ret ; \xcc\xcc\x8b\x05\x6a\xe3\x01\x00\xc3 (1 found)
0x14000da72: int3 ; int3 ; mov eax,  [0x000000014002B524] ; nop ; ret ; \xcc\xcc\x8b\x05\xaa\xda\x01\x00\x90\xc3 (1 found)
0x14000132e: int3 ; int3 ; mov eax, 0x00000001 ; ret ; \xcc\xcc\xb8\x01\x00\x00\x00\xc3 (1 found)
0x14000d9ca: int3 ; int3 ; mov eax, 0x00000001 ; xchg  [0x000000014002B520], eax ; ret ; \xcc\xcc\xb8\x01\x00\x00\x00\x87\x05\x49\xdb\x01\x00\xc3 (1 found)
0x1400158e2: int3 ; int3 ; mov qword [0x000000014002BDC0], rcx ; ret ; \xcc\xcc\x48\x89\x0d\xd5\x64\x01\x00\xc3 (1 found)
0x140003d22: int3 ; int3 ; movsxd rdx, qword [rdx+0x1C] ; mov rax, qword [rcx] ; mov  [rdx+rax], r8d ; ret ; \xcc\xcc\x48\x63\x52\x1c\x48\x8b\x01\x44\x89\x04\x02\xc3 (1 found)
0x14001b404: int3 ; int3 ; nop word [rax+rax+0x00000000] ; jmp rax ; \xcc\xcc\x66\x66\x0f\x1f\x84\x00\x00\x00\x00\x00\xff\xe0 (1 found)
0x1400031ee: int3 ; int3 ; ret ; \xcc\xcc\xc3 (1 found)
0x1400031fe: int3 ; int3 ; ret ; \xcc\xcc\xc3 (1 found)
0x140002a0e: int3 ; int3 ; xor eax, eax ; cmp  [0x0000000140046C48], eax ; setne al ; ret ; \xcc\xcc\x33\xc0\x39\x05\x30\x42\x04\x00\x0f\x95\xc0\xc3 (1 found)
0x140002436: int3 ; int3 ; xor eax, eax ; ret ; \xcc\xcc\x33\xc0\xc3 (1 found)
0x140002442: int3 ; int3 ; xor eax, eax ; ret ; \xcc\xcc\x33\xc0\xc3 (1 found)
0x1400025fe: int3 ; int3 ; xor eax, eax ; ret ; \xcc\xcc\x33\xc0\xc3 (1 found)
0x140002666: int3 ; int3 ; xor eax, eax ; ret ; \xcc\xcc\x33\xc0\xc3 (1 found)
0x14000309f: int3 ; jmp rdx ; \xcc\x48\xff\xe2 (1 found)
0x140002467: int3 ; lea rax, qword [0x000000014002B100] ; ret ; \xcc\x48\x8d\x05\x91\x8c\x02\x00\xc3 (1 found)
0x14000d94b: int3 ; lea rax, qword [0x000000014002B4F8] ; ret ; \xcc\x48\x8d\x05\xa5\xdb\x01\x00\xc3 (1 found)
0x14000daa7: int3 ; lea rax, qword [0x000000014002B528] ; ret ; \xcc\x48\x8d\x05\x79\xda\x01\x00\xc3 (1 found)
0x14000cf43: int3 ; mov  [0x000000014002B2AC], ecx ; ret ; \xcc\x89\x0d\x62\xe3\x01\x00\xc3 (1 found)
0x14000245b: int3 ; mov al, 0x01 ; ret ; \xcc\xb0\x01\xc3 (1 found)
0x14000d947: int3 ; mov al, 0x01 ; ret ; \xcc\xb0\x01\xc3 (1 found)
0x14000def3: int3 ; mov al, 0x01 ; ret ; \xcc\xb0\x01\xc3 (1 found)
0x14000def7: int3 ; mov al, 0x01 ; ret ; \xcc\xb0\x01\xc3 (1 found)
0x14000df0f: int3 ; mov al, 0x01 ; ret ; \xcc\xb0\x01\xc3 (1 found)
0x14000dff7: int3 ; mov al, 0x01 ; ret ; \xcc\xb0\x01\xc3 (1 found)
0x14000cf3b: int3 ; mov eax,  [0x000000014002B2AC] ; ret ; \xcc\x8b\x05\x6a\xe3\x01\x00\xc3 (1 found)
0x14000da73: int3 ; mov eax,  [0x000000014002B524] ; nop ; ret ; \xcc\x8b\x05\xaa\xda\x01\x00\x90\xc3 (1 found)
0x14000132f: int3 ; mov eax, 0x00000001 ; ret ; \xcc\xb8\x01\x00\x00\x00\xc3 (1 found)
0x14000242f: int3 ; mov eax, 0x00000001 ; ret ; \xcc\xb8\x01\x00\x00\x00\xc3 (1 found)
0x14000d9cb: int3 ; mov eax, 0x00000001 ; xchg  [0x000000014002B520], eax ; ret ; \xcc\xb8\x01\x00\x00\x00\x87\x05\x49\xdb\x01\x00\xc3 (1 found)
0x14000243b: int3 ; mov eax, 0x00004000 ; ret ; \xcc\xb8\x00\x40\x00\x00\xc3 (1 found)
0x14000b9ab: int3 ; mov eax, ecx ; lea rcx, qword [0x000000014002A080] ; imul rax, rax, 0x58 ; add rax, rcx ; ret ; \xcc\x8b\xc1\x48\x8d\x0d\xcb\xe6\x01\x00\x48\x6b\xc0\x58\x48\x03\xc1\xc3 (1 found)
0x140005813: int3 ; mov qword [0x000000014002B288], rcx ; ret ; \xcc\x48\x89\x0d\x6d\x5a\x02\x00\xc3 (1 found)
0x14000e4ef: int3 ; mov qword [0x000000014002B798], rcx ; ret ; \xcc\x48\x89\x0d\xa1\xd2\x01\x00\xc3 (1 found)
0x1400158e3: int3 ; mov qword [0x000000014002BDC0], rcx ; ret ; \xcc\x48\x89\x0d\xd5\x64\x01\x00\xc3 (1 found)
0x1400159db: int3 ; mov qword [0x000000014002BDC8], rcx ; mov qword [0x000000014002BDD0], rcx ; mov qword [0x000000014002BDD8], rcx ; mov qword [0x000000014002BDE0], rcx ; ret ; \xcc\x48\x89\x0d\xe5\x63\x01\x00\x48\x89\x0d\xe6\x63\x01\x00\x48\x89\x0d\xe7\x63\x01\x00\x48\x89\x0d\xe8\x63\x01\x00\xc3 (1 found)
0x14001aa17: int3 ; mov rax, 0x0008000000000000 ; or rcx, rax ; mov qword [rsp+0x08], rcx ; movsd xmm0, qword [rsp+0x08] ; ret ; \xcc\x48\xb8\x00\x00\x00\x00\x00\x00\x08\x00\x48\x0b\xc8\x48\x89\x4c\x24\x08\xf2\x0f\x10\x44\x24\x08\xc3 (1 found)
0x140005373: int3 ; mov rax, r8 ; mov r10, rdx ; mov rdx, rax ; mov r8d, r9d ; jmp r10 ; \xcc\x49\x8b\xc0\x4c\x8b\xd2\x48\x8b\xd0\x45\x8b\xc1\x49\xff\xe2 (1 found)
0x140003d23: int3 ; movsxd rdx, qword [rdx+0x1C] ; mov rax, qword [rcx] ; mov  [rdx+rax], r8d ; ret ; \xcc\x48\x63\x52\x1c\x48\x8b\x01\x44\x89\x04\x02\xc3 (1 found)
0x14001b405: int3 ; nop word [rax+rax+0x00000000] ; jmp rax ; \xcc\x66\x66\x0f\x1f\x84\x00\x00\x00\x00\x00\xff\xe0 (1 found)
0x1400031ef: int3 ; ret ; \xcc\xc3 (1 found)
0x1400031ff: int3 ; ret ; \xcc\xc3 (1 found)
0x14000245f: int3 ; retn 0x0000 ; \xcc\xc2\x00\x00 (1 found)
0x140002463: int3 ; retn 0x0000 ; \xcc\xc2\x00\x00 (1 found)
0x14000248b: int3 ; xor eax, eax ; cmp  [0x000000014002A04C], eax ; sete al ; ret ; \xcc\x33\xc0\x39\x05\xb8\x7b\x02\x00\x0f\x94\xc0\xc3 (1 found)
0x140002a0f: int3 ; xor eax, eax ; cmp  [0x0000000140046C48], eax ; setne al ; ret ; \xcc\x33\xc0\x39\x05\x30\x42\x04\x00\x0f\x95\xc0\xc3 (1 found)
0x140002437: int3 ; xor eax, eax ; ret ; \xcc\x33\xc0\xc3 (1 found)
0x140002443: int3 ; xor eax, eax ; ret ; \xcc\x33\xc0\xc3 (1 found)
0x140002447: int3 ; xor eax, eax ; ret ; \xcc\x33\xc0\xc3 (1 found)
0x1400025ff: int3 ; xor eax, eax ; ret ; \xcc\x33\xc0\xc3 (1 found)
0x140002667: int3 ; xor eax, eax ; ret ; \xcc\x33\xc0\xc3 (1 found)
0x1400087e4: iretq ; \x48\xcf (1 found)
0x140008ac1: iretq ; \x48\xcf (1 found)
0x140008d94: iretq ; \x48\xcf (1 found)
0x14001134a: iretq ; \x4d\xcf (1 found)
0x140018ccb: iretq ; \x4d\xcf (1 found)
0x140015cdd: jmp qword [r10] ; \x43\xff\x22 (1 found)
0x140010e9d: jmp qword [rbx-0x74B7FFFF] ; \xff\xa3\x01\x00\x48\x8b (1 found)
0x14001af79: jmp qword [rbx] ; \xff\x23 (1 found)
0x14001aba3: jmp qword [rcx] ; \xff\x21 (1 found)
0x14001add4: jmp qword [rcx] ; \xff\x21 (1 found)
0x140015cde: jmp qword [rdx] ; \xff\x22 (1 found)
0x140002d66: jmp qword [rsi+0x0F] ; \xff\x66\x0f (1 found)
0x140005fea: jmp qword [rsi+0x3B] ; \xff\x66\x3b (1 found)
0x140007698: jmp qword [rsi+0x41] ; \x42\xff\x66\x41 (1 found)
0x140007699: jmp qword [rsi+0x41] ; \xff\x66\x41 (1 found)
0x14000771c: jmp qword [rsi+0x41] ; \x42\xff\x66\x41 (1 found)
0x14000771d: jmp qword [rsi+0x41] ; \xff\x66\x41 (1 found)
0x1400077a0: jmp qword [rsi+0x41] ; \x42\xff\x66\x41 (1 found)
0x1400077a1: jmp qword [rsi+0x41] ; \xff\x66\x41 (1 found)
0x140007c46: jmp qword [rsi+0x41] ; \x42\xff\x66\x41 (1 found)
0x140007c47: jmp qword [rsi+0x41] ; \xff\x66\x41 (1 found)
0x140007cce: jmp qword [rsi+0x41] ; \x42\xff\x66\x41 (1 found)
0x140007ccf: jmp qword [rsi+0x41] ; \xff\x66\x41 (1 found)
0x140007d56: jmp qword [rsi+0x41] ; \x42\xff\x66\x41 (1 found)
0x140007d57: jmp qword [rsi+0x41] ; \xff\x66\x41 (1 found)
0x140005ac1: jmp qword [rsi+0x44] ; \xff\x66\x44 (1 found)
0x14000b797: jmp qword [rsi+0x44] ; \xff\x66\x44 (1 found)
0x14000cda4: jmp qword [rsi+0x44] ; \xff\x66\x44 (1 found)
0x1400146eb: jmp qword [rsi+0x45] ; \xff\x66\x45 (1 found)
0x14000c49d: jmp qword [rsi-0x70] ; \xff\x66\x90 (1 found)
0x14001987d: jmp qword [rsi-0x70] ; \xff\x66\x90 (1 found)
0x14000c12c: jmp qword [rsi-0x77] ; \xff\x66\x89 (1 found)
0x140013404: jmp qword [rsi-0x7D] ; \xff\x66\x83 (1 found)
0x140005380: jmp r10 ; \x49\xff\xe2 (1 found)
0x14001b604: jmp r11 ; \x41\xff\xe3 (1 found)
0x14001b6c4: jmp r11 ; \x41\xff\xe3 (1 found)
0x14001b7b8: jmp r11 ; \x41\xff\xe3 (1 found)
0x14001baa2: jmp r11 ; \x41\xff\xe3 (1 found)
0x14001bbd2: jmp r11 ; \x41\xff\xe3 (1 found)
0x14001bd46: jmp r11 ; \x41\xff\xe3 (1 found)
0x14001b4ae: jmp r9 ; \x41\xff\xe1 (1 found)
0x14001b85b: jmp r9 ; \x41\xff\xe1 (1 found)
0x14000536e: jmp rax ; \x48\xff\xe0 (1 found)
0x14000536f: jmp rax ; \xff\xe0 (1 found)
0x14001b410: jmp rax ; \xff\xe0 (1 found)
0x14001b605: jmp rbx ; \xff\xe3 (1 found)
0x14001b6c5: jmp rbx ; \xff\xe3 (1 found)
0x14001b7b9: jmp rbx ; \xff\xe3 (1 found)
0x14001baa3: jmp rbx ; \xff\xe3 (1 found)
0x14001bbd3: jmp rbx ; \xff\xe3 (1 found)
0x14001bd47: jmp rbx ; \xff\xe3 (1 found)
0x1400105b9: jmp rcx ; \xff\xe1 (1 found)
0x14001b4af: jmp rcx ; \xff\xe1 (1 found)
0x14001b85c: jmp rcx ; \xff\xe1 (1 found)
0x1400030a0: jmp rdx ; \x48\xff\xe2 (1 found)
0x1400030a1: jmp rdx ; \xff\xe2 (1 found)
0x140005381: jmp rdx ; \xff\xe2 (1 found)
0x14000df01: lahf ; idiv edi ; push qword [rax-0x3B7CB7FF] ; sub bl, al ; mov al, 0x01 ; ret ; \x9f\xf7\xff\xff\xb0\x01\x48\x83\xc4\x28\xc3\xb0\x01\xc3 (1 found)
0x140019e13: ldmxcsr  [rsp+0x08] ; ret ; \x0f\xae\x54\x24\x08\xc3 (1 found)
0x140019e89: ldmxcsr  [rsp+0x08] ; ret ; \x0f\xae\x54\x24\x08\xc3 (1 found)
0x14001ab94: ldmxcsr  [rsp+0x08] ; ret ; \x0f\xae\x54\x24\x08\xc3 (1 found)
0x14001aba8: ldmxcsr  [rsp+0x08] ; ret ; \x0f\xae\x54\x24\x08\xc3 (1 found)
0x14000538a: lea eax,  [0x000000014001E3C0] ; cmovne rax, qword [rcx+0x08] ; ret ; \x8d\x05\x30\x90\x01\x00\x48\x0f\x45\x41\x08\xc3 (1 found)
0x140004c5a: lea eax,  [0x000000014001E3E0] ; mov qword [rbx], rax ; mov rax, rbx ; add rsp, 0x20 ; pop rbx ; ret ; \x8d\x05\x80\x97\x01\x00\x48\x89\x03\x48\x8b\xc3\x48\x83\xc4\x20\x5b\xc3 (1 found)
0x140004c7d: lea eax,  [0x000000014001E3E0] ; mov qword [rcx], rax ; mov rax, rcx ; ret ; \x8d\x05\x5d\x97\x01\x00\x48\x89\x01\x48\x8b\xc1\xc3 (1 found)
0x140004c72: lea eax,  [0x000000014001E3F0] ; mov qword [rcx+0x08], rax ; lea rax, qword [0x000000014001E3E0] ; mov qword [rcx], rax ; mov rax, rcx ; ret ; \x8d\x05\x78\x97\x01\x00\x48\x89\x41\x08\x48\x8d\x05\x5d\x97\x01\x00\x48\x89\x01\x48\x8b\xc1\xc3 (1 found)
0x14000debd: lea eax,  [0x000000014002A1A0] ; mov qword [0x000000014002B7C0], rax ; mov al, 0x01 ; ret ; \x8d\x05\xdd\xc2\x01\x00\x48\x89\x05\xf6\xd8\x01\x00\xb0\x01\xc3 (1 found)
0x140002469: lea eax,  [0x000000014002B100] ; ret ; \x8d\x05\x91\x8c\x02\x00\xc3 (1 found)
0x14000d94d: lea eax,  [0x000000014002B4F8] ; ret ; \x8d\x05\xa5\xdb\x01\x00\xc3 (1 found)
0x14000d955: lea eax,  [0x000000014002B508] ; ret ; \x8d\x05\xad\xdb\x01\x00\xc3 (1 found)
0x14000daa9: lea eax,  [0x000000014002B528] ; ret ; \x8d\x05\x79\xda\x01\x00\xc3 (1 found)
0x1400024a1: lea eax,  [0x0000000140046C50] ; ret ; \x8d\x05\xa9\x47\x04\x00\xc3 (1 found)
0x140002499: lea eax,  [0x0000000140046C58] ; ret ; \x8d\x05\xb9\x47\x04\x00\xc3 (1 found)
0x140001001: lea eax,  [0x0000000140046C60] ; ret ; \x8d\x05\x59\x5c\x04\x00\xc3 (1 found)
0x140002d82: lea eax,  [rax+rax*2] ; ret ; \x8d\x04\x40\xc3 (1 found)
0x140016a1f: lea eax,  [rax] ; add byte [rax], al ; add byte [rbp-0x74B3F1FC], cl ; ret ; \x8d\x00\x00\x00\x00\x8d\x04\x0e\x4c\x8b\xc3 (1 found)
0x140016f0c: lea eax,  [rax] ; add byte [rax], al ; add byte [rbp-0x74B3F1FC], cl ; ret ; \x8d\x00\x00\x00\x00\x8d\x04\x0e\x4c\x8b\xc3 (1 found)
0x14000da68: lea eax,  [rcx+0x02] ; add rsp, 0x20 ; pop rbx ; ret ; \x8d\x41\x02\x48\x83\xc4\x20\x5b\xc3 (1 found)
0x1400030c5: lea eax,  [rdx+0x01] ; add rsp, 0x20 ; pop rbx ; ret ; \xf2\x8d\x42\x01\x48\x83\xc4\x20\x5b\xc3 (1 found)
0x1400030c6: lea eax,  [rdx+0x01] ; add rsp, 0x20 ; pop rbx ; ret ; \x8d\x42\x01\x48\x83\xc4\x20\x5b\xc3 (1 found)
0x140003dc1: lea eax,  [rdx+rcx*8] ; mov eax,  [rax+r11+0x04] ; add rsp, 0x20 ; pop rbx ; ret ; \x8d\x04\xca\x42\x8b\x44\x18\x04\x48\x83\xc4\x20\x5b\xc3 (1 found)
0x14000e381: lea eax,  [rsi+rbx*8] ; mov rbx, qword [rsp+0x30] ; mov rsi, qword [rsp+0x38] ; add rsp, 0x20 ; pop rdi ; ret ; \x8d\x04\xde\x48\x8b\x5c\x24\x30\x48\x8b\x74\x24\x38\x48\x83\xc4\x20\x5f\xc3 (1 found)
0x140013ca3: lea ebx,  [rsp+0x00000780] ; mov rbx, qword [r11+0x18] ; mov rdi, qword [r11+0x20] ; mov rsp, r11 ; pop rbp ; ret ; \x8d\x9c\x24\x80\x07\x00\x00\x49\x8b\x5b\x18\x49\x8b\x7b\x20\x49\x8b\xe3\x5d\xc3 (1 found)
0x1400191d1: lea ebx,  [rsp+0x70] ; mov rbx, qword [r11+0x10] ; mov rsi, qword [r11+0x18] ; mov rsp, r11 ; pop rdi ; ret ; \x8d\x5c\x24\x70\x49\x8b\x5b\x10\x49\x8b\x73\x18\x49\x8b\xe3\x5f\xc3 (1 found)
0x140019c7b: lea ecx,  [0x00000000+rdx*4] ; or eax, ecx ; shl eax, 0x16 ; or eax, edx ; ret ; \x8d\x0c\x95\x00\x00\x00\x00\x0b\xc1\xc1\xe0\x16\x0b\xc2\xc3 (1 found)
0x14000b9af: lea ecx,  [0x000000014002A080] ; imul rax, rax, 0x58 ; add rax, rcx ; ret ; \x8d\x0d\xcb\xe6\x01\x00\x48\x6b\xc0\x58\x48\x03\xc1\xc3 (1 found)
0x140003dbc: lea ecx,  [r9-0x01] ; lea rax, qword [r10+rcx*8] ; mov eax,  [rax+r11+0x04] ; add rsp, 0x20 ; pop rbx ; ret ; \x41\x8d\x49\xff\x49\x8d\x04\xca\x42\x8b\x44\x18\x04\x48\x83\xc4\x20\x5b\xc3 (1 found)
0x14000e74c: lea ecx,  [rax+0x20] ; mov  [rcx], ebx ; add rsp, 0x20 ; pop rbx ; ret ; \x8d\x48\x20\x89\x19\x48\x83\xc4\x20\x5b\xc3 (1 found)
0x140003dbd: lea ecx,  [rcx-0x01] ; lea rax, qword [r10+rcx*8] ; mov eax,  [rax+r11+0x04] ; add rsp, 0x20 ; pop rbx ; ret ; \x8d\x49\xff\x49\x8d\x04\xca\x42\x8b\x44\x18\x04\x48\x83\xc4\x20\x5b\xc3 (1 found)
0x140002e45: lea ecx,  [rsp+0x30] ; call rax ; \x8d\x4c\x24\x30\xff\xd0 (1 found)
0x140010e11: lea edi,  [0x000000014002BC90] ; mov ecx, 0x0000001F ; rep stosq ; mov rdi, qword [rsp+0x08] ; mov al, 0x01 ; ret ; \x8d\x3d\x79\xae\x01\x00\xb9\x1f\x00\x00\x00\xf3\x48\xab\x48\x8b\x7c\x24\x08\xb0\x01\xc3 (1 found)
0x140013ca2: lea r11, qword [rsp+0x00000780] ; mov rbx, qword [r11+0x18] ; mov rdi, qword [r11+0x20] ; mov rsp, r11 ; pop rbp ; ret ; \x4c\x8d\x9c\x24\x80\x07\x00\x00\x49\x8b\x5b\x18\x49\x8b\x7b\x20\x49\x8b\xe3\x5d\xc3 (1 found)
0x1400191d0: lea r11, qword [rsp+0x70] ; mov rbx, qword [r11+0x10] ; mov rsi, qword [r11+0x18] ; mov rsp, r11 ; pop rdi ; ret ; \x4c\x8d\x5c\x24\x70\x49\x8b\x5b\x10\x49\x8b\x73\x18\x49\x8b\xe3\x5f\xc3 (1 found)
0x140005389: lea rax, qword [0x000000014001E3C0] ; cmovne rax, qword [rcx+0x08] ; ret ; \x48\x8d\x05\x30\x90\x01\x00\x48\x0f\x45\x41\x08\xc3 (1 found)
0x140004c59: lea rax, qword [0x000000014001E3E0] ; mov qword [rbx], rax ; mov rax, rbx ; add rsp, 0x20 ; pop rbx ; ret ; \x48\x8d\x05\x80\x97\x01\x00\x48\x89\x03\x48\x8b\xc3\x48\x83\xc4\x20\x5b\xc3 (1 found)
0x140004c7c: lea rax, qword [0x000000014001E3E0] ; mov qword [rcx], rax ; mov rax, rcx ; ret ; \x48\x8d\x05\x5d\x97\x01\x00\x48\x89\x01\x48\x8b\xc1\xc3 (1 found)
0x140004c71: lea rax, qword [0x000000014001E3F0] ; mov qword [rcx+0x08], rax ; lea rax, qword [0x000000014001E3E0] ; mov qword [rcx], rax ; mov rax, rcx ; ret ; \x48\x8d\x05\x78\x97\x01\x00\x48\x89\x41\x08\x48\x8d\x05\x5d\x97\x01\x00\x48\x89\x01\x48\x8b\xc1\xc3 (1 found)
0x14000debc: lea rax, qword [0x000000014002A1A0] ; mov qword [0x000000014002B7C0], rax ; mov al, 0x01 ; ret ; \x48\x8d\x05\xdd\xc2\x01\x00\x48\x89\x05\xf6\xd8\x01\x00\xb0\x01\xc3 (1 found)
0x140002468: lea rax, qword [0x000000014002B100] ; ret ; \x48\x8d\x05\x91\x8c\x02\x00\xc3 (1 found)
0x14000d94c: lea rax, qword [0x000000014002B4F8] ; ret ; \x48\x8d\x05\xa5\xdb\x01\x00\xc3 (1 found)
0x14000d954: lea rax, qword [0x000000014002B508] ; ret ; \x48\x8d\x05\xad\xdb\x01\x00\xc3 (1 found)
0x14000daa8: lea rax, qword [0x000000014002B528] ; ret ; \x48\x8d\x05\x79\xda\x01\x00\xc3 (1 found)
0x1400024a0: lea rax, qword [0x0000000140046C50] ; ret ; \x48\x8d\x05\xa9\x47\x04\x00\xc3 (1 found)
0x140002498: lea rax, qword [0x0000000140046C58] ; ret ; \x48\x8d\x05\xb9\x47\x04\x00\xc3 (1 found)
0x140001000: lea rax, qword [0x0000000140046C60] ; ret ; \x48\x8d\x05\x59\x5c\x04\x00\xc3 (1 found)
0x140003dc0: lea rax, qword [r10+rcx*8] ; mov eax,  [rax+r11+0x04] ; add rsp, 0x20 ; pop rbx ; ret ; \x49\x8d\x04\xca\x42\x8b\x44\x18\x04\x48\x83\xc4\x20\x5b\xc3 (1 found)
0x140002d81: lea rax, qword [r8+rax*2] ; ret ; \x49\x8d\x04\x40\xc3 (1 found)
0x14000e380: lea rax, qword [rsi+rbx*8] ; mov rbx, qword [rsp+0x30] ; mov rsi, qword [rsp+0x38] ; add rsp, 0x20 ; pop rdi ; ret ; \x48\x8d\x04\xde\x48\x8b\x5c\x24\x30\x48\x8b\x74\x24\x38\x48\x83\xc4\x20\x5f\xc3 (1 found)
0x14000b9ae: lea rcx, qword [0x000000014002A080] ; imul rax, rax, 0x58 ; add rax, rcx ; ret ; \x48\x8d\x0d\xcb\xe6\x01\x00\x48\x6b\xc0\x58\x48\x03\xc1\xc3 (1 found)
0x14000e74b: lea rcx, qword [rax+0x20] ; mov  [rcx], ebx ; add rsp, 0x20 ; pop rbx ; ret ; \x48\x8d\x48\x20\x89\x19\x48\x83\xc4\x20\x5b\xc3 (1 found)
0x140002e44: lea rcx, qword [rsp+0x30] ; call rax ; \x48\x8d\x4c\x24\x30\xff\xd0 (1 found)
0x140010e10: lea rdi, qword [0x000000014002BC90] ; mov ecx, 0x0000001F ; rep stosq ; mov rdi, qword [rsp+0x08] ; mov al, 0x01 ; ret ; \x48\x8d\x3d\x79\xae\x01\x00\xb9\x1f\x00\x00\x00\xf3\x48\xab\x48\x8b\x7c\x24\x08\xb0\x01\xc3 (1 found)
0x14000fc5f: leave ; add  [rax+0x39], ecx ; or eax, 0x0001BB40 ; sete al ; ret ; \xc9\x01\x48\x39\x0d\x40\xbb\x01\x00\x0f\x94\xc0\xc3 (1 found)
0x14001a59c: leave ; add  [rcx-0x7B], eax ; ret ; \xc9\x01\x41\x85\xc3 (1 found)
0x14001a4f0: leave ; add al, 0xF6 ; ret ; \xc9\x04\xf6\xc3 (1 found)
0x14000d8a9: leave ; add byte [rdx-0x78], 0x4C ; retn 0x4A38 ; \xc9\x80\x42\x88\x4c\xc2\x38\x4a (1 found)
0x14000d8bd: leave ; add byte [rdx-0x78], 0x4C ; retn 0x4A38 ; \xc9\x80\x42\x88\x4c\xc2\x38\x4a (1 found)
0x14000d8db: leave ; add byte [rdx-0x78], 0x4C ; retn 0x4A38 ; \xc9\x80\x42\x88\x4c\xc2\x38\x4a (1 found)
0x14001a509: leave ; add esi, esi ; ret ; \xc9\x01\xf6\xc3 (1 found)
0x14001bed7: leave ; cmp  [rax], 0xC0000005 ; sete cl ; mov eax, ecx ; pop rbp ; ret ; \xc9\x81\x38\x05\x00\x00\xc0\x0f\x94\xc1\x8b\xc1\x5d\xc3 (1 found)
0x140019a19: leave ; mov ecx, 0x00A3D005 ; add ch, al ; sti ; pop rax ; retn 0xF9C5 ; \xc9\xb9\x05\xd0\xa3\x00\x00\xc5\xfb\x58\xc2\xc5\xf9 (1 found)
0x14001b3b2: leave ; mov rax, r9 ; mov rbx, qword [rsp+0x08] ; ret ; \x45\xc9\x49\x8b\xc1\x48\x8b\x5c\x24\x08\xc3 (1 found)
0x14001b3b3: leave ; mov rax, r9 ; mov rbx, qword [rsp+0x08] ; ret ; \xc9\x49\x8b\xc1\x48\x8b\x5c\x24\x08\xc3 (1 found)
0x140005c53: leave ; sete al ; ret ; \xc9\x0f\x94\xc0\xc3 (1 found)
0x1400191ee: leave ; test al, al ; sete cl ; mov eax, ecx ; add rsp, 0x28 ; ret ; \xc9\x84\xc0\x0f\x94\xc1\x8b\xc1\x48\x83\xc4\x28\xc3 (1 found)
0x14000cfc9: leave ; xor r9, r8 ; mov qword [0x000000014002B2B0], r9 ; ret ; \xc9\x4d\x33\xc8\x4c\x89\x0d\xdc\xe2\x01\x00\xc3 (1 found)
0x14000d1c8: lock adc eax, 0x8B480000 ; ret ; \xf0\x15\x00\x00\x48\x8b\xc3 (1 found)
0x14001b24f: lock mov r10, qword [rsp+0x00] ; mov r11, qword [rsp+0x08] ; add rsp, 0x10 ; ret ; \xf0\x4c\x8b\x14\x24\x4c\x8b\x5c\x24\x08\x48\x83\xc4\x10\xc3 (1 found)
0x14001b7a5: lock mov r11, r9 ; shr r11, 0x04 ; mov r11d,  [r10+r11*4+0x000263E8] ; add r11, r10 ; jmp r11 ; \xf0\x4d\x8b\xd9\x49\xc1\xeb\x04\x47\x8b\x9c\x9a\xe8\x63\x02\x00\x4d\x03\xda\x41\xff\xe3 (1 found)
0x14001bd33: lock mov r11, r9 ; shr r11, 0x04 ; mov r11d,  [r10+r11*4+0x00026498] ; add r11, r10 ; jmp r11 ; \xf0\x4d\x8b\xd9\x49\xc1\xeb\x04\x47\x8b\x9c\x9a\x98\x64\x02\x00\x4d\x03\xda\x41\xff\xe3 (1 found)
0x14001b7f2: lock movdqu  [rax], xmm0 ; ret ; \xf0\xf3\x0f\x7f\x00\xc3 (1 found)
0x14001bdb1: lock movdqu  [rax], xmm0 ; ret ; \xf0\xf3\x0f\x7f\x00\xc3 (1 found)
0x14001b960: lock movdqu  [rcx], xmm1 ; movdqu  [rcx+r8-0x10], xmm2 ; ret ; \xf0\xf3\x0f\x7f\x09\xf3\x42\x0f\x7f\x54\x01\xf0\xc3 (1 found)
0x14001b534: lock ret ; \xf0\xc3 (1 found)
0x14001b96b: lock ret ; \xf0\xc3 (1 found)
0x1400155b4: lock xadd  [rcx+0x0000015C], eax ; dec eax ; ret ; \xf0\x0f\xc1\x81\x5c\x01\x00\x00\xff\xc8\xc3 (1 found)
0x140015556: lock xadd  [rcx+0x0000015C], eax ; inc eax ; ret ; \xf0\x0f\xc1\x81\x5c\x01\x00\x00\xff\xc0\xc3 (1 found)
0x140002457: lodsb ; add  [rax], eax ; int3 ; int3 ; mov al, 0x01 ; ret ; \xac\x01\x00\xcc\xcc\xb0\x01\xc3 (1 found)
0x1400047bb: lodsb ; add byte [rax], al ; add byte [rax-0x75], cl ; pop rbp ; or byte [rax-0x7D], cl ; ret ; \xac\x00\x00\x00\x48\x8b\x5d\x08\x48\x83\xc3 (1 found)
0x1400162a3: lodsb ; and al, 0x18 ; add al, byte [rax] ; add byte [rcx-0x01], al ; retn 0x8B41 ; \xac\x24\x18\x02\x00\x00\x41\xff\xc2\x41\x8b (1 found)
0x1400143c2: lodsb ; fiadd word [rax] ; add byte [rcx+0x0F], al ; xchg eax, esi ; retn 0xFF33 ; \xac\xde\x00\x00\x41\x0f\x96\xc2\x33\xff (1 found)
0x140002420: mov  [0x000000014002A040], eax ; add rsp, 0x30 ; pop rbp ; ret ; \x89\x05\x1a\x7c\x02\x00\x48\x83\xc4\x30\x5d\xc3 (1 found)
0x140002223: mov  [0x000000014002B0E0], eax ; mov byte [0x000000014002B0B1], 0x01 ; mov al, 0x01 ; add rsp, 0x20 ; pop rbx ; ret ; \x89\x05\xb7\x8e\x02\x00\xc6\x05\x81\x8e\x02\x00\x01\xb0\x01\x48\x83\xc4\x20\x5b\xc3 (1 found)
0x140005815: mov  [0x000000014002B288], ecx ; ret ; \x89\x0d\x6d\x5a\x02\x00\xc3 (1 found)
0x140005875: mov  [0x000000014002B288], edx ; add rsp, 0x28 ; ret ; \x89\x15\x0d\x5a\x02\x00\x48\x83\xc4\x28\xc3 (1 found)
0x14000cf44: mov  [0x000000014002B2AC], ecx ; ret ; \x89\x0d\x62\xe3\x01\x00\xc3 (1 found)
0x14000cf6d: mov  [0x000000014002B2B0], ecx ; ret ; \x89\x0d\x3d\xe3\x01\x00\xc3 (1 found)
0x14000cfce: mov  [0x000000014002B2B0], ecx ; ret ; \x89\x0d\xdc\xe2\x01\x00\xc3 (1 found)
0x14000d72b: mov  [0x000000014002B4E0], eax ; add rsp, 0x28 ; ret ; \x89\x05\xaf\xdd\x01\x00\x48\x83\xc4\x28\xc3 (1 found)
0x14000d938: mov  [0x000000014002B518], eax ; mov al, 0x01 ; add rsp, 0x28 ; ret ; \x89\x05\xda\xdb\x01\x00\xb0\x01\x48\x83\xc4\x28\xc3 (1 found)
0x14000e4f1: mov  [0x000000014002B798], ecx ; ret ; \x89\x0d\xa1\xd2\x01\x00\xc3 (1 found)
0x14000dec4: mov  [0x000000014002B7C0], eax ; mov al, 0x01 ; ret ; \x89\x05\xf6\xd8\x01\x00\xb0\x01\xc3 (1 found)
0x14000df8e: mov  [0x000000014002BD98], ebx ; mov al, 0x01 ; add rsp, 0x20 ; pop rbx ; ret ; \x89\x1d\x04\xde\x01\x00\xb0\x01\x48\x83\xc4\x20\x5b\xc3 (1 found)
0x140014eb8: mov  [0x000000014002BDA8], eax ; xor eax, eax ; ret ; \x89\x05\xea\x6e\x01\x00\x33\xc0\xc3 (1 found)
0x1400157ee: mov  [0x000000014002BDB8], eax ; setne al ; add rsp, 0x28 ; ret ; \x89\x05\xc4\x65\x01\x00\x0f\x95\xc0\x48\x83\xc4\x28\xc3 (1 found)
0x1400158e5: mov  [0x000000014002BDC0], ecx ; ret ; \x89\x0d\xd5\x64\x01\x00\xc3 (1 found)
0x1400159dd: mov  [0x000000014002BDC8], ecx ; mov qword [0x000000014002BDD0], rcx ; mov qword [0x000000014002BDD8], rcx ; mov qword [0x000000014002BDE0], rcx ; ret ; \x89\x0d\xe5\x63\x01\x00\x48\x89\x0d\xe6\x63\x01\x00\x48\x89\x0d\xe7\x63\x01\x00\x48\x89\x0d\xe8\x63\x01\x00\xc3 (1 found)
0x1400159e4: mov  [0x000000014002BDD0], ecx ; mov qword [0x000000014002BDD8], rcx ; mov qword [0x000000014002BDE0], rcx ; ret ; \x89\x0d\xe6\x63\x01\x00\x48\x89\x0d\xe7\x63\x01\x00\x48\x89\x0d\xe8\x63\x01\x00\xc3 (1 found)
0x1400159eb: mov  [0x000000014002BDD8], ecx ; mov qword [0x000000014002BDE0], rcx ; ret ; \x89\x0d\xe7\x63\x01\x00\x48\x89\x0d\xe8\x63\x01\x00\xc3 (1 found)
0x1400159f2: mov  [0x000000014002BDE0], ecx ; ret ; \x89\x0d\xe8\x63\x01\x00\xc3 (1 found)
0x14001aa9b: mov  [0x000000014002BDF4], eax ; mov  [0x000000014002BDF8], r8d ; xor eax, eax ; add rsp, 0x10 ; pop rbx ; ret ; \x89\x05\x53\x13\x01\x00\x44\x89\x05\x50\x13\x01\x00\x33\xc0\x48\x83\xc4\x10\x5b\xc3 (1 found)
0x14001aa9a: mov  [0x000000014002BDF4], r8d ; mov  [0x000000014002BDF8], r8d ; xor eax, eax ; add rsp, 0x10 ; pop rbx ; ret ; \x44\x89\x05\x53\x13\x01\x00\x44\x89\x05\x50\x13\x01\x00\x33\xc0\x48\x83\xc4\x10\x5b\xc3 (1 found)
0x14001aaa2: mov  [0x000000014002BDF8], eax ; xor eax, eax ; add rsp, 0x10 ; pop rbx ; ret ; \x89\x05\x50\x13\x01\x00\x33\xc0\x48\x83\xc4\x10\x5b\xc3 (1 found)
0x14001aaa1: mov  [0x000000014002BDF8], r8d ; xor eax, eax ; add rsp, 0x10 ; pop rbx ; ret ; \x44\x89\x05\x50\x13\x01\x00\x33\xc0\x48\x83\xc4\x10\x5b\xc3 (1 found)
0x14000909b: mov  [0x00093441C70773C2], eax ; add byte [rax], al ; mov al, 0x01 ; add rsp, 0x38 ; ret ; \xa3\xc2\x73\x07\xc7\x41\x34\x09\x00\x00\x00\xb0\x01\x48\x83\xc4\x38\xc3 (1 found)
0x14000924b: mov  [0x00093441C70773C2], eax ; add byte [rax], al ; mov al, 0x01 ; add rsp, 0x38 ; ret ; \xa3\xc2\x73\x07\xc7\x41\x34\x09\x00\x00\x00\xb0\x01\x48\x83\xc4\x38\xc3 (1 found)
0x1400093fb: mov  [0x00093441C70773C2], eax ; add byte [rax], al ; mov al, 0x01 ; add rsp, 0x38 ; ret ; \xa3\xc2\x73\x07\xc7\x41\x34\x09\x00\x00\x00\xb0\x01\x48\x83\xc4\x38\xc3 (1 found)
0x14000fc58: mov  [0x01C98348C0330001], eax ; cmp qword [0x000000014002B7A8], rcx ; sete al ; ret ; \xa3\x01\x00\x33\xc0\x48\x83\xc9\x01\x48\x39\x0d\x40\xbb\x01\x00\x0f\x94\xc0\xc3 (1 found)
0x140001f75: mov  [0x5C8B48C38B000038], eax ; and al, 0x40 ; mov rsi, qword [rsp+0x48] ; add rsp, 0x30 ; pop rdi ; ret ; \xa3\x38\x00\x00\x8b\xc3\x48\x8b\x5c\x24\x40\x48\x8b\x74\x24\x48\x48\x83\xc4\x30\x5f\xc3 (1 found)
0x14001006a: mov  [0xE80674C83B480001], eax ; out 0xFF, eax ; call qword [rax-0x2317F475] ; \xf2\xa3\x01\x00\x48\x3b\xc8\x74\x06\xe8\x44\xe7\xff\xff\x90\x8b\x0b\xe8\xdc (1 found)
0x14001006b: mov  [0xE80674C83B480001], eax ; out 0xFF, eax ; call qword [rax-0x2317F475] ; \xa3\x01\x00\x48\x3b\xc8\x74\x06\xe8\x44\xe7\xff\xff\x90\x8b\x0b\xe8\xdc (1 found)
0x140019abf: mov  [0xFBC5C458FBC50000], eax ; pop rax ; rol ebp, 0xFFFFFFFB ; pop rax ; ret ; \xa3\x00\x00\xc5\xfb\x58\xc4\xc5\xfb\x58\xc1\xc5\xfb\x58\xc3 (1 found)
0x140010ef9: mov  [0xFF00F82483480001], eax ; ret ; \xa3\x01\x00\x48\x83\x24\xf8\x00\xff\xc3 (1 found)
0x140002f81: mov  [r15+0x48], eax ; mov r8d,  [rbx+rcx*8+0x0C] ; mov cl, 0x01 ; add r8, r12 ; call r8 ; \x41\x89\x47\x48\x44\x8b\x44\xcb\x0c\xb1\x01\x4d\x03\xc4\x41\xff\xd0 (1 found)
0x1400076bf: mov  [r8+0x48], ecx ; mov qword [r8+0x40], rax ; ret ; \x41\x89\x48\x48\x49\x89\x40\x40\xc3 (1 found)
0x140007743: mov  [r8+0x48], ecx ; mov qword [r8+0x40], rax ; ret ; \x41\x89\x48\x48\x49\x89\x40\x40\xc3 (1 found)
0x1400077c7: mov  [r8+0x48], ecx ; mov qword [r8+0x40], rax ; ret ; \x41\x89\x48\x48\x49\x89\x40\x40\xc3 (1 found)
0x140007c6d: mov  [r8+0x48], ecx ; mov qword [r8+0x40], rax ; ret ; \x41\x89\x48\x48\x49\x89\x40\x40\xc3 (1 found)
0x140007cf5: mov  [r8+0x48], ecx ; mov qword [r8+0x40], rax ; ret ; \x41\x89\x48\x48\x49\x89\x40\x40\xc3 (1 found)
0x140007d7d: mov  [r8+0x48], ecx ; mov qword [r8+0x40], rax ; ret ; \x41\x89\x48\x48\x49\x89\x40\x40\xc3 (1 found)
0x140007884: mov  [r9+0x48], r8d ; mov qword [r9+0x40], rax ; ret ; \x45\x89\x41\x48\x49\x89\x41\x40\xc3 (1 found)
0x140007944: mov  [r9+0x48], r8d ; mov qword [r9+0x40], rax ; ret ; \x45\x89\x41\x48\x49\x89\x41\x40\xc3 (1 found)
0x140007a04: mov  [r9+0x48], r8d ; mov qword [r9+0x40], rax ; ret ; \x45\x89\x41\x48\x49\x89\x41\x40\xc3 (1 found)
0x140007e42: mov  [r9+0x48], r8d ; mov qword [r9+0x40], rax ; ret ; \x45\x89\x41\x48\x49\x89\x41\x40\xc3 (1 found)
0x140007f06: mov  [r9+0x48], r8d ; mov qword [r9+0x40], rax ; ret ; \x45\x89\x41\x48\x49\x89\x41\x40\xc3 (1 found)
0x140007fca: mov  [r9+0x48], r8d ; mov qword [r9+0x40], rax ; ret ; \x45\x89\x41\x48\x49\x89\x41\x40\xc3 (1 found)
0x14001b8b0: mov  [rax+0x04], eax ; mov byte [rax+0x06], r9L ; ret ; \x89\x40\x04\x44\x88\x48\x06\xc3 (1 found)
0x14001b92b: mov  [rax+0x04], eax ; ret ; \x89\x40\x04\xc3 (1 found)
0x14001b8af: mov  [rax+0x04], r8d ; mov byte [rax+0x06], r9L ; ret ; \x44\x89\x40\x04\x44\x88\x48\x06\xc3 (1 found)
0x14001b92a: mov  [rax+0x04], r8d ; ret ; \x44\x89\x40\x04\xc3 (1 found)
0x14001b890: mov  [rax+0x08], ecx ; mov byte [rax+0x0A], r9L ; ret ; \x89\x48\x08\x44\x88\x48\x0a\xc3 (1 found)
0x14001b8ee: mov  [rax+0x08], ecx ; mov byte [rax+0x0C], r9L ; ret ; \x89\x48\x08\x44\x88\x48\x0c\xc3 (1 found)
0x14001b873: mov  [rax+0x08], ecx ; mov word [rax+0x0C], r9w ; mov byte [rax+0x0E], r10L ; ret ; \x89\x48\x08\x66\x44\x89\x48\x0c\x44\x88\x50\x0e\xc3 (1 found)
0x14001b8c6: mov  [rax+0x08], ecx ; mov word [rax+0x0C], r9w ; ret ; \x89\x48\x08\x66\x44\x89\x48\x0c\xc3 (1 found)
0x14001b901: mov  [rax+0x08], ecx ; ret ; \x89\x48\x08\xc3 (1 found)
0x14001b91c: mov  [rax+0x08], ecx ; ret ; \x89\x48\x08\xc3 (1 found)
0x14001b878: mov  [rax+0x0C], ecx ; mov byte [rax+0x0E], r10L ; ret ; \x89\x48\x0c\x44\x88\x50\x0e\xc3 (1 found)
0x14001b8cb: mov  [rax+0x0C], ecx ; ret ; \x89\x48\x0c\xc3 (1 found)
0x14001b877: mov  [rax+0x0C], r9d ; mov byte [rax+0x0E], r10L ; ret ; \x44\x89\x48\x0c\x44\x88\x50\x0e\xc3 (1 found)
0x14001b8ca: mov  [rax+0x0C], r9d ; ret ; \x44\x89\x48\x0c\xc3 (1 found)
0x14000e582: mov  [rax+0x24], ebx ; mov rbx, qword [rsp+0x00000080] ; add rsp, 0x70 ; pop rbp ; ret ; \x89\x58\x24\x48\x8b\x9c\x24\x80\x00\x00\x00\x48\x83\xc4\x70\x5d\xc3 (1 found)
0x14001c0c4: mov  [rax+0x28], ecx ; add rsp, 0x28 ; pop rbp ; pop rbx ; ret ; \x89\x48\x28\x48\x83\xc4\x28\x5d\x5b\xc3 (1 found)
0x1400076c4: mov  [rax+0x40], eax ; ret ; \x89\x40\x40\xc3 (1 found)
0x140007748: mov  [rax+0x40], eax ; ret ; \x89\x40\x40\xc3 (1 found)
0x1400077cc: mov  [rax+0x40], eax ; ret ; \x89\x40\x40\xc3 (1 found)
0x140007c72: mov  [rax+0x40], eax ; ret ; \x89\x40\x40\xc3 (1 found)
0x140007cfa: mov  [rax+0x40], eax ; ret ; \x89\x40\x40\xc3 (1 found)
0x140007d82: mov  [rax+0x40], eax ; ret ; \x89\x40\x40\xc3 (1 found)
0x1400076c0: mov  [rax+0x48], ecx ; mov qword [r8+0x40], rax ; ret ; \x89\x48\x48\x49\x89\x40\x40\xc3 (1 found)
0x140007744: mov  [rax+0x48], ecx ; mov qword [r8+0x40], rax ; ret ; \x89\x48\x48\x49\x89\x40\x40\xc3 (1 found)
0x1400077c8: mov  [rax+0x48], ecx ; mov qword [r8+0x40], rax ; ret ; \x89\x48\x48\x49\x89\x40\x40\xc3 (1 found)
0x140007c6e: mov  [rax+0x48], ecx ; mov qword [r8+0x40], rax ; ret ; \x89\x48\x48\x49\x89\x40\x40\xc3 (1 found)
0x140007cf6: mov  [rax+0x48], ecx ; mov qword [r8+0x40], rax ; ret ; \x89\x48\x48\x49\x89\x40\x40\xc3 (1 found)
0x140007d7e: mov  [rax+0x48], ecx ; mov qword [r8+0x40], rax ; ret ; \x89\x48\x48\x49\x89\x40\x40\xc3 (1 found)
0x140003b82: mov  [rax+0x58], ebx ; mov rax, rbx ; add rsp, 0x20 ; pop rbx ; ret ; \x89\x58\x58\x48\x8b\xc3\x48\x83\xc4\x20\x5b\xc3 (1 found)
0x140003bcf: mov  [rax+0x58], ebx ; mov rbx, qword [rsp+0x30] ; add rsp, 0x20 ; pop rdi ; ret ; \x89\x58\x58\x48\x8b\x5c\x24\x30\x48\x83\xc4\x20\x5f\xc3 (1 found)
0x140003c1b: mov  [rax+0x60], ebx ; add rsp, 0x20 ; pop rbx ; ret ; \x89\x58\x60\x48\x83\xc4\x20\x5b\xc3 (1 found)
0x140003c33: mov  [rax+0x68], ebx ; add rsp, 0x20 ; pop rbx ; ret ; \x89\x58\x68\x48\x83\xc4\x20\x5b\xc3 (1 found)
0x140003d5c: mov  [rax+rcx+0x04], edi ; mov rbx, qword [rsp+0x30] ; add rsp, 0x20 ; pop rdi ; ret ; \x89\x7c\x08\x04\x48\x8b\x5c\x24\x30\x48\x83\xc4\x20\x5f\xc3 (1 found)
0x14000e848: mov  [rax], 0x0000000C ; xor eax, eax ; add rsp, 0x20 ; pop rbx ; ret ; \xc7\x00\x0c\x00\x00\x00\x33\xc0\x48\x83\xc4\x20\x5b\xc3 (1 found)
0x140010917: mov  [rax], 0x0000000C ; xor eax, eax ; add rsp, 0x20 ; pop rbx ; ret ; \xc7\x00\x0c\x00\x00\x00\x33\xc0\x48\x83\xc4\x20\x5b\xc3 (1 found)
0x1400193ae: mov  [rax], 0x0000000C ; xor eax, eax ; mov rbx, qword [rsp+0x30] ; add rsp, 0x20 ; pop rdi ; ret ; \xc7\x00\x0c\x00\x00\x00\x33\xc0\x48\x8b\x5c\x24\x30\x48\x83\xc4\x20\x5f\xc3 (1 found)
0x14001af25: mov  [rax], 0x00000021 ; add rsp, 0x28 ; ret ; \xc7\x00\x21\x00\x00\x00\x48\x83\xc4\x28\xc3 (1 found)
0x140010b2e: mov  [rax], 0x0225B800 ; add al, al ; add rsp, 0x20 ; pop rbx ; ret ; \xc7\x00\x00\xb8\x25\x02\x00\xc0\x48\x83\xc4\x20\x5b\xc3 (1 found)
0x14001b8ec: mov  [rax], eax ; mov  [rax+0x08], ecx ; mov byte [rax+0x0C], r9L ; ret ; \x89\x00\x89\x48\x08\x44\x88\x48\x0c\xc3 (1 found)
0x14001b871: mov  [rax], eax ; mov  [rax+0x08], ecx ; mov word [rax+0x0C], r9w ; mov byte [rax+0x0E], r10L ; ret ; \x89\x00\x89\x48\x08\x66\x44\x89\x48\x0c\x44\x88\x50\x0e\xc3 (1 found)
0x14001b8c4: mov  [rax], eax ; mov  [rax+0x08], ecx ; mov word [rax+0x0C], r9w ; ret ; \x89\x00\x89\x48\x08\x66\x44\x89\x48\x0c\xc3 (1 found)
0x14001b91a: mov  [rax], eax ; mov  [rax+0x08], ecx ; ret ; \x89\x00\x89\x48\x08\xc3 (1 found)
0x14001b90d: mov  [rax], eax ; mov byte [rax+0x08], cl ; ret ; \x89\x00\x88\x48\x08\xc3 (1 found)
0x140017633: mov  [rax], eax ; mov eax, 0x00000001 ; ret ; \x89\x00\xb8\x01\x00\x00\x00\xc3 (1 found)
0x14001b88d: mov  [rax], eax ; mov word [rax+0x08], cx ; mov byte [rax+0x0A], r9L ; ret ; \x89\x00\x66\x89\x48\x08\x44\x88\x48\x0a\xc3 (1 found)
0x14001b8fe: mov  [rax], eax ; mov word [rax+0x08], cx ; ret ; \x89\x00\x66\x89\x48\x08\xc3 (1 found)
0x14000e7f0: mov  [rax], ebx ; add rsp, 0x20 ; pop rbx ; ret ; \x89\x18\x48\x83\xc4\x20\x5b\xc3 (1 found)
0x14001b8d8: mov  [rax], ecx ; mov byte [rax+0x02], r8L ; ret ; \x89\x08\x44\x88\x40\x02\xc3 (1 found)
0x14001b936: mov  [rax], ecx ; mov byte [rax+0x04], r8L ; ret ; \x89\x08\x44\x88\x40\x04\xc3 (1 found)
0x14001b8ac: mov  [rax], ecx ; mov word [rax+0x04], r8w ; mov byte [rax+0x06], r9L ; ret ; \x89\x08\x66\x44\x89\x40\x04\x44\x88\x48\x06\xc3 (1 found)
0x14001b927: mov  [rax], ecx ; mov word [rax+0x04], r8w ; ret ; \x89\x08\x66\x44\x89\x40\x04\xc3 (1 found)
0x14001b89c: mov  [rax], ecx ; ret ; \x89\x08\xc3 (1 found)
0x14001b941: mov  [rax], ecx ; ret ; \x89\x08\xc3 (1 found)
0x14001b94c: mov  [rax], ecx ; ret ; \x89\x08\xc3 (1 found)
0x140015661: mov  [rax], esp ; add  [rax], eax ; add al, ch ; xor eax, 0x48FFFFFF ; add esp, 0x28 ; ret ; \x89\x20\x01\x00\x00\xe8\x35\xff\xff\xff\x48\x83\xc4\x28\xc3 (1 found)
0x14001bf6a: mov  [rbp+0x20], 0x00000000 ; mov eax,  [rbp+0x20] ; add rsp, 0x28 ; pop rbp ; pop rbx ; ret ; \xc7\x45\x20\x00\x00\x00\x00\x8b\x45\x20\x48\x83\xc4\x28\x5d\x5b\xc3 (1 found)
0x14001c142: mov  [rbp+0x20], eax ; mov eax,  [rbp+0x20] ; add rsp, 0x20 ; pop rbp ; ret ; \x89\x45\x20\x8b\x45\x20\x48\x83\xc4\x20\x5d\xc3 (1 found)
0x140008543: mov  [rbp+0x2C], ebx ; mov rbx, qword [rsp+0x48] ; mov rbp, qword [rsp+0x50] ; add rsp, 0x30 ; pop rdi ; ret ; \x89\x5d\x2c\x48\x8b\x5c\x24\x48\x48\x8b\x6c\x24\x50\x48\x83\xc4\x30\x5f\xc3 (1 found)
0x1400085d3: mov  [rbp+0x2C], ebx ; mov rbx, qword [rsp+0x48] ; mov rbp, qword [rsp+0x50] ; add rsp, 0x30 ; pop rdi ; ret ; \x89\x5d\x2c\x48\x8b\x5c\x24\x48\x48\x8b\x6c\x24\x50\x48\x83\xc4\x30\x5f\xc3 (1 found)
0x140008663: mov  [rbp+0x2C], ebx ; mov rbx, qword [rsp+0x48] ; mov rbp, qword [rsp+0x50] ; add rsp, 0x30 ; pop rdi ; ret ; \x89\x5d\x2c\x48\x8b\x5c\x24\x48\x48\x8b\x6c\x24\x50\x48\x83\xc4\x30\x5f\xc3 (1 found)
0x14001946d: mov  [rbx+0x04], eax ; xor eax, eax ; add rsp, 0x20 ; pop rbx ; ret ; \x89\x43\x04\x33\xc0\x48\x83\xc4\x20\x5b\xc3 (1 found)
0x140010f53: mov  [rbx+0x08], eax ; mov qword [rbx], rax ; mov  [rbx+0x10], eax ; add rsp, 0x20 ; pop rbx ; ret ; \x89\x43\x08\x48\x89\x03\x89\x43\x10\x48\x83\xc4\x20\x5b\xc3 (1 found)
0x140010f59: mov  [rbx+0x10], eax ; add rsp, 0x20 ; pop rbx ; ret ; \x89\x43\x10\x48\x83\xc4\x20\x5b\xc3 (1 found)
0x14000e76d: mov  [rbx+0x2C], eax ; mov byte [rbx+0x30], 0x01 ; add rsp, 0x20 ; pop rbx ; ret ; \x89\x43\x2c\xc6\x43\x30\x01\x48\x83\xc4\x20\x5b\xc3 (1 found)
0x14000ab6a: mov  [rbx+0x40], ecx ; mov rbx, qword [rsp+0x38] ; add rsp, 0x20 ; pop rdi ; ret ; \x89\x4b\x40\x48\x8b\x5c\x24\x38\x48\x83\xc4\x20\x5f\xc3 (1 found)
0x14000ac2e: mov  [rbx+0x40], ecx ; mov rbx, qword [rsp+0x38] ; add rsp, 0x20 ; pop rdi ; ret ; \x89\x4b\x40\x48\x8b\x5c\x24\x38\x48\x83\xc4\x20\x5f\xc3 (1 found)
0x14000acf2: mov  [rbx+0x40], ecx ; mov rbx, qword [rsp+0x38] ; add rsp, 0x20 ; pop rdi ; ret ; \x89\x4b\x40\x48\x8b\x5c\x24\x38\x48\x83\xc4\x20\x5f\xc3 (1 found)
0x14000212f: mov  [rbx-0x4E83FD01], 0x40C48348 ; pop rdi ; pop rsi ; pop rbx ; ret ; \xc7\x83\xff\x02\x7c\xb1\x48\x83\xc4\x40\x5f\x5e\x5b\xc3 (1 found)
0x14000ea59: mov  [rbx], eax ; add rsp, 0x20 ; pop rbx ; ret ; \x89\x03\x48\x83\xc4\x20\x5b\xc3 (1 found)
0x14000ea91: mov  [rbx], eax ; add rsp, 0x20 ; pop rbx ; ret ; \x89\x03\x48\x83\xc4\x20\x5b\xc3 (1 found)
0x14000eac5: mov  [rbx], eax ; add rsp, 0x20 ; pop rbx ; ret ; \x89\x03\x48\x83\xc4\x20\x5b\xc3 (1 found)
0x14000eafd: mov  [rbx], eax ; add rsp, 0x20 ; pop rbx ; ret ; \x89\x03\x48\x83\xc4\x20\x5b\xc3 (1 found)
0x140010f57: mov  [rbx], eax ; mov  [rbx+0x10], eax ; add rsp, 0x20 ; pop rbx ; ret ; \x89\x03\x89\x43\x10\x48\x83\xc4\x20\x5b\xc3 (1 found)
0x140004c61: mov  [rbx], eax ; mov rax, rbx ; add rsp, 0x20 ; pop rbx ; ret ; \x89\x03\x48\x8b\xc3\x48\x83\xc4\x20\x5b\xc3 (1 found)
0x140018e0a: mov  [rbx], eax ; mov rbx, qword [rsp+0x30] ; add rsp, 0x20 ; pop rdi ; ret ; \x89\x03\x48\x8b\x5c\x24\x30\x48\x83\xc4\x20\x5f\xc3 (1 found)
0x140017707: mov  [rbx], edx ; add rsp, 0x40 ; pop rbx ; ret ; \x89\x13\x48\x83\xc4\x40\x5b\xc3 (1 found)
0x140004c79: mov  [rcx+0x08], eax ; lea rax, qword [0x000000014001E3E0] ; mov qword [rcx], rax ; mov rax, rcx ; ret ; \x89\x41\x08\x48\x8d\x05\x5d\x97\x01\x00\x48\x89\x01\x48\x8b\xc1\xc3 (1 found)
0x140011ea2: mov  [rcx+0x08], eax ; mov  [rcx+0x10], eax ; mov qword [rcx+0x1C], rax ; mov qword [rcx+0x28], rax ; xchg  [rcx+0x14], eax ; ret ; \x89\x41\x08\x89\x41\x10\x48\x89\x41\x1c\x48\x89\x41\x28\x87\x41\x14\xc3 (1 found)
0x14000de69: mov  [rcx+0x08], eax ; mov qword [rcx+0x10], rax ; xor eax, eax ; ret ; \x89\x41\x08\x48\x89\x41\x10\x33\xc0\xc3 (1 found)
0x140011ea5: mov  [rcx+0x10], eax ; mov qword [rcx+0x1C], rax ; mov qword [rcx+0x28], rax ; xchg  [rcx+0x14], eax ; ret ; \x89\x41\x10\x48\x89\x41\x1c\x48\x89\x41\x28\x87\x41\x14\xc3 (1 found)
0x14000de6d: mov  [rcx+0x10], eax ; xor eax, eax ; ret ; \x89\x41\x10\x33\xc0\xc3 (1 found)
0x140011ea9: mov  [rcx+0x1C], eax ; mov qword [rcx+0x28], rax ; xchg  [rcx+0x14], eax ; ret ; \x89\x41\x1c\x48\x89\x41\x28\x87\x41\x14\xc3 (1 found)
0x140011ead: mov  [rcx+0x28], eax ; xchg  [rcx+0x14], eax ; ret ; \x89\x41\x28\x87\x41\x14\xc3 (1 found)
0x14000909f: mov  [rcx+0x34], 0x00000009 ; mov al, 0x01 ; add rsp, 0x38 ; ret ; \xc7\x41\x34\x09\x00\x00\x00\xb0\x01\x48\x83\xc4\x38\xc3 (1 found)
0x14000924f: mov  [rcx+0x34], 0x00000009 ; mov al, 0x01 ; add rsp, 0x38 ; ret ; \xc7\x41\x34\x09\x00\x00\x00\xb0\x01\x48\x83\xc4\x38\xc3 (1 found)
0x1400093ff: mov  [rcx+0x34], 0x00000009 ; mov al, 0x01 ; add rsp, 0x38 ; ret ; \xc7\x41\x34\x09\x00\x00\x00\xb0\x01\x48\x83\xc4\x38\xc3 (1 found)
0x140007889: mov  [rcx+0x40], eax ; ret ; \x89\x41\x40\xc3 (1 found)
0x140007949: mov  [rcx+0x40], eax ; ret ; \x89\x41\x40\xc3 (1 found)
0x140007a09: mov  [rcx+0x40], eax ; ret ; \x89\x41\x40\xc3 (1 found)
0x140007aac: mov  [rcx+0x40], eax ; ret ; \x89\x41\x40\xc3 (1 found)
0x140007b4c: mov  [rcx+0x40], eax ; ret ; \x89\x41\x40\xc3 (1 found)
0x140007bec: mov  [rcx+0x40], eax ; ret ; \x89\x41\x40\xc3 (1 found)
0x140007e47: mov  [rcx+0x40], eax ; ret ; \x89\x41\x40\xc3 (1 found)
0x140007f0b: mov  [rcx+0x40], eax ; ret ; \x89\x41\x40\xc3 (1 found)
0x140007fcf: mov  [rcx+0x40], eax ; ret ; \x89\x41\x40\xc3 (1 found)
0x140008070: mov  [rcx+0x40], eax ; ret ; \x89\x41\x40\xc3 (1 found)
0x140008110: mov  [rcx+0x40], eax ; ret ; \x89\x41\x40\xc3 (1 found)
0x1400081b0: mov  [rcx+0x40], eax ; ret ; \x89\x41\x40\xc3 (1 found)
0x140007885: mov  [rcx+0x48], eax ; mov qword [r9+0x40], rax ; ret ; \x89\x41\x48\x49\x89\x41\x40\xc3 (1 found)
0x140007945: mov  [rcx+0x48], eax ; mov qword [r9+0x40], rax ; ret ; \x89\x41\x48\x49\x89\x41\x40\xc3 (1 found)
0x140007a05: mov  [rcx+0x48], eax ; mov qword [r9+0x40], rax ; ret ; \x89\x41\x48\x49\x89\x41\x40\xc3 (1 found)
0x140007e43: mov  [rcx+0x48], eax ; mov qword [r9+0x40], rax ; ret ; \x89\x41\x48\x49\x89\x41\x40\xc3 (1 found)
0x140007f07: mov  [rcx+0x48], eax ; mov qword [r9+0x40], rax ; ret ; \x89\x41\x48\x49\x89\x41\x40\xc3 (1 found)
0x140007fcb: mov  [rcx+0x48], eax ; mov qword [r9+0x40], rax ; ret ; \x89\x41\x48\x49\x89\x41\x40\xc3 (1 found)
0x140007aa8: mov  [rcx+0x48], edx ; mov qword [rcx+0x40], rax ; ret ; \x89\x51\x48\x48\x89\x41\x40\xc3 (1 found)
0x140007b48: mov  [rcx+0x48], edx ; mov qword [rcx+0x40], rax ; ret ; \x89\x51\x48\x48\x89\x41\x40\xc3 (1 found)
0x140007be8: mov  [rcx+0x48], edx ; mov qword [rcx+0x40], rax ; ret ; \x89\x51\x48\x48\x89\x41\x40\xc3 (1 found)
0x14000806c: mov  [rcx+0x48], edx ; mov qword [rcx+0x40], rax ; ret ; \x89\x51\x48\x48\x89\x41\x40\xc3 (1 found)
0x14000810c: mov  [rcx+0x48], edx ; mov qword [rcx+0x40], rax ; ret ; \x89\x51\x48\x48\x89\x41\x40\xc3 (1 found)
0x1400081ac: mov  [rcx+0x48], edx ; mov qword [rcx+0x40], rax ; ret ; \x89\x51\x48\x48\x89\x41\x40\xc3 (1 found)
0x14001b4cd: mov  [rcx-0x02], ebx ; ret ; \x89\x59\xfe\xc3 (1 found)
0x14001b516: mov  [rcx-0x02], ebx ; ret ; \x89\x59\xfe\xc3 (1 found)
0x14001b4cc: mov  [rcx-0x02], r11d ; ret ; \x44\x89\x59\xfe\xc3 (1 found)
0x14001b515: mov  [rcx-0x02], r11d ; ret ; \x44\x89\x59\xfe\xc3 (1 found)
0x14001b4bb: mov  [rcx-0x03], ebx ; mov byte [rcx-0x01], r11L ; ret ; \x89\x59\xfd\x44\x88\x59\xff\xc3 (1 found)
0x14001b4ff: mov  [rcx-0x03], ebx ; mov byte [rcx-0x01], r11L ; ret ; \x89\x59\xfd\x44\x88\x59\xff\xc3 (1 found)
0x14001b4ba: mov  [rcx-0x03], r11d ; mov byte [rcx-0x01], r11L ; ret ; \x44\x89\x59\xfd\x44\x88\x59\xff\xc3 (1 found)
0x14001b4fe: mov  [rcx-0x03], r11d ; mov byte [rcx-0x01], r11L ; ret ; \x44\x89\x59\xfd\x44\x88\x59\xff\xc3 (1 found)
0x14001b4f5: mov  [rcx-0x04], ebx ; ret ; \x89\x59\xfc\xc3 (1 found)
0x14001b4f4: mov  [rcx-0x04], r11d ; ret ; \x44\x89\x59\xfc\xc3 (1 found)
0x14001b4e5: mov  [rcx-0x05], ebx ; mov byte [rcx-0x01], r11L ; ret ; \x89\x59\xfb\x44\x88\x59\xff\xc3 (1 found)
0x14001b4e3: mov  [rcx-0x05], r11d ; mov byte [rcx-0x01], r11L ; ret ; \xf3\x44\x89\x59\xfb\x44\x88\x59\xff\xc3 (1 found)
0x14001b4e4: mov  [rcx-0x05], r11d ; mov byte [rcx-0x01], r11L ; ret ; \x44\x89\x59\xfb\x44\x88\x59\xff\xc3 (1 found)
0x14001b4c8: mov  [rcx-0x06], ebx ; mov word [rcx-0x02], r11w ; ret ; \x89\x59\xfa\x66\x44\x89\x59\xfe\xc3 (1 found)
0x14001b4c6: mov  [rcx-0x06], r11d ; mov word [rcx-0x02], r11w ; ret ; \xf2\x44\x89\x59\xfa\x66\x44\x89\x59\xfe\xc3 (1 found)
0x14001b4c7: mov  [rcx-0x06], r11d ; mov word [rcx-0x02], r11w ; ret ; \x44\x89\x59\xfa\x66\x44\x89\x59\xfe\xc3 (1 found)
0x14001b4b6: mov  [rcx-0x07], ebx ; mov word [rcx-0x03], r11w ; mov byte [rcx-0x01], r11L ; ret ; \x89\x59\xf9\x66\x44\x89\x59\xfd\x44\x88\x59\xff\xc3 (1 found)
0x14001b4b5: mov  [rcx-0x07], r11d ; mov word [rcx-0x03], r11w ; mov byte [rcx-0x01], r11L ; ret ; \x44\x89\x59\xf9\x66\x44\x89\x59\xfd\x44\x88\x59\xff\xc3 (1 found)
0x14001b51b: mov  [rcx-0x08], ebx ; ret ; \x89\x59\xf8\xc3 (1 found)
0x14001b508: mov  [rcx-0x09], ebx ; mov byte [rcx-0x01], r11L ; ret ; \x89\x59\xf7\x44\x88\x59\xff\xc3 (1 found)
0x14001b511: mov  [rcx-0x0A], ebx ; mov word [rcx-0x02], r11w ; ret ; \x89\x59\xf6\x66\x44\x89\x59\xfe\xc3 (1 found)
0x14001b4fa: mov  [rcx-0x0B], ebx ; mov word [rcx-0x03], r11w ; mov byte [rcx-0x01], r11L ; ret ; \x89\x59\xf5\x66\x44\x89\x59\xfd\x44\x88\x59\xff\xc3 (1 found)
0x14001b4f1: mov  [rcx-0x0C], ebx ; mov  [rcx-0x04], r11d ; ret ; \x89\x59\xf4\x44\x89\x59\xfc\xc3 (1 found)
0x14001b4e1: mov  [rcx-0x0D], ebx ; mov  [rcx-0x05], r11d ; mov byte [rcx-0x01], r11L ; ret ; \x89\x59\xf3\x44\x89\x59\xfb\x44\x88\x59\xff\xc3 (1 found)
0x14001b4c4: mov  [rcx-0x0E], ebx ; mov  [rcx-0x06], r11d ; mov word [rcx-0x02], r11w ; ret ; \x89\x59\xf2\x44\x89\x59\xfa\x66\x44\x89\x59\xfe\xc3 (1 found)
0x14001b4b2: mov  [rcx-0x0F], ebx ; mov  [rcx-0x07], r11d ; mov word [rcx-0x03], r11w ; mov byte [rcx-0x01], r11L ; ret ; \x89\x59\xf1\x44\x89\x59\xf9\x66\x44\x89\x59\xfd\x44\x88\x59\xff\xc3 (1 found)
0x14000de66: mov  [rcx], eax ; mov qword [rcx+0x08], rax ; mov qword [rcx+0x10], rax ; xor eax, eax ; ret ; \x89\x01\x48\x89\x41\x08\x48\x89\x41\x10\x33\xc0\xc3 (1 found)
0x140004c84: mov  [rcx], eax ; mov rax, rcx ; ret ; \x89\x01\x48\x8b\xc1\xc3 (1 found)
0x14000d7f3: mov  [rcx], eax ; xor eax, eax ; add rsp, 0x28 ; ret ; \x89\x01\x33\xc0\x48\x83\xc4\x28\xc3 (1 found)
0x14000e74f: mov  [rcx], ebx ; add rsp, 0x20 ; pop rbx ; ret ; \x89\x19\x48\x83\xc4\x20\x5b\xc3 (1 found)
0x140002f82: mov  [rdi+0x48], eax ; mov r8d,  [rbx+rcx*8+0x0C] ; mov cl, 0x01 ; add r8, r12 ; call r8 ; \x89\x47\x48\x44\x8b\x44\xcb\x0c\xb1\x01\x4d\x03\xc4\x41\xff\xd0 (1 found)
0x140019ea4: mov  [rdx+0x2C], 0x0000002A ; ret ; \xc7\x42\x2c\x2a\x00\x00\x00\xc3 (1 found)
0x140003d2c: mov  [rdx+rax], eax ; ret ; \x89\x04\x02\xc3 (1 found)
0x140003d2b: mov  [rdx+rax], r8d ; ret ; \x44\x89\x04\x02\xc3 (1 found)
0x140019e0f: mov  [rsp+0x08], eax ; ldmxcsr  [rsp+0x08] ; ret ; \x89\x44\x24\x08\x0f\xae\x54\x24\x08\xc3 (1 found)
0x140019e85: mov  [rsp+0x08], eax ; ldmxcsr  [rsp+0x08] ; ret ; \x89\x44\x24\x08\x0f\xae\x54\x24\x08\xc3 (1 found)
0x14001ab90: mov  [rsp+0x08], ecx ; ldmxcsr  [rsp+0x08] ; ret ; \x89\x4c\x24\x08\x0f\xae\x54\x24\x08\xc3 (1 found)
0x14001aa26: mov  [rsp+0x08], ecx ; movsd xmm0, qword [rsp+0x08] ; ret ; \x89\x4c\x24\x08\xf2\x0f\x10\x44\x24\x08\xc3 (1 found)
0x140003d13: mov  [rsp+0x40], ecx ; mov eax,  [rax+rcx+0x04] ; add rsp, 0x20 ; pop rbx ; ret ; \x89\x4c\x24\x40\x8b\x44\x08\x04\x48\x83\xc4\x20\x5b\xc3 (1 found)
0x14000b57c: mov al, 0x00 ; add byte [rax], al ; pop rdi ; pop rbx ; pop rbp ; ret ; \xb0\x00\x00\x00\x5f\x5b\x5d\xc3 (1 found)
0x14000b6a0: mov al, 0x00 ; add byte [rax], al ; pop rdi ; pop rbx ; pop rbp ; ret ; \xb0\x00\x00\x00\x5f\x5b\x5d\xc3 (1 found)
0x14000cbbd: mov al, 0x00 ; add byte [rax], al ; pop rdi ; pop rbx ; pop rbp ; ret ; \xb0\x00\x00\x00\x5f\x5b\x5d\xc3 (1 found)
0x140002230: mov al, 0x01 ; add rsp, 0x20 ; pop rbx ; ret ; \xb0\x01\x48\x83\xc4\x20\x5b\xc3 (1 found)
0x140002321: mov al, 0x01 ; add rsp, 0x20 ; pop rbx ; ret ; \xb0\x01\x48\x83\xc4\x20\x5b\xc3 (1 found)
0x14000341b: mov al, 0x01 ; add rsp, 0x20 ; pop rbx ; ret ; \xb0\x01\x48\x83\xc4\x20\x5b\xc3 (1 found)
0x14000df49: mov al, 0x01 ; add rsp, 0x20 ; pop rbx ; ret ; \xb0\x01\x48\x83\xc4\x20\x5b\xc3 (1 found)
0x14000df94: mov al, 0x01 ; add rsp, 0x20 ; pop rbx ; ret ; \xb0\x01\x48\x83\xc4\x20\x5b\xc3 (1 found)
0x14000e253: mov al, 0x01 ; add rsp, 0x20 ; pop rbx ; ret ; \xb0\x01\x48\x83\xc4\x20\x5b\xc3 (1 found)
0x14000fe51: mov al, 0x01 ; add rsp, 0x20 ; pop rbx ; ret ; \xb0\x01\x48\x83\xc4\x20\x5b\xc3 (1 found)
0x140010e61: mov al, 0x01 ; add rsp, 0x20 ; pop rbx ; ret ; \xb0\x01\x48\x83\xc4\x20\x5b\xc3 (1 found)
0x1400108a8: mov al, 0x01 ; add rsp, 0x20 ; pop rdi ; ret ; \xb0\x01\x48\x83\xc4\x20\x5f\xc3 (1 found)
0x1400158da: mov al, 0x01 ; add rsp, 0x20 ; pop rdi ; ret ; \xb0\x01\x48\x83\xc4\x20\x5f\xc3 (1 found)
0x1400021af: mov al, 0x01 ; add rsp, 0x28 ; ret ; \xb0\x01\x48\x83\xc4\x28\xc3 (1 found)
0x140002fe5: mov al, 0x01 ; add rsp, 0x28 ; ret ; \xb0\x01\x48\x83\xc4\x28\xc3 (1 found)
0x140002ffe: mov al, 0x01 ; add rsp, 0x28 ; ret ; \xb0\x01\x48\x83\xc4\x28\xc3 (1 found)
0x14000339b: mov al, 0x01 ; add rsp, 0x28 ; ret ; \xb0\x01\x48\x83\xc4\x28\xc3 (1 found)
0x14000d93e: mov al, 0x01 ; add rsp, 0x28 ; ret ; \xb0\x01\x48\x83\xc4\x28\xc3 (1 found)
0x14000deec: mov al, 0x01 ; add rsp, 0x28 ; ret ; \xb0\x01\x48\x83\xc4\x28\xc3 (1 found)
0x14000df05: mov al, 0x01 ; add rsp, 0x28 ; ret ; \xb0\x01\x48\x83\xc4\x28\xc3 (1 found)
0x14000dff0: mov al, 0x01 ; add rsp, 0x28 ; ret ; \xb0\x01\x48\x83\xc4\x28\xc3 (1 found)
0x14000e027: mov al, 0x01 ; add rsp, 0x28 ; ret ; \xb0\x01\x48\x83\xc4\x28\xc3 (1 found)
0x14001060e: mov al, 0x01 ; add rsp, 0x28 ; ret ; \xb0\x01\x48\x83\xc4\x28\xc3 (1 found)
0x140010633: mov al, 0x01 ; add rsp, 0x28 ; ret ; \xb0\x01\x48\x83\xc4\x28\xc3 (1 found)
0x140014039: mov al, 0x01 ; add rsp, 0x28 ; ret ; \xb0\x01\x48\x83\xc4\x28\xc3 (1 found)
0x1400090a6: mov al, 0x01 ; add rsp, 0x38 ; ret ; \xb0\x01\x48\x83\xc4\x38\xc3 (1 found)
0x140009256: mov al, 0x01 ; add rsp, 0x38 ; ret ; \xb0\x01\x48\x83\xc4\x38\xc3 (1 found)
0x140009406: mov al, 0x01 ; add rsp, 0x38 ; ret ; \xb0\x01\x48\x83\xc4\x38\xc3 (1 found)
0x14000a265: mov al, 0x01 ; mov rbx, qword [rsp+0x30] ; mov rsi, qword [rsp+0x38] ; add rsp, 0x20 ; pop rdi ; ret ; \x43\x48\xb0\x01\x48\x8b\x5c\x24\x30\x48\x8b\x74\x24\x38\x48\x83\xc4\x20\x5f\xc3 (1 found)
0x14000a266: mov al, 0x01 ; mov rbx, qword [rsp+0x30] ; mov rsi, qword [rsp+0x38] ; add rsp, 0x20 ; pop rdi ; ret ; \x48\xb0\x01\x48\x8b\x5c\x24\x30\x48\x8b\x74\x24\x38\x48\x83\xc4\x20\x5f\xc3 (1 found)
0x14000a267: mov al, 0x01 ; mov rbx, qword [rsp+0x30] ; mov rsi, qword [rsp+0x38] ; add rsp, 0x20 ; pop rdi ; ret ; \xb0\x01\x48\x8b\x5c\x24\x30\x48\x8b\x74\x24\x38\x48\x83\xc4\x20\x5f\xc3 (1 found)
0x14000a2e5: mov al, 0x01 ; mov rbx, qword [rsp+0x30] ; mov rsi, qword [rsp+0x38] ; add rsp, 0x20 ; pop rdi ; ret ; \x43\x48\xb0\x01\x48\x8b\x5c\x24\x30\x48\x8b\x74\x24\x38\x48\x83\xc4\x20\x5f\xc3 (1 found)
0x14000a2e6: mov al, 0x01 ; mov rbx, qword [rsp+0x30] ; mov rsi, qword [rsp+0x38] ; add rsp, 0x20 ; pop rdi ; ret ; \x48\xb0\x01\x48\x8b\x5c\x24\x30\x48\x8b\x74\x24\x38\x48\x83\xc4\x20\x5f\xc3 (1 found)
0x14000a2e7: mov al, 0x01 ; mov rbx, qword [rsp+0x30] ; mov rsi, qword [rsp+0x38] ; add rsp, 0x20 ; pop rdi ; ret ; \xb0\x01\x48\x8b\x5c\x24\x30\x48\x8b\x74\x24\x38\x48\x83\xc4\x20\x5f\xc3 (1 found)
0x14000a365: mov al, 0x01 ; mov rbx, qword [rsp+0x30] ; mov rsi, qword [rsp+0x38] ; add rsp, 0x20 ; pop rdi ; ret ; \x43\x48\xb0\x01\x48\x8b\x5c\x24\x30\x48\x8b\x74\x24\x38\x48\x83\xc4\x20\x5f\xc3 (1 found)
0x14000a366: mov al, 0x01 ; mov rbx, qword [rsp+0x30] ; mov rsi, qword [rsp+0x38] ; add rsp, 0x20 ; pop rdi ; ret ; \x48\xb0\x01\x48\x8b\x5c\x24\x30\x48\x8b\x74\x24\x38\x48\x83\xc4\x20\x5f\xc3 (1 found)
0x14000a367: mov al, 0x01 ; mov rbx, qword [rsp+0x30] ; mov rsi, qword [rsp+0x38] ; add rsp, 0x20 ; pop rdi ; ret ; \xb0\x01\x48\x8b\x5c\x24\x30\x48\x8b\x74\x24\x38\x48\x83\xc4\x20\x5f\xc3 (1 found)
0x14000afb0: mov al, 0x01 ; mov rbx, qword [rsp+0x30] ; mov rsi, qword [rsp+0x38] ; add rsp, 0x20 ; pop rdi ; ret ; \x43\x48\xb0\x01\x48\x8b\x5c\x24\x30\x48\x8b\x74\x24\x38\x48\x83\xc4\x20\x5f\xc3 (1 found)
0x14000afb1: mov al, 0x01 ; mov rbx, qword [rsp+0x30] ; mov rsi, qword [rsp+0x38] ; add rsp, 0x20 ; pop rdi ; ret ; \x48\xb0\x01\x48\x8b\x5c\x24\x30\x48\x8b\x74\x24\x38\x48\x83\xc4\x20\x5f\xc3 (1 found)
0x14000afb2: mov al, 0x01 ; mov rbx, qword [rsp+0x30] ; mov rsi, qword [rsp+0x38] ; add rsp, 0x20 ; pop rdi ; ret ; \xb0\x01\x48\x8b\x5c\x24\x30\x48\x8b\x74\x24\x38\x48\x83\xc4\x20\x5f\xc3 (1 found)
0x14000b04c: mov al, 0x01 ; mov rbx, qword [rsp+0x30] ; mov rsi, qword [rsp+0x38] ; add rsp, 0x20 ; pop rdi ; ret ; \x43\x48\xb0\x01\x48\x8b\x5c\x24\x30\x48\x8b\x74\x24\x38\x48\x83\xc4\x20\x5f\xc3 (1 found)
0x14000b04d: mov al, 0x01 ; mov rbx, qword [rsp+0x30] ; mov rsi, qword [rsp+0x38] ; add rsp, 0x20 ; pop rdi ; ret ; \x48\xb0\x01\x48\x8b\x5c\x24\x30\x48\x8b\x74\x24\x38\x48\x83\xc4\x20\x5f\xc3 (1 found)
0x14000b04e: mov al, 0x01 ; mov rbx, qword [rsp+0x30] ; mov rsi, qword [rsp+0x38] ; add rsp, 0x20 ; pop rdi ; ret ; \xb0\x01\x48\x8b\x5c\x24\x30\x48\x8b\x74\x24\x38\x48\x83\xc4\x20\x5f\xc3 (1 found)
0x14000b0e8: mov al, 0x01 ; mov rbx, qword [rsp+0x30] ; mov rsi, qword [rsp+0x38] ; add rsp, 0x20 ; pop rdi ; ret ; \x43\x48\xb0\x01\x48\x8b\x5c\x24\x30\x48\x8b\x74\x24\x38\x48\x83\xc4\x20\x5f\xc3 (1 found)
0x14000b0e9: mov al, 0x01 ; mov rbx, qword [rsp+0x30] ; mov rsi, qword [rsp+0x38] ; add rsp, 0x20 ; pop rdi ; ret ; \x48\xb0\x01\x48\x8b\x5c\x24\x30\x48\x8b\x74\x24\x38\x48\x83\xc4\x20\x5f\xc3 (1 found)
0x14000b0ea: mov al, 0x01 ; mov rbx, qword [rsp+0x30] ; mov rsi, qword [rsp+0x38] ; add rsp, 0x20 ; pop rdi ; ret ; \xb0\x01\x48\x8b\x5c\x24\x30\x48\x8b\x74\x24\x38\x48\x83\xc4\x20\x5f\xc3 (1 found)
0x14001588a: mov al, 0x01 ; mov rbx, qword [rsp+0x30] ; mov rsi, qword [rsp+0x38] ; add rsp, 0x20 ; pop rdi ; ret ; \xb0\x01\x48\x8b\x5c\x24\x30\x48\x8b\x74\x24\x38\x48\x83\xc4\x20\x5f\xc3 (1 found)
0x14000ada2: mov al, 0x01 ; mov rbx, qword [rsp+0x40] ; add rsp, 0x30 ; pop rdi ; ret ; \xb0\x01\x48\x8b\x5c\x24\x40\x48\x83\xc4\x30\x5f\xc3 (1 found)
0x14000ae5a: mov al, 0x01 ; mov rbx, qword [rsp+0x40] ; add rsp, 0x30 ; pop rdi ; ret ; \xb0\x01\x48\x8b\x5c\x24\x40\x48\x83\xc4\x30\x5f\xc3 (1 found)
0x14000af12: mov al, 0x01 ; mov rbx, qword [rsp+0x40] ; add rsp, 0x30 ; pop rdi ; ret ; \xb0\x01\x48\x8b\x5c\x24\x40\x48\x83\xc4\x30\x5f\xc3 (1 found)
0x14000245c: mov al, 0x01 ; ret ; \xb0\x01\xc3 (1 found)
0x140005c58: mov al, 0x01 ; ret ; \xb0\x01\xc3 (1 found)
0x14000d948: mov al, 0x01 ; ret ; \xb0\x01\xc3 (1 found)
0x14000deca: mov al, 0x01 ; ret ; \xb0\x01\xc3 (1 found)
0x14000def4: mov al, 0x01 ; ret ; \xb0\x01\xc3 (1 found)
0x14000def8: mov al, 0x01 ; ret ; \xb0\x01\xc3 (1 found)
0x14000df0c: mov al, 0x01 ; ret ; \xb0\x01\xc3 (1 found)
0x14000df10: mov al, 0x01 ; ret ; \xb0\x01\xc3 (1 found)
0x14000dff8: mov al, 0x01 ; ret ; \xb0\x01\xc3 (1 found)
0x140010e24: mov al, 0x01 ; ret ; \xb0\x01\xc3 (1 found)
0x140015804: mov al, 0x01 ; ret ; \xb0\x01\xc3 (1 found)
0x140010867: mov al, bl ; add rsp, 0x20 ; pop rbx ; ret ; \x8a\xc3\x48\x83\xc4\x20\x5b\xc3 (1 found)
0x140007874: mov al, byte [0xC02B4C08245C8B48] ; sar r8, 1 ; add rax, 0x02 ; mov  [r9+0x48], r8d ; mov qword [r9+0x40], rax ; ret ; \xa0\x48\x8b\x5c\x24\x08\x4c\x2b\xc0\x49\xd1\xf8\x48\x83\xc0\x02\x45\x89\x41\x48\x49\x89\x41\x40\xc3 (1 found)
0x140007934: mov al, byte [0xC02B4C08245C8B48] ; sar r8, 1 ; add rax, 0x02 ; mov  [r9+0x48], r8d ; mov qword [r9+0x40], rax ; ret ; \xa0\x48\x8b\x5c\x24\x08\x4c\x2b\xc0\x49\xd1\xf8\x48\x83\xc0\x02\x45\x89\x41\x48\x49\x89\x41\x40\xc3 (1 found)
0x1400079f4: mov al, byte [0xC02B4C08245C8B48] ; sar r8, 1 ; add rax, 0x02 ; mov  [r9+0x48], r8d ; mov qword [r9+0x40], rax ; ret ; \xa0\x48\x8b\x5c\x24\x08\x4c\x2b\xc0\x49\xd1\xf8\x48\x83\xc0\x02\x45\x89\x41\x48\x49\x89\x41\x40\xc3 (1 found)
0x140003208: mov al, byte [0xFFF52E158D480001] ; dec  [rax+0x3B] ; retn 0x2374 ; \xa0\x01\x00\x48\x8d\x15\x2e\xf5\xff\xff\x48\x3b\xc2\x74\x23 (1 found)
0x14000ccac: mov bh, 0x01 ; movzx ecx, word [rdx] ; sub eax, ecx ; ret ; \xb7\x01\x0f\xb7\x0a\x2b\xc1\xc3 (1 found)
0x140011274: mov bh, 0x02 ; add byte [rax+0x38], al ; cmp  [rsi+rcx-0x01], esi ; retn 0xFF49 ; \xb7\x02\x00\x40\x38\x39\x74\x0e\xff\xc2\x49\xff (1 found)
0x1400129d8: mov bh, 0x02 ; add byte [rax-0x74C307B4], cl ; retn 0x2B48 ; \xb7\x02\x00\x88\x4c\xf8\x3c\x8b\xc2\x48\x2b (1 found)
0x14001b899: mov bh, 0x0A ; mov word [rax], cx ; ret ; \xb7\x0a\x66\x89\x08\xc3 (1 found)
0x14001b8d0: mov bh, 0x0A ; movzx r8d, byte [rdx+0x02] ; mov word [rax], cx ; mov byte [rax+0x02], r8L ; ret ; \xb7\x0a\x44\x0f\xb6\x42\x02\x66\x89\x08\x44\x88\x40\x02\xc3 (1 found)
0x14000ccaf: mov bh, 0x0A ; sub eax, ecx ; ret ; \xb7\x0a\x2b\xc1\xc3 (1 found)
0x14001b924: mov bh, 0x42 ; add al, 0x89 ; or byte [rsi+0x44], ah ; mov  [rax+0x04], eax ; ret ; \xb7\x42\x04\x89\x08\x66\x44\x89\x40\x04\xc3 (1 found)
0x14001b8c0: mov bh, 0x4A ; or al, 0x4C ; mov  [rax], eax ; mov  [rax+0x08], ecx ; mov word [rax+0x0C], r9w ; ret ; \xb7\x4a\x0c\x4c\x89\x00\x89\x48\x08\x66\x44\x89\x48\x0c\xc3 (1 found)
0x14001b8fa: mov bh, 0x4A ; or byte [rcx+rcx*4+0x00], cl ; mov word [rax+0x08], cx ; ret ; \xb7\x4a\x08\x4c\x89\x00\x66\x89\x48\x08\xc3 (1 found)
0x14001b884: mov bh, 0x4A ; or byte [rdi+rcx-0x4A], al ; or cl, byte [rcx+r9*4+0x00] ; mov word [rax+0x08], cx ; mov byte [rax+0x0A], r9L ; ret ; \xb7\x4a\x08\x44\x0f\xb6\x4a\x0a\x4c\x89\x00\x66\x89\x48\x08\x44\x88\x48\x0a\xc3 (1 found)
0x14001104e: mov bh, 0xC2 ; add rsp, 0x58 ; ret ; \xb7\xc2\x48\x83\xc4\x58\xc3 (1 found)
0x140017caa: mov bh, 0xC6 ; mov rbx, qword [rsp+0x30] ; mov rsi, qword [rsp+0x38] ; add rsp, 0x20 ; pop rdi ; ret ; \xb7\xc6\x48\x8b\x5c\x24\x30\x48\x8b\x74\x24\x38\x48\x83\xc4\x20\x5f\xc3 (1 found)
0x140019e0b: mov bh, 0xC8 ; or eax, ecx ; mov  [rsp+0x08], eax ; ldmxcsr  [rsp+0x08] ; ret ; \xb7\xc8\x0b\xc1\x89\x44\x24\x08\x0f\xae\x54\x24\x08\xc3 (1 found)
0x14001597a: mov bh, bh ; call qword [rax+0x7B058B48] ; \x88\xff\xff\x90\x48\x8b\x05\x7b (1 found)
0x140015936: mov bh, bh ; call qword [rax-0x40FA74B8] ; \x88\xff\xff\x90\x48\x8b\x05\xbf (1 found)
0x14001599b: mov bh, bh ; dec  [rax-0x75] ; ret ; \x88\xff\xff\x48\x8b\xc3 (1 found)
0x1400134ac: mov bl, 0xFF ; dec  [rax-0x7D] ; ret ; \xb3\xff\xff\x48\x83\xc3 (1 found)
0x140011271: mov bx, cs ; sal byte [rdi+0x38400002], 1 ; cmp  [rsi+rcx-0x01], esi ; retn 0xFF49 ; \x8c\xcb\xd0\xb7\x02\x00\x40\x38\x39\x74\x0e\xff\xc2\x49\xff (1 found)
0x140002229: mov byte [0x000000014002B0B1], 0x01 ; mov al, 0x01 ; add rsp, 0x20 ; pop rbx ; ret ; \xc6\x05\x81\x8e\x02\x00\x01\xb0\x01\x48\x83\xc4\x20\x5b\xc3 (1 found)
0x140005669: mov byte [0x000000014002B290], 0x01 ; mov rax, qword [rbx+0x10] ; mov byte [rax], 0x01 ; add rsp, 0x30 ; pop rbx ; ret ; \xc6\x05\x20\x5c\x02\x00\x01\x48\x8b\x43\x10\xc6\x00\x01\x48\x83\xc4\x30\x5b\xc3 (1 found)
0x140014032: mov byte [0x000000014002BDA4], 0x01 ; mov al, 0x01 ; add rsp, 0x28 ; ret ; \xc6\x05\x6b\x7d\x01\x00\x01\xb0\x01\x48\x83\xc4\x28\xc3 (1 found)
0x140002397: mov byte [0x3B4800002B992DDF], al ; ret ; \xa2\xdf\x2d\x99\x2b\x00\x00\x48\x3b\xc3 (1 found)
0x140002402: mov byte [0x3B4800002B992DDF], al ; ret ; \xa2\xdf\x2d\x99\x2b\x00\x00\x48\x3b\xc3 (1 found)
0x14000d9b6: mov byte [0x40245C8B48000008], al ; mov rsi, qword [rsp+0x48] ; add rsp, 0x30 ; pop rdi ; ret ; \xa2\x08\x00\x00\x48\x8b\x5c\x24\x40\x48\x8b\x74\x24\x48\x48\x83\xc4\x30\x5f\xc3 (1 found)
0x140002c72: mov byte [0x4808245C8B48C033], al ; mov edi,  [rsp+0x10] ; ret ; \xa2\x33\xc0\x48\x8b\x5c\x24\x08\x48\x8b\x7c\x24\x10\xc3 (1 found)
0x140003095: mov byte [0xCCC348C483480001], al ; int3 ; int3 ; jmp rdx ; \xa2\x01\x00\x48\x83\xc4\x48\xc3\xcc\xcc\xcc\x48\xff\xe2 (1 found)
0x14001b8db: mov byte [rax+0x02], al ; ret ; \x88\x40\x02\xc3 (1 found)
0x14001b8da: mov byte [rax+0x02], r8L ; ret ; \x44\x88\x40\x02\xc3 (1 found)
0x14001b939: mov byte [rax+0x04], al ; ret ; \x88\x40\x04\xc3 (1 found)
0x14001b938: mov byte [rax+0x04], r8L ; ret ; \x44\x88\x40\x04\xc3 (1 found)
0x14001b8b4: mov byte [rax+0x06], cl ; ret ; \x88\x48\x06\xc3 (1 found)
0x14001b8b3: mov byte [rax+0x06], r9L ; ret ; \x44\x88\x48\x06\xc3 (1 found)
0x14001b90f: mov byte [rax+0x08], cl ; ret ; \x88\x48\x08\xc3 (1 found)
0x14001b894: mov byte [rax+0x0A], cl ; ret ; \x88\x48\x0a\xc3 (1 found)
0x14001b893: mov byte [rax+0x0A], r9L ; ret ; \x44\x88\x48\x0a\xc3 (1 found)
0x14001b8f2: mov byte [rax+0x0C], cl ; ret ; \x88\x48\x0c\xc3 (1 found)
0x14001b8f1: mov byte [rax+0x0C], r9L ; ret ; \x44\x88\x48\x0c\xc3 (1 found)
0x14001b87c: mov byte [rax+0x0E], dl ; ret ; \x88\x50\x0e\xc3 (1 found)
0x14001b87b: mov byte [rax+0x0E], r10L ; ret ; \x44\x88\x50\x0e\xc3 (1 found)
0x140005674: mov byte [rax], 0x01 ; add rsp, 0x30 ; pop rbx ; ret ; \xc6\x00\x01\x48\x83\xc4\x30\x5b\xc3 (1 found)
0x140013c40: mov byte [rax], al ; add  [rax], eax ; add byte [rax-0x7D], cl ; retn 0x4802 ; \x88\x00\x01\x00\x00\x48\x83\xc2\x02\x48 (1 found)
0x14000fe05: mov byte [rax], cl ; inc qword [rdx] ; movzx eax, cl ; ret ; \x88\x08\x48\xff\x02\x0f\xb6\xc1\xc3 (1 found)
0x14001b947: mov byte [rax], cl ; ret ; \x88\x08\xc3 (1 found)
0x1400054cb: mov byte [rbx+0x08], 0x00 ; add rsp, 0x20 ; pop rbx ; ret ; \xc6\x43\x08\x00\x48\x83\xc4\x20\x5b\xc3 (1 found)
0x14000e770: mov byte [rbx+0x30], 0x01 ; add rsp, 0x20 ; pop rbx ; ret ; \xc6\x43\x30\x01\x48\x83\xc4\x20\x5b\xc3 (1 found)
0x14000ad9e: mov byte [rbx+0x38], 0x01 ; mov al, 0x01 ; mov rbx, qword [rsp+0x40] ; add rsp, 0x30 ; pop rdi ; ret ; \xc6\x43\x38\x01\xb0\x01\x48\x8b\x5c\x24\x40\x48\x83\xc4\x30\x5f\xc3 (1 found)
0x14000ae56: mov byte [rbx+0x38], 0x01 ; mov al, 0x01 ; mov rbx, qword [rsp+0x40] ; add rsp, 0x30 ; pop rdi ; ret ; \xc6\x43\x38\x01\xb0\x01\x48\x8b\x5c\x24\x40\x48\x83\xc4\x30\x5f\xc3 (1 found)
0x14000af0e: mov byte [rbx+0x38], 0x01 ; mov al, 0x01 ; mov rbx, qword [rsp+0x40] ; add rsp, 0x30 ; pop rdi ; ret ; \xc6\x43\x38\x01\xb0\x01\x48\x8b\x5c\x24\x40\x48\x83\xc4\x30\x5f\xc3 (1 found)
0x14001b4bf: mov byte [rcx-0x01], bl ; ret ; \x88\x59\xff\xc3 (1 found)
0x14001b4e9: mov byte [rcx-0x01], bl ; ret ; \x88\x59\xff\xc3 (1 found)
0x14001b503: mov byte [rcx-0x01], bl ; ret ; \x88\x59\xff\xc3 (1 found)
0x14001b50c: mov byte [rcx-0x01], bl ; ret ; \x88\x59\xff\xc3 (1 found)
0x14001b4be: mov byte [rcx-0x01], r11L ; ret ; \x44\x88\x59\xff\xc3 (1 found)
0x14001b4e8: mov byte [rcx-0x01], r11L ; ret ; \x44\x88\x59\xff\xc3 (1 found)
0x14001b502: mov byte [rcx-0x01], r11L ; ret ; \x44\x88\x59\xff\xc3 (1 found)
0x14001b50b: mov byte [rcx-0x01], r11L ; ret ; \x44\x88\x59\xff\xc3 (1 found)
0x14000b2c2: mov byte [rdi+0x28], 0x02 ; mov rbx, qword [rsp+0x30] ; mov rsi, qword [rsp+0x38] ; add rsp, 0x20 ; pop rdi ; ret ; \xc6\x47\x28\x02\x48\x8b\x5c\x24\x30\x48\x8b\x74\x24\x38\x48\x83\xc4\x20\x5f\xc3 (1 found)
0x140019ea0: mov byte [rdx+0x30], 0x01 ; mov  [rdx+0x2C], 0x0000002A ; ret ; \xc6\x42\x30\x01\xc7\x42\x2c\x2a\x00\x00\x00\xc3 (1 found)
0x14001710f: mov ch, 0x10 ; add eax, 0xE1E90000 ; add byte [rax], al ; add byte [rbx], dh ; fild  [rbp-0x75] ; retn 0x8545 ; \xb5\x10\x05\x00\x00\xe9\xe1\x00\x00\x00\x33\xdb\x45\x8b\xc2\x45\x85 (1 found)
0x140002f8a: mov cl, 0x01 ; add r8, r12 ; call r8 ; \xb1\x01\x4d\x03\xc4\x41\xff\xd0 (1 found)
0x140002134: mov cl, 0x48 ; add esp, 0x40 ; pop rdi ; pop rsi ; pop rbx ; ret ; \xb1\x48\x83\xc4\x40\x5f\x5e\x5b\xc3 (1 found)
0x140013602: mov cl, 0xFF ; dec  [rax-0x7D] ; ret ; \xb1\xff\xff\x48\x83\xc3 (1 found)
0x14000586c: mov cl, al ; ror rdx, cl ; xor rdx, r8 ; mov qword [0x000000014002B288], rdx ; add rsp, 0x28 ; ret ; \x8a\xc8\x48\xd3\xca\x49\x33\xd0\x48\x89\x15\x0d\x5a\x02\x00\x48\x83\xc4\x28\xc3 (1 found)
0x140019b22: mov cl, byte [rdi] ; add byte [rax], al ; vmovdqa xmm6,  [rsp+0x20] ; add rsp, 0x58 ; ret ; \x8a\x0f\x00\x00\xc5\xf9\x6f\x74\x24\x20\x48\x83\xc4\x58\xc3 (1 found)
0x140017877: mov cs, word [rax-0x7D] ; clc ; add al, 0x75 ; add ecx,  [rax-0x01] ; ret ; \x8e\x48\x83\xf8\x04\x75\x03\x48\xff\xc3 (1 found)
0x14001b945: mov dh, 0x0A ; mov byte [rax], cl ; ret ; \xb6\x0a\x88\x08\xc3 (1 found)
0x14001b8e8: mov dh, 0x4A ; or al, 0x4C ; mov  [rax], eax ; mov  [rax+0x08], ecx ; mov byte [rax+0x0C], r9L ; ret ; \xb6\x4a\x0c\x4c\x89\x00\x89\x48\x08\x44\x88\x48\x0c\xc3 (1 found)
0x14001b909: mov dh, 0x4A ; or byte [rcx+rcx*4+0x00], cl ; mov byte [rax+0x08], cl ; ret ; \xb6\x4a\x08\x4c\x89\x00\x88\x48\x08\xc3 (1 found)
0x14001b889: mov dh, 0x4A ; or cl, byte [rcx+rcx*4+0x00] ; mov word [rax+0x08], cx ; mov byte [rax+0x0A], r9L ; ret ; \xb6\x4a\x0a\x4c\x89\x00\x66\x89\x48\x08\x44\x88\x48\x0a\xc3 (1 found)
0x14000d872: mov dh, 0x4C ; retn 0x4638 ; \xb6\x4c\xc2\x38\x46 (1 found)
0x14000fe0b: mov dh, 0xC1 ; ret ; \xb6\xc1\xc3 (1 found)
0x140017bdd: mov dh, 0xC6 ; mov rbx, qword [rsp+0x30] ; mov rsi, qword [rsp+0x38] ; add rsp, 0x20 ; pop rdi ; ret ; \xb6\xc6\x48\x8b\x5c\x24\x30\x48\x8b\x74\x24\x38\x48\x83\xc4\x20\x5f\xc3 (1 found)
0x1400134e0: mov dl, 0xFF ; dec  [rax-0x7D] ; ret ; \xb2\xff\xff\x48\x83\xc3 (1 found)
0x14001355c: mov dl, 0xFF ; dec  [rax-0x7D] ; ret ; \xb2\xff\xff\x48\x83\xc3 (1 found)
0x140015c17: mov eax,  [0x000000014001D308] ; call r8 ; \x8b\x05\xeb\x76\x00\x00\x41\xff\xd0 (1 found)
0x14000de5f: mov eax,  [0x000000014002A000] ; mov qword [rcx], rax ; mov qword [rcx+0x08], rax ; mov qword [rcx+0x10], rax ; xor eax, eax ; ret ; \x8b\x05\x9b\xc1\x01\x00\x48\x89\x01\x48\x89\x41\x08\x48\x89\x41\x10\x33\xc0\xc3 (1 found)
0x14000cf3c: mov eax,  [0x000000014002B2AC] ; ret ; \x8b\x05\x6a\xe3\x01\x00\xc3 (1 found)
0x14000d698: mov eax,  [0x000000014002B4D8] ; add rsp, 0x28 ; ret ; \x8b\x05\x3a\xde\x01\x00\x48\x83\xc4\x28\xc3 (1 found)
0x14000d724: mov eax,  [0x000000014002B4D8] ; mov qword [0x000000014002B4E0], rax ; add rsp, 0x28 ; ret ; \x8b\x05\xae\xdd\x01\x00\x48\x89\x05\xaf\xdd\x01\x00\x48\x83\xc4\x28\xc3 (1 found)
0x14000da74: mov eax,  [0x000000014002B524] ; nop ; ret ; \x8b\x05\xaa\xda\x01\x00\x90\xc3 (1 found)
0x14000d7ec: mov eax,  [0x000000014002BDA8] ; nop ; mov  [rcx], eax ; xor eax, eax ; add rsp, 0x28 ; ret ; \x8b\x05\xb6\xe5\x01\x00\x90\x89\x01\x33\xc0\x48\x83\xc4\x28\xc3 (1 found)
0x14000e27a: mov eax,  [0x00000030] ; mov rcx, qword [rax+0x60] ; mov eax,  [rcx+0x000000BC] ; shr eax, 0x08 ; and al, 0x01 ; ret ; \x8b\x04\x25\x30\x00\x00\x00\x48\x8b\x48\x60\x8b\x81\xbc\x00\x00\x00\xc1\xe8\x08\x24\x01\xc3 (1 found)
0x14000e296: mov eax,  [0x00000030] ; mov rcx, qword [rax+0x60] ; mov rax, qword [rcx+0x20] ; mov eax,  [rax+0x08] ; shr eax, 0x1F ; ret ; \x8b\x04\x25\x30\x00\x00\x00\x48\x8b\x48\x60\x48\x8b\x41\x20\x8b\x40\x08\xc1\xe8\x1f\xc3 (1 found)
0x14001ba61: mov eax,  [0x00C18148000000E0] ; add  [rax], eax ; add byte [rax-0x007F], cl ; retn 0x0100 ; \xa1\xe0\x00\x00\x00\x48\x81\xc1\x00\x01\x00\x00\x48\x81\xc2\x00\x01 (1 found)
0x14001bb91: mov eax,  [0x00C18148000000E0] ; add  [rax], eax ; add byte [rax-0x007F], cl ; retn 0x0100 ; \xa1\xe0\x00\x00\x00\x48\x81\xc1\x00\x01\x00\x00\x48\x81\xc2\x00\x01 (1 found)
0x140013a27: mov eax,  [0x48C38BFD000003A8] ; add esp, 0x40 ; pop rbx ; ret ; \xa1\xa8\x03\x00\x00\xfd\x8b\xc3\x48\x83\xc4\x40\x5b\xc3 (1 found)
0x14001b705: mov eax,  [0x7FFEC5E001447F7E] ; add byte [rdi], cl ; scasb ; clc ; vzeroupper ; ret ; \xa1\x7e\x7f\x44\x01\xe0\xc5\xfe\x7f\x00\x0f\xae\xf8\xc5\xf8\x77\xc3 (1 found)
0x14001bc50: mov eax,  [0x7FFEC5E0016C7F7E] ; add byte [rdi], cl ; scasb ; clc ; vzeroupper ; ret ; \xa1\x7e\x7f\x6c\x01\xe0\xc5\xfe\x7f\x00\x0f\xae\xf8\xc5\xf8\x77\xc3 (1 found)
0x140011047: mov eax,  [0xC2B70FFD000003A8] ; add rsp, 0x58 ; ret ; \xa1\xa8\x03\x00\x00\xfd\x0f\xb7\xc2\x48\x83\xc4\x58\xc3 (1 found)
0x14000e707: mov eax,  [r9+rax*8+0x04] ; ret ; \x41\x8b\x44\xc1\x04\xc3 (1 found)
0x14000e2a5: mov eax,  [rax+0x08] ; shr eax, 0x1F ; ret ; \x8b\x40\x08\xc1\xe8\x1f\xc3 (1 found)
0x140003bee: mov eax,  [rax+0x60] ; add rsp, 0x28 ; ret ; \x8b\x40\x60\x48\x83\xc4\x28\xc3 (1 found)
0x140003c02: mov eax,  [rax+0x68] ; add rsp, 0x28 ; ret ; \x8b\x40\x68\x48\x83\xc4\x28\xc3 (1 found)
0x140003dc4: mov eax,  [rax+r11+0x04] ; add rsp, 0x20 ; pop rbx ; ret ; \x42\x8b\x44\x18\x04\x48\x83\xc4\x20\x5b\xc3 (1 found)
0x140003dc5: mov eax,  [rax+rbx+0x04] ; add rsp, 0x20 ; pop rbx ; ret ; \x8b\x44\x18\x04\x48\x83\xc4\x20\x5b\xc3 (1 found)
0x140003d16: mov eax,  [rax+rcx+0x04] ; add rsp, 0x20 ; pop rbx ; ret ; \x40\x8b\x44\x08\x04\x48\x83\xc4\x20\x5b\xc3 (1 found)
0x140003d17: mov eax,  [rax+rcx+0x04] ; add rsp, 0x20 ; pop rbx ; ret ; \x8b\x44\x08\x04\x48\x83\xc4\x20\x5b\xc3 (1 found)
0x140005473: mov eax,  [rax] ; add byte [rax-0x75], cl ; ret ; \x8b\x00\x00\x48\x8b\xc3 (1 found)
0x14001c145: mov eax,  [rbp+0x20] ; add rsp, 0x20 ; pop rbp ; ret ; \x8b\x45\x20\x48\x83\xc4\x20\x5d\xc3 (1 found)
0x14001bf71: mov eax,  [rbp+0x20] ; add rsp, 0x28 ; pop rbp ; pop rbx ; ret ; \x8b\x45\x20\x48\x83\xc4\x28\x5d\x5b\xc3 (1 found)
0x14000bca0: mov eax,  [rbp+0x20] ; cmovne eax,  [rbp+0x28] ; add rsp, 0x40 ; pop rbp ; ret ; \x8b\x45\x20\x0f\x45\x45\x28\x48\x83\xc4\x40\x5d\xc3 (1 found)
0x14001c018: mov eax,  [rbp+0x44] ; add rsp, 0x40 ; pop rdi ; pop rbp ; pop rbx ; ret ; \x8b\x45\x44\x48\x83\xc4\x40\x5f\x5d\x5b\xc3 (1 found)
0x140005671: mov eax,  [rbx+0x10] ; mov byte [rax], 0x01 ; add rsp, 0x30 ; pop rbx ; ret ; \x8b\x43\x10\xc6\x00\x01\x48\x83\xc4\x30\x5b\xc3 (1 found)
0x140002f86: mov eax,  [rbx+rcx*8+0x0C] ; mov cl, 0x01 ; add r8, r12 ; call r8 ; \x8b\x44\xcb\x0c\xb1\x01\x4d\x03\xc4\x41\xff\xd0 (1 found)
0x140002e3a: mov eax,  [rbx+rcx*8+0x0C] ; mov rdx, r13 ; add rax, r12 ; lea rcx, qword [rsp+0x30] ; call rax ; \x8b\x44\xcb\x0c\x49\x8b\xd5\x49\x03\xc4\x48\x8d\x4c\x24\x30\xff\xd0 (1 found)
0x14000e285: mov eax,  [rcx+0x000000BC] ; shr eax, 0x08 ; and al, 0x01 ; ret ; \x8b\x81\xbc\x00\x00\x00\xc1\xe8\x08\x24\x01\xc3 (1 found)
0x14000fc4a: mov eax,  [rcx+0x18] ; nop ; add rsp, 0x28 ; ret ; \x8b\x41\x18\x90\x48\x83\xc4\x28\xc3 (1 found)
0x14000e2a2: mov eax,  [rcx+0x20] ; mov eax,  [rax+0x08] ; shr eax, 0x1F ; ret ; \x8b\x41\x20\x8b\x40\x08\xc1\xe8\x1f\xc3 (1 found)
0x14000e708: mov eax,  [rcx+rax*8+0x04] ; ret ; \x8b\x44\xc1\x04\xc3 (1 found)
0x140003d29: mov eax,  [rcx] ; mov  [rdx+rax], r8d ; ret ; \x8b\x01\x44\x89\x04\x02\xc3 (1 found)
0x1400084b9: mov eax,  [rdi] ; add rsp, 0x20 ; pop rdi ; ret ; \x8b\x07\x48\x83\xc4\x20\x5f\xc3 (1 found)
0x14000fe03: mov eax,  [rdx] ; mov byte [rax], cl ; inc qword [rdx] ; movzx eax, cl ; ret ; \x8b\x02\x88\x08\x48\xff\x02\x0f\xb6\xc1\xc3 (1 found)
0x14001b914: mov eax,  [rdx] ; mov ecx,  [rdx+0x08] ; mov qword [rax], r8 ; mov  [rax+0x08], ecx ; ret ; \x8b\x02\x8b\x4a\x08\x4c\x89\x00\x89\x48\x08\xc3 (1 found)
0x14001b906: mov eax,  [rdx] ; movzx ecx, byte [rdx+0x08] ; mov qword [rax], r8 ; mov byte [rax+0x08], cl ; ret ; \x8b\x02\x0f\xb6\x4a\x08\x4c\x89\x00\x88\x48\x08\xc3 (1 found)
0x14001b8f7: mov eax,  [rdx] ; movzx ecx, word [rdx+0x08] ; mov qword [rax], r8 ; mov word [rax+0x08], cx ; ret ; \x8b\x02\x0f\xb7\x4a\x08\x4c\x89\x00\x66\x89\x48\x08\xc3 (1 found)
0x14001ab88: mov eax,  [rsp+0x00] ; add rsp, 0x08 ; ret ; \x8b\x04\x24\x48\x83\xc4\x08\xc3 (1 found)
0x140010f0f: mov eax,  [rsp+0x20] ; mov rbx, qword [rsp+0x48] ; add rsp, 0x30 ; pop rdi ; ret ; \x8b\x44\x24\x20\x48\x8b\x5c\x24\x48\x48\x83\xc4\x30\x5f\xc3 (1 found)
0x14000374b: mov eax,  [rsp+0x40] ; add rsp, 0x70 ; pop rbx ; ret ; \x8b\x44\x24\x40\x48\x83\xc4\x70\x5b\xc3 (1 found)
0x14001c514: mov eax, 0x00000001 ; add rsp, 0x20 ; pop rbp ; ret ; \xb8\x01\x00\x00\x00\x48\x83\xc4\x20\x5d\xc3 (1 found)
0x14001c540: mov eax, 0x00000001 ; add rsp, 0x20 ; pop rbp ; ret ; \xb8\x01\x00\x00\x00\x48\x83\xc4\x20\x5d\xc3 (1 found)
0x140019515: mov eax, 0x00000001 ; add rsp, 0x20 ; pop rbx ; ret ; \xb8\x01\x00\x00\x00\x48\x83\xc4\x20\x5b\xc3 (1 found)
0x14001b10b: mov eax, 0x00000001 ; add rsp, 0x28 ; ret ; \xb8\x01\x00\x00\x00\x48\x83\xc4\x28\xc3 (1 found)
0x140015551: mov eax, 0x00000001 ; lock xadd  [rcx+0x0000015C], eax ; inc eax ; ret ; \xb8\x01\x00\x00\x00\xf0\x0f\xc1\x81\x5c\x01\x00\x00\xff\xc0\xc3 (1 found)
0x1400194c0: mov eax, 0x00000001 ; mov rbx, qword [rsp+0x38] ; add rsp, 0x20 ; pop rdi ; ret ; \xb8\x01\x00\x00\x00\x48\x8b\x5c\x24\x38\x48\x83\xc4\x20\x5f\xc3 (1 found)
0x1400012fe: mov eax, 0x00000001 ; mov rbx, qword [rsp+0x50] ; add rsp, 0x40 ; pop rdi ; ret ; \xb8\x01\x00\x00\x00\x48\x8b\x5c\x24\x50\x48\x83\xc4\x40\x5f\xc3 (1 found)
0x140001330: mov eax, 0x00000001 ; ret ; \xb8\x01\x00\x00\x00\xc3 (1 found)
0x140002430: mov eax, 0x00000001 ; ret ; \xb8\x01\x00\x00\x00\xc3 (1 found)
0x140017635: mov eax, 0x00000001 ; ret ; \xb8\x01\x00\x00\x00\xc3 (1 found)
0x14000d9cc: mov eax, 0x00000001 ; xchg  [0x000000014002B520], eax ; ret ; \xb8\x01\x00\x00\x00\x87\x05\x49\xdb\x01\x00\xc3 (1 found)
0x14000e6ee: mov eax, 0x0000000D ; ret ; \xb8\x0d\x00\x00\x00\xc3 (1 found)
0x14000d82f: mov eax, 0x00000016 ; add rsp, 0x28 ; ret ; \xb8\x16\x00\x00\x00\x48\x83\xc4\x28\xc3 (1 found)
0x14000e6fa: mov eax, 0x00000016 ; cmp ecx, 0x0E ; cmovbe eax, r8d ; ret ; \xb8\x16\x00\x00\x00\x83\xf9\x0e\x41\x0f\x46\xc0\xc3 (1 found)
0x1400175fe: mov eax, 0x00000016 ; mov rbx, qword [rsp+0x30] ; mov rsi, qword [rsp+0x38] ; add rsp, 0x20 ; pop rdi ; ret ; \xb8\x16\x00\x00\x00\x48\x8b\x5c\x24\x30\x48\x8b\x74\x24\x38\x48\x83\xc4\x20\x5f\xc3 (1 found)
0x14000243c: mov eax, 0x00004000 ; ret ; \xb8\x00\x40\x00\x00\xc3 (1 found)
0x140018185: mov eax, 0x0000FFFF ; add rsp, 0x28 ; ret ; \xb8\xff\xff\x00\x00\x48\x83\xc4\x28\xc3 (1 found)
0x14000d907: mov eax, 0x00010000 ; cmove eax, r14d ; mov rbx, qword [rsp+0x08] ; mov rdi, qword [rsp+0x10] ; mov r14, qword [rsp+0x18] ; ret ; \xb8\x00\x00\x01\x00\x41\x0f\x44\xc6\x48\x8b\x5c\x24\x08\x48\x8b\x7c\x24\x10\x4c\x8b\x74\x24\x18\xc3 (1 found)
0x140002490: mov eax, 0x0F00027B ; xchg eax, esp ; rol bl, 0x48 ; lea eax,  [0x0000000140046C58] ; ret ; \xb8\x7b\x02\x00\x0f\x94\xc0\xc3\x48\x8d\x05\xb9\x47\x04\x00\xc3 (1 found)
0x140002a7e: mov eax, 0x4CC8BC0F ; add eax, ecx ; cmp word [r8], dx ; cmove r9, r8 ; mov rax, r9 ; ret ; \xb8\x0f\xbc\xc8\x4c\x03\xc1\x66\x41\x39\x10\x4d\x0f\x44\xc8\x49\x8b\xc1\xc3 (1 found)
0x1400181fe: mov eax, 0x7FFFFFFF ; add rsp, 0x28 ; ret ; \xb8\xff\xff\xff\x7f\x48\x83\xc4\x28\xc3 (1 found)
0x14001921e: mov eax, 0x7FFFFFFF ; add rsp, 0x28 ; ret ; \xb8\xff\xff\xff\x7f\x48\x83\xc4\x28\xc3 (1 found)
0x140015561: mov eax, 0x7FFFFFFF ; ret ; \xb8\xff\xff\xff\x7f\xc3 (1 found)
0x1400155bf: mov eax, 0x7FFFFFFF ; ret ; \xb8\xff\xff\xff\x7f\xc3 (1 found)
0x140010b31: mov eax, 0xC0000225 ; add rsp, 0x20 ; pop rbx ; ret ; \xb8\x25\x02\x00\xc0\x48\x83\xc4\x20\x5b\xc3 (1 found)
0x140005375: mov eax, eax ; mov r10, rdx ; mov rdx, rax ; mov r8d, r9d ; jmp r10 ; \x8b\xc0\x4c\x8b\xd2\x48\x8b\xd0\x45\x8b\xc1\x49\xff\xe2 (1 found)
0x140002a95: mov eax, eax ; ret ; \x8b\xc0\xc3 (1 found)
0x140002d2e: mov eax, eax ; ret ; \x8b\xc0\xc3 (1 found)
0x140019cd8: mov eax, eax ; shl eax, 0x18 ; or eax, r8d ; ret ; \x8b\xc0\xc1\xe0\x18\x41\x0b\xc0\xc3 (1 found)
0x140003b86: mov eax, ebx ; add rsp, 0x20 ; pop rbx ; ret ; \x8b\xc3\x48\x83\xc4\x20\x5b\xc3 (1 found)
0x140004c64: mov eax, ebx ; add rsp, 0x20 ; pop rbx ; ret ; \x8b\xc3\x48\x83\xc4\x20\x5b\xc3 (1 found)
0x140004cb6: mov eax, ebx ; add rsp, 0x20 ; pop rbx ; ret ; \x8b\xc3\x48\x83\xc4\x20\x5b\xc3 (1 found)
0x14000c18f: mov eax, ebx ; add rsp, 0x20 ; pop rbx ; ret ; \x8b\xc3\x48\x83\xc4\x20\x5b\xc3 (1 found)
0x14000c1fa: mov eax, ebx ; add rsp, 0x20 ; pop rbx ; ret ; \x8b\xc3\x48\x83\xc4\x20\x5b\xc3 (1 found)
0x14000e09e: mov eax, ebx ; add rsp, 0x20 ; pop rbx ; ret ; \x8b\xc3\x48\x83\xc4\x20\x5b\xc3 (1 found)
0x14000e2d3: mov eax, ebx ; add rsp, 0x20 ; pop rbx ; ret ; \x8b\xc3\x48\x83\xc4\x20\x5b\xc3 (1 found)
0x140010444: mov eax, ebx ; add rsp, 0x20 ; pop rbx ; ret ; \x8b\xc3\x48\x83\xc4\x20\x5b\xc3 (1 found)
0x140011e8e: mov eax, ebx ; add rsp, 0x20 ; pop rbx ; ret ; \x8b\xc3\x48\x83\xc4\x20\x5b\xc3 (1 found)
0x14001595b: mov eax, ebx ; add rsp, 0x20 ; pop rbx ; ret ; \x8b\xc3\x48\x83\xc4\x20\x5b\xc3 (1 found)
0x14001af45: mov eax, ebx ; add rsp, 0x20 ; pop rbx ; ret ; \x8b\xc3\x48\x83\xc4\x20\x5b\xc3 (1 found)
0x14001b0ef: mov eax, ebx ; add rsp, 0x20 ; pop rbx ; ret ; \x8b\xc3\x48\x83\xc4\x20\x5b\xc3 (1 found)
0x140013a2d: mov eax, ebx ; add rsp, 0x40 ; pop rbx ; ret ; \x8b\xc3\x48\x83\xc4\x40\x5b\xc3 (1 found)
0x14001a0d2: mov eax, ebx ; add rsp, 0x40 ; pop rbx ; ret ; \x8b\xc3\x48\x83\xc4\x40\x5b\xc3 (1 found)
0x14000bf2f: mov eax, ebx ; mov rbx, qword [rsp+0x30] ; add rsp, 0x20 ; pop rdi ; ret ; \x8b\xc3\x48\x8b\x5c\x24\x30\x48\x83\xc4\x20\x5f\xc3 (1 found)
0x1400105cd: mov eax, ebx ; mov rbx, qword [rsp+0x30] ; add rsp, 0x20 ; pop rdi ; ret ; \x8b\xc3\x48\x8b\x5c\x24\x30\x48\x83\xc4\x20\x5f\xc3 (1 found)
0x1400110d6: mov eax, ebx ; mov rbx, qword [rsp+0x30] ; add rsp, 0x20 ; pop rdi ; ret ; \x8b\xc3\x48\x8b\x5c\x24\x30\x48\x83\xc4\x20\x5f\xc3 (1 found)
0x1400123aa: mov eax, ebx ; mov rbx, qword [rsp+0x30] ; add rsp, 0x20 ; pop rdi ; ret ; \x8b\xc3\x48\x8b\x5c\x24\x30\x48\x83\xc4\x20\x5f\xc3 (1 found)
0x1400156cb: mov eax, ebx ; mov rbx, qword [rsp+0x30] ; add rsp, 0x20 ; pop rdi ; ret ; \x8b\xc3\x48\x8b\x5c\x24\x30\x48\x83\xc4\x20\x5f\xc3 (1 found)
0x14001591d: mov eax, ebx ; mov rbx, qword [rsp+0x30] ; add rsp, 0x20 ; pop rdi ; ret ; \x8b\xc3\x48\x8b\x5c\x24\x30\x48\x83\xc4\x20\x5f\xc3 (1 found)
0x14001599f: mov eax, ebx ; mov rbx, qword [rsp+0x30] ; add rsp, 0x20 ; pop rdi ; ret ; \x8b\xc3\x48\x8b\x5c\x24\x30\x48\x83\xc4\x20\x5f\xc3 (1 found)
0x1400051dc: mov eax, ebx ; mov rbx, qword [rsp+0x30] ; mov rsi, qword [rsp+0x40] ; add rsp, 0x20 ; pop rdi ; ret ; \x8b\xc3\x48\x8b\x5c\x24\x30\x48\x8b\x74\x24\x40\x48\x83\xc4\x20\x5f\xc3 (1 found)
0x140013fc8: mov eax, ebx ; mov rbx, qword [rsp+0x38] ; mov rsi, qword [rsp+0x40] ; add rsp, 0x20 ; pop rdi ; ret ; \x8b\xc3\x48\x8b\x5c\x24\x38\x48\x8b\x74\x24\x40\x48\x83\xc4\x20\x5f\xc3 (1 found)
0x140001f79: mov eax, ebx ; mov rbx, qword [rsp+0x40] ; mov rsi, qword [rsp+0x48] ; add rsp, 0x30 ; pop rdi ; ret ; \x8b\xc3\x48\x8b\x5c\x24\x40\x48\x8b\x74\x24\x48\x48\x83\xc4\x30\x5f\xc3 (1 found)
0x14000131c: mov eax, ebx ; mov rbx, qword [rsp+0x50] ; add rsp, 0x40 ; pop rdi ; ret ; \x8b\xc3\x48\x8b\x5c\x24\x50\x48\x83\xc4\x40\x5f\xc3 (1 found)
0x14001a1a4: mov eax, ebx ; mov rbx, qword [rsp+0x50] ; mov rsi, qword [rsp+0x60] ; add rsp, 0x40 ; pop rdi ; ret ; \x8b\xc3\x48\x8b\x5c\x24\x50\x48\x8b\x74\x24\x60\x48\x83\xc4\x40\x5f\xc3 (1 found)
0x1400183a0: mov eax, ebx ; mov rbx, qword [rsp+0x60] ; add rsp, 0x50 ; pop rdi ; ret ; \x8b\xc3\x48\x8b\x5c\x24\x60\x48\x83\xc4\x50\x5f\xc3 (1 found)
0x14001232e: mov eax, ebx ; mov rbx, qword [rsp+0x60] ; mov rsi, qword [rsp+0x78] ; add rsp, 0x50 ; pop rdi ; ret ; \x8b\xc3\x48\x8b\x5c\x24\x60\x48\x8b\x74\x24\x78\x48\x83\xc4\x50\x5f\xc3 (1 found)
0x14001c567: mov eax, ecx ; add rsp, 0x20 ; pop rbp ; ret ; \x8b\xc1\x48\x83\xc4\x20\x5d\xc3 (1 found)
0x14001a51d: mov eax, ecx ; add rsp, 0x20 ; pop rbx ; ret ; \x8b\xc1\x48\x83\xc4\x20\x5b\xc3 (1 found)
0x14000daa0: mov eax, ecx ; add rsp, 0x28 ; ret ; \x8b\xc1\x48\x83\xc4\x28\xc3 (1 found)
0x1400191f4: mov eax, ecx ; add rsp, 0x28 ; ret ; \x8b\xc1\x48\x83\xc4\x28\xc3 (1 found)
0x14000537e: mov eax, ecx ; jmp r10 ; \x8b\xc1\x49\xff\xe2 (1 found)
0x14000b9ac: mov eax, ecx ; lea rcx, qword [0x000000014002A080] ; imul rax, rax, 0x58 ; add rax, rcx ; ret ; \x8b\xc1\x48\x8d\x0d\xcb\xe6\x01\x00\x48\x6b\xc0\x58\x48\x03\xc1\xc3 (1 found)
0x14001b3b5: mov eax, ecx ; mov rbx, qword [rsp+0x08] ; ret ; \x8b\xc1\x48\x8b\x5c\x24\x08\xc3 (1 found)
0x14001bee1: mov eax, ecx ; pop rbp ; ret ; \x8b\xc1\x5d\xc3 (1 found)
0x14001b46c: mov eax, ecx ; pop rdi ; ret ; \x8b\xc1\x5f\xc3 (1 found)
0x140002a8e: mov eax, ecx ; ret ; \x8b\xc1\xc3 (1 found)
0x140002cf8: mov eax, ecx ; ret ; \x8b\xc1\xc3 (1 found)
0x140002d3a: mov eax, ecx ; ret ; \x8b\xc1\xc3 (1 found)
0x140004c87: mov eax, ecx ; ret ; \x8b\xc1\xc3 (1 found)
0x1400151a6: mov eax, ecx ; ret ; \x8b\xc1\xc3 (1 found)
0x140019ba2: mov eax, ecx ; ret ; \x8b\xc1\xc3 (1 found)
0x140019e95: mov eax, ecx ; ret ; \x8b\xc1\xc3 (1 found)
0x14000b577: mov eax, edi ; add rsp, 0x00000000000000B0 ; pop rdi ; pop rbx ; pop rbp ; ret ; \x8b\xc7\x48\x81\xc4\xb0\x00\x00\x00\x5f\x5b\x5d\xc3 (1 found)
0x14000b69b: mov eax, edi ; add rsp, 0x00000000000000B0 ; pop rdi ; pop rbx ; pop rbp ; ret ; \x8b\xc7\x48\x81\xc4\xb0\x00\x00\x00\x5f\x5b\x5d\xc3 (1 found)
0x14000cbb8: mov eax, edi ; add rsp, 0x00000000000000B0 ; pop rdi ; pop rbx ; pop rbp ; ret ; \x8b\xc7\x48\x81\xc4\xb0\x00\x00\x00\x5f\x5b\x5d\xc3 (1 found)
0x140004d0e: mov eax, edi ; add rsp, 0x20 ; pop rdi ; ret ; \x8b\xc7\x48\x83\xc4\x20\x5f\xc3 (1 found)
0x140004d52: mov eax, edi ; add rsp, 0x20 ; pop rdi ; ret ; \x8b\xc7\x48\x83\xc4\x20\x5f\xc3 (1 found)
0x1400058c4: mov eax, edi ; mov rbx, qword [rsp+0x30] ; add rsp, 0x20 ; pop rdi ; ret ; \x8b\xc7\x48\x8b\x5c\x24\x30\x48\x83\xc4\x20\x5f\xc3 (1 found)
0x140005904: mov eax, edi ; mov rbx, qword [rsp+0x30] ; add rsp, 0x20 ; pop rdi ; ret ; \x8b\xc7\x48\x8b\x5c\x24\x30\x48\x83\xc4\x20\x5f\xc3 (1 found)
0x14000c998: mov eax, edi ; mov rbx, qword [rsp+0x30] ; add rsp, 0x20 ; pop rdi ; ret ; \x8b\xc7\x48\x8b\x5c\x24\x30\x48\x83\xc4\x20\x5f\xc3 (1 found)
0x14000d3c1: mov eax, edi ; mov rbx, qword [rsp+0x30] ; add rsp, 0x20 ; pop rdi ; ret ; \x8b\xc7\x48\x8b\x5c\x24\x30\x48\x83\xc4\x20\x5f\xc3 (1 found)
0x14000dade: mov eax, edi ; mov rbx, qword [rsp+0x30] ; add rsp, 0x20 ; pop rdi ; ret ; \x8b\xc7\x48\x8b\x5c\x24\x30\x48\x83\xc4\x20\x5f\xc3 (1 found)
0x14000db1a: mov eax, edi ; mov rbx, qword [rsp+0x30] ; add rsp, 0x20 ; pop rdi ; ret ; \x8b\xc7\x48\x8b\x5c\x24\x30\x48\x83\xc4\x20\x5f\xc3 (1 found)
0x140013019: mov eax, edi ; mov rdi, qword [rsp+0x40] ; mov rsi, qword [rsp+0x38] ; add rsp, 0x20 ; pop r14 ; ret ; \x8b\xc7\x48\x8b\x7c\x24\x40\x48\x8b\x74\x24\x38\x48\x83\xc4\x20\x41\x5e\xc3 (1 found)
0x14000be01: mov eax, edi ; mov rdi, qword [rsp+0x78] ; add rsp, 0x60 ; pop rbp ; ret ; \x8b\xc7\x48\x8b\x7c\x24\x78\x48\x83\xc4\x60\x5d\xc3 (1 found)
0x14000c0eb: mov eax, edi ; mov rdi, qword [rsp+0x78] ; add rsp, 0x60 ; pop rbp ; ret ; \x8b\xc7\x48\x8b\x7c\x24\x78\x48\x83\xc4\x60\x5d\xc3 (1 found)
0x140011a0b: mov eax, edi ; mov rdi, qword [rsp+0x78] ; add rsp, 0x60 ; pop rbp ; ret ; \x8b\xc7\x48\x8b\x7c\x24\x78\x48\x83\xc4\x60\x5d\xc3 (1 found)
0x140012507: mov eax, edi ; mov rdi, qword [rsp+0x78] ; add rsp, 0x60 ; pop rbp ; ret ; \x8b\xc7\x48\x8b\x7c\x24\x78\x48\x83\xc4\x60\x5d\xc3 (1 found)
0x1400180a1: mov eax, edi ; mov rdi, qword [rsp+0x78] ; add rsp, 0x60 ; pop rbp ; ret ; \x8b\xc7\x48\x8b\x7c\x24\x78\x48\x83\xc4\x60\x5d\xc3 (1 found)
0x14001813d: mov eax, edi ; mov rdi, qword [rsp+0x78] ; add rsp, 0x60 ; pop rbp ; ret ; \x8b\xc7\x48\x8b\x7c\x24\x78\x48\x83\xc4\x60\x5d\xc3 (1 found)
0x14001a243: mov eax, edi ; mov rdi, qword [rsp+0x78] ; add rsp, 0x60 ; pop rbp ; ret ; \x8b\xc7\x48\x8b\x7c\x24\x78\x48\x83\xc4\x60\x5d\xc3 (1 found)
0x14000bac2: mov eax, edi ; mov rsi, qword [rsp+0x38] ; add rsp, 0x20 ; pop rdi ; ret ; \x8b\xc7\x48\x8b\x74\x24\x38\x48\x83\xc4\x20\x5f\xc3 (1 found)
0x14001039c: mov eax, edi ; mov rsi, qword [rsp+0x38] ; add rsp, 0x20 ; pop rdi ; ret ; \x8b\xc7\x48\x8b\x74\x24\x38\x48\x83\xc4\x20\x5f\xc3 (1 found)
0x14001050f: mov eax, edi ; mov rsi, qword [rsp+0x38] ; add rsp, 0x20 ; pop rdi ; ret ; \x8b\xc7\x48\x8b\x74\x24\x38\x48\x83\xc4\x20\x5f\xc3 (1 found)
0x14000235e: mov eax, edx ; add rsp, 0x20 ; pop rbx ; ret ; \x8b\xc2\x48\x83\xc4\x20\x5b\xc3 (1 found)
0x140005369: mov eax, edx ; mov rdx, r8 ; jmp rax ; \x8b\xc2\x49\x8b\xd0\x48\xff\xe0 (1 found)
0x14000b162: mov eax, edx ; mov rsi, qword [rsp+0x38] ; add rsp, 0x20 ; pop rdi ; ret ; \x8b\xc2\x48\x8b\x74\x24\x38\x48\x83\xc4\x20\x5f\xc3 (1 found)
0x14000b1d6: mov eax, edx ; mov rsi, qword [rsp+0x38] ; add rsp, 0x20 ; pop rdi ; ret ; \x8b\xc2\x48\x8b\x74\x24\x38\x48\x83\xc4\x20\x5f\xc3 (1 found)
0x14000b24a: mov eax, edx ; mov rsi, qword [rsp+0x38] ; add rsp, 0x20 ; pop rdi ; ret ; \x8b\xc2\x48\x8b\x74\x24\x38\x48\x83\xc4\x20\x5f\xc3 (1 found)
0x14000ccfd: mov eax, edx ; mov rsi, qword [rsp+0x38] ; add rsp, 0x20 ; pop rdi ; ret ; \x8b\xc2\x48\x8b\x74\x24\x38\x48\x83\xc4\x20\x5f\xc3 (1 found)
0x140002da8: mov eax, edx ; ret ; \x8b\xc2\xc3 (1 found)
0x14000ea2b: mov eax, edx ; ret ; \x8b\xc2\xc3 (1 found)
0x140015c14: mov eax, esi ; mov r8, qword [0x000000014001D308] ; call r8 ; \x8b\xc6\x4c\x8b\x05\xeb\x76\x00\x00\x41\xff\xd0 (1 found)
0x140003325: mov eax, esi ; mov rbx, qword [rsp+0x30] ; mov rsi, qword [rsp+0x38] ; add rsp, 0x20 ; pop rdi ; ret ; \x8b\xc6\x48\x8b\x5c\x24\x30\x48\x8b\x74\x24\x38\x48\x83\xc4\x20\x5f\xc3 (1 found)
0x14001afba: mov eax, esi ; mov rbx, qword [rsp+0x40] ; mov rsi, qword [rsp+0x48] ; add rsp, 0x20 ; pop rdi ; ret ; \x8b\xc6\x48\x8b\x5c\x24\x40\x48\x8b\x74\x24\x48\x48\x83\xc4\x20\x5f\xc3 (1 found)
0x14000c04b: mov eax, esi ; mov rbx, qword [rsp+0x40] ; mov rsi, qword [rsp+0x48] ; add rsp, 0x30 ; pop rdi ; ret ; \x8b\xc6\x48\x8b\x5c\x24\x40\x48\x8b\x74\x24\x48\x48\x83\xc4\x30\x5f\xc3 (1 found)
0x140015c2f: mov eax, esi ; mov rdx, qword [0x000000014001D308] ; call rdx ; \x8b\xc6\x48\x8b\x15\xd0\x76\x00\x00\xff\xd2 (1 found)
0x14000e339: mov eax, esi ; mov rsi, qword [rsp+0x40] ; add rsp, 0x20 ; pop rdi ; ret ; \x8b\xc6\x48\x8b\x74\x24\x40\x48\x83\xc4\x20\x5f\xc3 (1 found)
0x140014a17: mov eax, esi ; mov rsi, qword [rsp+0x40] ; mov rbp, qword [rsp+0x38] ; add rsp, 0x20 ; pop rdi ; ret ; \x8b\xc6\x48\x8b\x74\x24\x40\x48\x8b\x6c\x24\x38\x48\x83\xc4\x20\x5f\xc3 (1 found)
0x140011f8d: mov eax, esi ; mov rsi, qword [rsp+0x48] ; mov rbp, qword [rsp+0x40] ; add rsp, 0x20 ; pop rdi ; ret ; \x8b\xc6\x48\x8b\x74\x24\x48\x48\x8b\x6c\x24\x40\x48\x83\xc4\x20\x5f\xc3 (1 found)
0x14000b161: mov eax, r10d ; mov rsi, qword [rsp+0x38] ; add rsp, 0x20 ; pop rdi ; ret ; \x41\x8b\xc2\x48\x8b\x74\x24\x38\x48\x83\xc4\x20\x5f\xc3 (1 found)
0x14000b1d5: mov eax, r10d ; mov rsi, qword [rsp+0x38] ; add rsp, 0x20 ; pop rdi ; ret ; \x41\x8b\xc2\x48\x8b\x74\x24\x38\x48\x83\xc4\x20\x5f\xc3 (1 found)
0x14000b249: mov eax, r10d ; mov rsi, qword [rsp+0x38] ; add rsp, 0x20 ; pop rdi ; ret ; \x41\x8b\xc2\x48\x8b\x74\x24\x38\x48\x83\xc4\x20\x5f\xc3 (1 found)
0x14000ccfc: mov eax, r10d ; mov rsi, qword [rsp+0x38] ; add rsp, 0x20 ; pop rdi ; ret ; \x41\x8b\xc2\x48\x8b\x74\x24\x38\x48\x83\xc4\x20\x5f\xc3 (1 found)
0x140019cd7: mov eax, r8d ; shl eax, 0x18 ; or eax, r8d ; ret ; \x41\x8b\xc0\xc1\xe0\x18\x41\x0b\xc0\xc3 (1 found)
0x14001a51c: mov eax, r9d ; add rsp, 0x20 ; pop rbx ; ret ; \x41\x8b\xc1\x48\x83\xc4\x20\x5b\xc3 (1 found)
0x140004c10: mov ebp,  [rbx+0x18] ; mov rsi, qword [r11+0x20] ; mov rdi, qword [r11+0x28] ; mov rsp, r11 ; pop r14 ; ret ; \x8b\x6b\x18\x49\x8b\x73\x20\x49\x8b\x7b\x28\x49\x8b\xe3\x41\x5e\xc3 (1 found)
0x140010718: mov ebp,  [rbx+0x18] ; mov rsi, qword [r11+0x20] ; mov rdi, qword [r11+0x28] ; mov rsp, r11 ; pop r14 ; ret ; \x8b\x6b\x18\x49\x8b\x73\x20\x49\x8b\x7b\x28\x49\x8b\xe3\x41\x5e\xc3 (1 found)
0x14000a5d8: mov ebp,  [rbx+0x30] ; mov rsp, r11 ; pop r12 ; pop rdi ; pop rsi ; ret ; \x8b\x6b\x30\x49\x8b\xe3\x41\x5c\x5f\x5e\xc3 (1 found)
0x14000a840: mov ebp,  [rbx+0x30] ; mov rsp, r11 ; pop r12 ; pop rdi ; pop rsi ; ret ; \x8b\x6b\x30\x49\x8b\xe3\x41\x5c\x5f\x5e\xc3 (1 found)
0x14000aaa8: mov ebp,  [rbx+0x30] ; mov rsp, r11 ; pop r12 ; pop rdi ; pop rsi ; ret ; \x8b\x6b\x30\x49\x8b\xe3\x41\x5c\x5f\x5e\xc3 (1 found)
0x1400116e7: mov ebp,  [rbx+0x30] ; mov rsp, r11 ; pop r14 ; pop rdi ; pop rsi ; ret ; \x8b\x6b\x30\x49\x8b\xe3\x41\x5e\x5f\x5e\xc3 (1 found)
0x140011802: mov ebp,  [rbx+0x30] ; mov rsp, r11 ; pop r14 ; pop rdi ; pop rsi ; ret ; \x8b\x6b\x30\x49\x8b\xe3\x41\x5e\x5f\x5e\xc3 (1 found)
0x140014a1f: mov ebp,  [rsp+0x38] ; add rsp, 0x20 ; pop rdi ; ret ; \x8b\x6c\x24\x38\x48\x83\xc4\x20\x5f\xc3 (1 found)
0x14001516e: mov ebp,  [rsp+0x38] ; add rsp, 0x20 ; pop rsi ; ret ; \x8b\x6c\x24\x38\x48\x83\xc4\x20\x5e\xc3 (1 found)
0x1400037ab: mov ebp,  [rsp+0x38] ; mov rsi, qword [rsp+0x40] ; add rsp, 0x20 ; pop rdi ; ret ; \x8b\x6c\x24\x38\x48\x8b\x74\x24\x40\x48\x83\xc4\x20\x5f\xc3 (1 found)
0x140005355: mov ebp,  [rsp+0x38] ; mov rsi, qword [rsp+0x40] ; add rsp, 0x20 ; pop rdi ; ret ; \x8b\x6c\x24\x38\x48\x8b\x74\x24\x40\x48\x83\xc4\x20\x5f\xc3 (1 found)
0x140005b65: mov ebp,  [rsp+0x38] ; mov rsi, qword [rsp+0x40] ; add rsp, 0x20 ; pop rdi ; ret ; \x8b\x6c\x24\x38\x48\x8b\x74\x24\x40\x48\x83\xc4\x20\x5f\xc3 (1 found)
0x140005c11: mov ebp,  [rsp+0x38] ; mov rsi, qword [rsp+0x40] ; add rsp, 0x20 ; pop rdi ; ret ; \x8b\x6c\x24\x38\x48\x8b\x74\x24\x40\x48\x83\xc4\x20\x5f\xc3 (1 found)
0x14000bd2d: mov ebp,  [rsp+0x38] ; mov rsi, qword [rsp+0x40] ; add rsp, 0x20 ; pop rdi ; ret ; \x8b\x6c\x24\x38\x48\x8b\x74\x24\x40\x48\x83\xc4\x20\x5f\xc3 (1 found)
0x14000ce08: mov ebp,  [rsp+0x38] ; mov rsi, qword [rsp+0x40] ; add rsp, 0x20 ; pop rdi ; ret ; \x8b\x6c\x24\x38\x48\x8b\x74\x24\x40\x48\x83\xc4\x20\x5f\xc3 (1 found)
0x140014519: mov ebp,  [rsp+0x38] ; mov rsi, qword [rsp+0x40] ; add rsp, 0x20 ; pop rdi ; ret ; \x8b\x6c\x24\x38\x48\x8b\x74\x24\x40\x48\x83\xc4\x20\x5f\xc3 (1 found)
0x1400157ce: mov ebp,  [rsp+0x38] ; mov rsi, qword [rsp+0x40] ; add rsp, 0x20 ; pop rdi ; ret ; \x8b\x6c\x24\x38\x48\x8b\x74\x24\x40\x48\x83\xc4\x20\x5f\xc3 (1 found)
0x140015d39: mov ebp,  [rsp+0x38] ; mov rsi, qword [rsp+0x40] ; add rsp, 0x20 ; pop rdi ; ret ; \x8b\x6c\x24\x38\x48\x8b\x74\x24\x40\x48\x83\xc4\x20\x5f\xc3 (1 found)
0x1400049d8: mov ebp,  [rsp+0x38] ; mov rsi, qword [rsp+0x40] ; mov rdi, qword [rsp+0x48] ; add rsp, 0x20 ; pop r14 ; ret ; \x8b\x6c\x24\x38\x48\x8b\x74\x24\x40\x48\x8b\x7c\x24\x48\x48\x83\xc4\x20\x41\x5e\xc3 (1 found)
0x14000b996: mov ebp,  [rsp+0x38] ; mov rsi, qword [rsp+0x40] ; mov rdi, qword [rsp+0x48] ; add rsp, 0x20 ; pop r14 ; ret ; \x8b\x6c\x24\x38\x48\x8b\x74\x24\x40\x48\x8b\x7c\x24\x48\x48\x83\xc4\x20\x41\x5e\xc3 (1 found)
0x14001081f: mov ebp,  [rsp+0x38] ; mov rsi, qword [rsp+0x40] ; mov rdi, qword [rsp+0x48] ; add rsp, 0x20 ; pop r14 ; ret ; \x8b\x6c\x24\x38\x48\x8b\x74\x24\x40\x48\x8b\x7c\x24\x48\x48\x83\xc4\x20\x41\x5e\xc3 (1 found)
0x140014bf6: mov ebp,  [rsp+0x38] ; mov rsi, qword [rsp+0x40] ; mov rdi, qword [rsp+0x48] ; add rsp, 0x20 ; pop r14 ; ret ; \x8b\x6c\x24\x38\x48\x8b\x74\x24\x40\x48\x8b\x7c\x24\x48\x48\x83\xc4\x20\x41\x5e\xc3 (1 found)
0x14001b1e6: mov ebp,  [rsp+0x38] ; mov rsi, qword [rsp+0x40] ; mov rdi, qword [rsp+0x48] ; add rsp, 0x20 ; pop r14 ; ret ; \x8b\x6c\x24\x38\x48\x8b\x74\x24\x40\x48\x8b\x7c\x24\x48\x48\x83\xc4\x20\x41\x5e\xc3 (1 found)
0x140011f95: mov ebp,  [rsp+0x40] ; add rsp, 0x20 ; pop rdi ; ret ; \x8b\x6c\x24\x40\x48\x83\xc4\x20\x5f\xc3 (1 found)
0x14001897b: mov ebp,  [rsp+0x40] ; add rsp, 0x20 ; pop rdi ; ret ; \x8b\x6c\x24\x40\x48\x83\xc4\x20\x5f\xc3 (1 found)
0x14001799c: mov ebp,  [rsp+0x40] ; mov rsi, qword [rsp+0x48] ; add rsp, 0x20 ; pop rdi ; ret ; \x8b\x6c\x24\x40\x48\x8b\x74\x24\x48\x48\x83\xc4\x20\x5f\xc3 (1 found)
0x140017a98: mov ebp,  [rsp+0x40] ; mov rsi, qword [rsp+0x48] ; add rsp, 0x20 ; pop rdi ; ret ; \x8b\x6c\x24\x40\x48\x8b\x74\x24\x48\x48\x83\xc4\x20\x5f\xc3 (1 found)
0x14000d59f: mov ebp,  [rsp+0x48] ; mov rsi, qword [rsp+0x50] ; add rsp, 0x30 ; pop rdi ; ret ; \x8b\x6c\x24\x48\x48\x8b\x74\x24\x50\x48\x83\xc4\x30\x5f\xc3 (1 found)
0x14000e5fb: mov ebp,  [rsp+0x48] ; mov rsi, qword [rsp+0x50] ; add rsp, 0x30 ; pop rdi ; ret ; \x8b\x6c\x24\x48\x48\x8b\x74\x24\x50\x48\x83\xc4\x30\x5f\xc3 (1 found)
0x140015e49: mov ebp,  [rsp+0x48] ; mov rsi, qword [rsp+0x50] ; add rsp, 0x30 ; pop rdi ; ret ; \x8b\x6c\x24\x48\x48\x8b\x74\x24\x50\x48\x83\xc4\x30\x5f\xc3 (1 found)
0x140018002: mov ebp,  [rsp+0x48] ; mov rsi, qword [rsp+0x50] ; add rsp, 0x30 ; pop rdi ; ret ; \x8b\x6c\x24\x48\x48\x8b\x74\x24\x50\x48\x83\xc4\x30\x5f\xc3 (1 found)
0x1400065cc: mov ebp,  [rsp+0x48] ; mov rsi, qword [rsp+0x50] ; mov rdi, qword [rsp+0x58] ; add rsp, 0x30 ; pop r14 ; ret ; \x8b\x6c\x24\x48\x48\x8b\x74\x24\x50\x48\x8b\x7c\x24\x58\x48\x83\xc4\x30\x41\x5e\xc3 (1 found)
0x1400067d8: mov ebp,  [rsp+0x48] ; mov rsi, qword [rsp+0x50] ; mov rdi, qword [rsp+0x58] ; add rsp, 0x30 ; pop r14 ; ret ; \x8b\x6c\x24\x48\x48\x8b\x74\x24\x50\x48\x8b\x7c\x24\x58\x48\x83\xc4\x30\x41\x5e\xc3 (1 found)
0x1400069e4: mov ebp,  [rsp+0x48] ; mov rsi, qword [rsp+0x50] ; mov rdi, qword [rsp+0x58] ; add rsp, 0x30 ; pop r14 ; ret ; \x8b\x6c\x24\x48\x48\x8b\x74\x24\x50\x48\x8b\x7c\x24\x58\x48\x83\xc4\x30\x41\x5e\xc3 (1 found)
0x140006bf0: mov ebp,  [rsp+0x48] ; mov rsi, qword [rsp+0x50] ; mov rdi, qword [rsp+0x58] ; add rsp, 0x30 ; pop r14 ; ret ; \x8b\x6c\x24\x48\x48\x8b\x74\x24\x50\x48\x8b\x7c\x24\x58\x48\x83\xc4\x30\x41\x5e\xc3 (1 found)
0x140006dfc: mov ebp,  [rsp+0x48] ; mov rsi, qword [rsp+0x50] ; mov rdi, qword [rsp+0x58] ; add rsp, 0x30 ; pop r14 ; ret ; \x8b\x6c\x24\x48\x48\x8b\x74\x24\x50\x48\x8b\x7c\x24\x58\x48\x83\xc4\x30\x41\x5e\xc3 (1 found)
0x140007008: mov ebp,  [rsp+0x48] ; mov rsi, qword [rsp+0x50] ; mov rdi, qword [rsp+0x58] ; add rsp, 0x30 ; pop r14 ; ret ; \x8b\x6c\x24\x48\x48\x8b\x74\x24\x50\x48\x8b\x7c\x24\x58\x48\x83\xc4\x30\x41\x5e\xc3 (1 found)
0x140007214: mov ebp,  [rsp+0x48] ; mov rsi, qword [rsp+0x50] ; mov rdi, qword [rsp+0x58] ; add rsp, 0x30 ; pop r14 ; ret ; \x8b\x6c\x24\x48\x48\x8b\x74\x24\x50\x48\x8b\x7c\x24\x58\x48\x83\xc4\x30\x41\x5e\xc3 (1 found)
0x140007420: mov ebp,  [rsp+0x48] ; mov rsi, qword [rsp+0x50] ; mov rdi, qword [rsp+0x58] ; add rsp, 0x30 ; pop r14 ; ret ; \x8b\x6c\x24\x48\x48\x8b\x74\x24\x50\x48\x8b\x7c\x24\x58\x48\x83\xc4\x30\x41\x5e\xc3 (1 found)
0x14000762c: mov ebp,  [rsp+0x48] ; mov rsi, qword [rsp+0x50] ; mov rdi, qword [rsp+0x58] ; add rsp, 0x30 ; pop r14 ; ret ; \x8b\x6c\x24\x48\x48\x8b\x74\x24\x50\x48\x8b\x7c\x24\x58\x48\x83\xc4\x30\x41\x5e\xc3 (1 found)
0x140008910: mov ebp,  [rsp+0x48] ; mov rsi, qword [rsp+0x50] ; mov rdi, qword [rsp+0x58] ; add rsp, 0x30 ; pop r14 ; ret ; \x8b\x6c\x24\x48\x48\x8b\x74\x24\x50\x48\x8b\x7c\x24\x58\x48\x83\xc4\x30\x41\x5e\xc3 (1 found)
0x140008be2: mov ebp,  [rsp+0x48] ; mov rsi, qword [rsp+0x50] ; mov rdi, qword [rsp+0x58] ; add rsp, 0x30 ; pop r14 ; ret ; \x8b\x6c\x24\x48\x48\x8b\x74\x24\x50\x48\x8b\x7c\x24\x58\x48\x83\xc4\x30\x41\x5e\xc3 (1 found)
0x140008eb9: mov ebp,  [rsp+0x48] ; mov rsi, qword [rsp+0x50] ; mov rdi, qword [rsp+0x58] ; add rsp, 0x30 ; pop r14 ; ret ; \x8b\x6c\x24\x48\x48\x8b\x74\x24\x50\x48\x8b\x7c\x24\x58\x48\x83\xc4\x30\x41\x5e\xc3 (1 found)
0x14000fc17: mov ebp,  [rsp+0x48] ; mov rsi, qword [rsp+0x50] ; mov rdi, qword [rsp+0x58] ; add rsp, 0x30 ; pop r14 ; ret ; \x8b\x6c\x24\x48\x48\x8b\x74\x24\x50\x48\x8b\x7c\x24\x58\x48\x83\xc4\x30\x41\x5e\xc3 (1 found)
0x1400148b7: mov ebp,  [rsp+0x48] ; mov rsi, qword [rsp+0x50] ; mov rdi, qword [rsp+0x58] ; add rsp, 0x30 ; pop r14 ; ret ; \x8b\x6c\x24\x48\x48\x8b\x74\x24\x50\x48\x8b\x7c\x24\x58\x48\x83\xc4\x30\x41\x5e\xc3 (1 found)
0x14000854c: mov ebp,  [rsp+0x50] ; add rsp, 0x30 ; pop rdi ; ret ; \x8b\x6c\x24\x50\x48\x83\xc4\x30\x5f\xc3 (1 found)
0x1400085dc: mov ebp,  [rsp+0x50] ; add rsp, 0x30 ; pop rdi ; ret ; \x8b\x6c\x24\x50\x48\x83\xc4\x30\x5f\xc3 (1 found)
0x14000866c: mov ebp,  [rsp+0x50] ; add rsp, 0x30 ; pop rdi ; ret ; \x8b\x6c\x24\x50\x48\x83\xc4\x30\x5f\xc3 (1 found)
0x140003cb3: mov ebp,  [rsp+0x60] ; mov rsi, qword [rsp+0x68] ; add rsp, 0x40 ; pop rdi ; ret ; \x8b\x6c\x24\x60\x48\x8b\x74\x24\x68\x48\x83\xc4\x40\x5f\xc3 (1 found)
0x14000f4ed: mov ebp,  [rsp+0x68] ; mov rdi, qword [rsp+0x70] ; mov r14, qword [rsp+0x78] ; add rsp, 0x50 ; pop r15 ; ret ; \x8b\x6c\x24\x68\x48\x8b\x7c\x24\x70\x4c\x8b\x74\x24\x78\x48\x83\xc4\x50\x41\x5f\xc3 (1 found)
0x14000f246: mov ebp,  [rsp+0x68] ; mov rsi, qword [rsp+0x70] ; add rsp, 0x50 ; pop rdi ; ret ; \x8b\x6c\x24\x68\x48\x8b\x74\x24\x70\x48\x83\xc4\x50\x5f\xc3 (1 found)
0x140010c19: mov ebp,  [rsp+0x68] ; mov rsi, qword [rsp+0x70] ; add rsp, 0x50 ; pop rdi ; ret ; \x8b\x6c\x24\x68\x48\x8b\x74\x24\x70\x48\x83\xc4\x50\x5f\xc3 (1 found)
0x140010d95: mov ebp,  [rsp+0x68] ; mov rsi, qword [rsp+0x70] ; add rsp, 0x50 ; pop rdi ; ret ; \x8b\x6c\x24\x68\x48\x8b\x74\x24\x70\x48\x83\xc4\x50\x5f\xc3 (1 found)
0x140017e38: mov ebp,  [rsp+0x68] ; mov rsi, qword [rsp+0x70] ; add rsp, 0x50 ; pop rdi ; ret ; \x8b\x6c\x24\x68\x48\x8b\x74\x24\x70\x48\x83\xc4\x50\x5f\xc3 (1 found)
0x14001932d: mov ebp,  [rsp+0x68] ; mov rsi, qword [rsp+0x70] ; add rsp, 0x50 ; pop rdi ; ret ; \x8b\x6c\x24\x68\x48\x8b\x74\x24\x70\x48\x83\xc4\x50\x5f\xc3 (1 found)
0x14000ef87: mov ebp,  [rsp+0x68] ; mov rsi, qword [rsp+0x70] ; mov rdi, qword [rsp+0x78] ; add rsp, 0x50 ; pop r14 ; ret ; \x8b\x6c\x24\x68\x48\x8b\x74\x24\x70\x48\x8b\x7c\x24\x78\x48\x83\xc4\x50\x41\x5e\xc3 (1 found)
0x14001a4a4: mov ebp,  [rsp+0x68] ; mov rsi, qword [rsp+0x70] ; mov rdi, qword [rsp+0x78] ; add rsp, 0x50 ; pop r14 ; ret ; \x8b\x6c\x24\x68\x48\x8b\x74\x24\x70\x48\x8b\x7c\x24\x78\x48\x83\xc4\x50\x41\x5e\xc3 (1 found)
0x14000f9f8: mov ebp,  [rsp+0x70] ; add rsp, 0x40 ; pop r14 ; pop rdi ; pop rsi ; ret ; \x8b\x6c\x24\x70\x48\x83\xc4\x40\x41\x5e\x5f\x5e\xc3 (1 found)
0x14001a0ef: mov ebp, 0x4800002F ; add esp, 0x28 ; ret ; \xbd\x2f\x00\x00\x48\x83\xc4\x28\xc3 (1 found)
0x14001b3a9: mov ebp, 0xCB0349CA ; test edx, edx ; cmovne r9, rcx ; mov rax, r9 ; mov rbx, qword [rsp+0x08] ; ret ; \xbd\xca\x49\x03\xcb\x85\xd2\x4c\x0f\x45\xc9\x49\x8b\xc1\x48\x8b\x5c\x24\x08\xc3 (1 found)
0x140005abc: mov ebp, 0xFFFFFEBB ; jmp qword [rsi+0x44] ; \xbd\xbb\xfe\xff\xff\xff\x66\x44 (1 found)
0x14000bf2d: mov ebx,  [rax] ; mov eax, ebx ; mov rbx, qword [rsp+0x30] ; add rsp, 0x20 ; pop rdi ; ret ; \x8b\x18\x8b\xc3\x48\x8b\x5c\x24\x30\x48\x83\xc4\x20\x5f\xc3 (1 found)
0x140013244: mov ebx,  [rbx+0x10] ; mov rsi, qword [r11+0x18] ; mov rdi, qword [r11+0x20] ; mov rsp, r11 ; pop rbp ; ret ; \x8b\x5b\x10\x49\x8b\x73\x18\x49\x8b\x7b\x20\x49\x8b\xe3\x5d\xc3 (1 found)
0x1400191d6: mov ebx,  [rbx+0x10] ; mov rsi, qword [r11+0x18] ; mov rsp, r11 ; pop rdi ; ret ; \x8b\x5b\x10\x49\x8b\x73\x18\x49\x8b\xe3\x5f\xc3 (1 found)
0x140013cab: mov ebx,  [rbx+0x18] ; mov rdi, qword [r11+0x20] ; mov rsp, r11 ; pop rbp ; ret ; \x8b\x5b\x18\x49\x8b\x7b\x20\x49\x8b\xe3\x5d\xc3 (1 found)
0x14001b5fa: mov ebx,  [rdx+rbx*4+0x000263A0] ; add r11, r10 ; jmp r11 ; \x8b\x9c\x9a\xa0\x63\x02\x00\x4d\x03\xda\x41\xff\xe3 (1 found)
0x14001b6ba: mov ebx,  [rdx+rbx*4+0x000263C4] ; add r11, r10 ; jmp r11 ; \x8b\x9c\x9a\xc4\x63\x02\x00\x4d\x03\xda\x41\xff\xe3 (1 found)
0x14001b7ae: mov ebx,  [rdx+rbx*4+0x000263E8] ; add r11, r10 ; jmp r11 ; \x8b\x9c\x9a\xe8\x63\x02\x00\x4d\x03\xda\x41\xff\xe3 (1 found)
0x14001ba98: mov ebx,  [rdx+rbx*4+0x00026450] ; add r11, r10 ; jmp r11 ; \x8b\x9c\x9a\x50\x64\x02\x00\x4d\x03\xda\x41\xff\xe3 (1 found)
0x14001bbc8: mov ebx,  [rdx+rbx*4+0x00026474] ; add r11, r10 ; jmp r11 ; \x8b\x9c\x9a\x74\x64\x02\x00\x4d\x03\xda\x41\xff\xe3 (1 found)
0x14001bd3c: mov ebx,  [rdx+rbx*4+0x00026498] ; add r11, r10 ; jmp r11 ; \x8b\x9c\x9a\x98\x64\x02\x00\x4d\x03\xda\x41\xff\xe3 (1 found)
0x14000bc3d: mov ebx,  [rsp+0x00000080] ; add rsp, 0x60 ; pop r14 ; pop rdi ; pop rsi ; ret ; \x8b\x9c\x24\x80\x00\x00\x00\x48\x83\xc4\x60\x41\x5e\x5f\x5e\xc3 (1 found)
0x14000e586: mov ebx,  [rsp+0x00000080] ; add rsp, 0x70 ; pop rbp ; ret ; \x8b\x9c\x24\x80\x00\x00\x00\x48\x83\xc4\x70\x5d\xc3 (1 found)
0x1400025e8: mov ebx,  [rsp+0x000005D0] ; add rsp, 0x00000000000005C0 ; pop rbp ; ret ; \x8b\x9c\x24\xd0\x05\x00\x00\x48\x81\xc4\xc0\x05\x00\x00\x5d\xc3 (1 found)
0x14001b255: mov ebx,  [rsp+0x08] ; add rsp, 0x10 ; ret ; \x8b\x5c\x24\x08\x48\x83\xc4\x10\xc3 (1 found)
0x14000d911: mov ebx,  [rsp+0x08] ; mov rdi, qword [rsp+0x10] ; mov r14, qword [rsp+0x18] ; ret ; \x8b\x5c\x24\x08\x48\x8b\x7c\x24\x10\x4c\x8b\x74\x24\x18\xc3 (1 found)
0x140002c76: mov ebx,  [rsp+0x08] ; mov rdi, qword [rsp+0x10] ; ret ; \x8b\x5c\x24\x08\x48\x8b\x7c\x24\x10\xc3 (1 found)
0x14001b3b8: mov ebx,  [rsp+0x08] ; ret ; \x8b\x5c\x24\x08\xc3 (1 found)
0x14000d164: mov ebx,  [rsp+0x10] ; mov rsi, qword [rsp+0x18] ; mov rdi, qword [rsp+0x20] ; mov r14, qword [rsp+0x28] ; pop r15 ; ret ; \x8b\x5c\x24\x10\x48\x8b\x74\x24\x18\x48\x8b\x7c\x24\x20\x4c\x8b\x74\x24\x28\x41\x5f\xc3 (1 found)
0x1400026fa: mov ebx,  [rsp+0x30] ; add rsp, 0x20 ; pop rdi ; ret ; \x8b\x5c\x24\x30\x48\x83\xc4\x20\x5f\xc3 (1 found)
0x140002736: mov ebx,  [rsp+0x30] ; add rsp, 0x20 ; pop rdi ; ret ; \x8b\x5c\x24\x30\x48\x83\xc4\x20\x5f\xc3 (1 found)
0x140003693: mov ebx,  [rsp+0x30] ; add rsp, 0x20 ; pop rdi ; ret ; \x8b\x5c\x24\x30\x48\x83\xc4\x20\x5f\xc3 (1 found)
0x140003bd3: mov ebx,  [rsp+0x30] ; add rsp, 0x20 ; pop rdi ; ret ; \x8b\x5c\x24\x30\x48\x83\xc4\x20\x5f\xc3 (1 found)
0x140003d61: mov ebx,  [rsp+0x30] ; add rsp, 0x20 ; pop rdi ; ret ; \x8b\x5c\x24\x30\x48\x83\xc4\x20\x5f\xc3 (1 found)
0x1400055ae: mov ebx,  [rsp+0x30] ; add rsp, 0x20 ; pop rdi ; ret ; \x8b\x5c\x24\x30\x48\x83\xc4\x20\x5f\xc3 (1 found)
0x1400058c7: mov ebx,  [rsp+0x30] ; add rsp, 0x20 ; pop rdi ; ret ; \x8b\x5c\x24\x30\x48\x83\xc4\x20\x5f\xc3 (1 found)
0x140005907: mov ebx,  [rsp+0x30] ; add rsp, 0x20 ; pop rdi ; ret ; \x8b\x5c\x24\x30\x48\x83\xc4\x20\x5f\xc3 (1 found)
0x14000bb62: mov ebx,  [rsp+0x30] ; add rsp, 0x20 ; pop rdi ; ret ; \x8b\x5c\x24\x30\x48\x83\xc4\x20\x5f\xc3 (1 found)
0x14000bf32: mov ebx,  [rsp+0x30] ; add rsp, 0x20 ; pop rdi ; ret ; \x8b\x5c\x24\x30\x48\x83\xc4\x20\x5f\xc3 (1 found)
0x14000c99b: mov ebx,  [rsp+0x30] ; add rsp, 0x20 ; pop rdi ; ret ; \x8b\x5c\x24\x30\x48\x83\xc4\x20\x5f\xc3 (1 found)
0x14000cc10: mov ebx,  [rsp+0x30] ; add rsp, 0x20 ; pop rdi ; ret ; \x8b\x5c\x24\x30\x48\x83\xc4\x20\x5f\xc3 (1 found)
0x14000cc50: mov ebx,  [rsp+0x30] ; add rsp, 0x20 ; pop rdi ; ret ; \x8b\x5c\x24\x30\x48\x83\xc4\x20\x5f\xc3 (1 found)
0x14000cc6f: mov ebx,  [rsp+0x30] ; add rsp, 0x20 ; pop rdi ; ret ; \x8b\x5c\x24\x30\x48\x83\xc4\x20\x5f\xc3 (1 found)
0x14000d3c4: mov ebx,  [rsp+0x30] ; add rsp, 0x20 ; pop rdi ; ret ; \x8b\x5c\x24\x30\x48\x83\xc4\x20\x5f\xc3 (1 found)
0x14000d523: mov ebx,  [rsp+0x30] ; add rsp, 0x20 ; pop rdi ; ret ; \x8b\x5c\x24\x30\x48\x83\xc4\x20\x5f\xc3 (1 found)
0x14000d567: mov ebx,  [rsp+0x30] ; add rsp, 0x20 ; pop rdi ; ret ; \x8b\x5c\x24\x30\x48\x83\xc4\x20\x5f\xc3 (1 found)
0x14000d777: mov ebx,  [rsp+0x30] ; add rsp, 0x20 ; pop rdi ; ret ; \x8b\x5c\x24\x30\x48\x83\xc4\x20\x5f\xc3 (1 found)
0x14000d7c1: mov ebx,  [rsp+0x30] ; add rsp, 0x20 ; pop rdi ; ret ; \x8b\x5c\x24\x30\x48\x83\xc4\x20\x5f\xc3 (1 found)
0x14000dae1: mov ebx,  [rsp+0x30] ; add rsp, 0x20 ; pop rdi ; ret ; \x8b\x5c\x24\x30\x48\x83\xc4\x20\x5f\xc3 (1 found)
0x14000db1d: mov ebx,  [rsp+0x30] ; add rsp, 0x20 ; pop rdi ; ret ; \x8b\x5c\x24\x30\x48\x83\xc4\x20\x5f\xc3 (1 found)
0x14000ff19: mov ebx,  [rsp+0x30] ; add rsp, 0x20 ; pop rdi ; ret ; \x8b\x5c\x24\x30\x48\x83\xc4\x20\x5f\xc3 (1 found)
0x14000ff99: mov ebx,  [rsp+0x30] ; add rsp, 0x20 ; pop rdi ; ret ; \x8b\x5c\x24\x30\x48\x83\xc4\x20\x5f\xc3 (1 found)
0x14000ffd7: mov ebx,  [rsp+0x30] ; add rsp, 0x20 ; pop rdi ; ret ; \x8b\x5c\x24\x30\x48\x83\xc4\x20\x5f\xc3 (1 found)
0x14001001f: mov ebx,  [rsp+0x30] ; add rsp, 0x20 ; pop rdi ; ret ; \x8b\x5c\x24\x30\x48\x83\xc4\x20\x5f\xc3 (1 found)
0x140010081: mov ebx,  [rsp+0x30] ; add rsp, 0x20 ; pop rdi ; ret ; \x8b\x5c\x24\x30\x48\x83\xc4\x20\x5f\xc3 (1 found)
0x1400102d1: mov ebx,  [rsp+0x30] ; add rsp, 0x20 ; pop rdi ; ret ; \x8b\x5c\x24\x30\x48\x83\xc4\x20\x5f\xc3 (1 found)
0x1400105d0: mov ebx,  [rsp+0x30] ; add rsp, 0x20 ; pop rdi ; ret ; \x8b\x5c\x24\x30\x48\x83\xc4\x20\x5f\xc3 (1 found)
0x140010df7: mov ebx,  [rsp+0x30] ; add rsp, 0x20 ; pop rdi ; ret ; \x8b\x5c\x24\x30\x48\x83\xc4\x20\x5f\xc3 (1 found)
0x1400110d9: mov ebx,  [rsp+0x30] ; add rsp, 0x20 ; pop rdi ; ret ; \x8b\x5c\x24\x30\x48\x83\xc4\x20\x5f\xc3 (1 found)
0x1400123ad: mov ebx,  [rsp+0x30] ; add rsp, 0x20 ; pop rdi ; ret ; \x8b\x5c\x24\x30\x48\x83\xc4\x20\x5f\xc3 (1 found)
0x140013ac6: mov ebx,  [rsp+0x30] ; add rsp, 0x20 ; pop rdi ; ret ; \x8b\x5c\x24\x30\x48\x83\xc4\x20\x5f\xc3 (1 found)
0x140015064: mov ebx,  [rsp+0x30] ; add rsp, 0x20 ; pop rdi ; ret ; \x8b\x5c\x24\x30\x48\x83\xc4\x20\x5f\xc3 (1 found)
0x1400156ce: mov ebx,  [rsp+0x30] ; add rsp, 0x20 ; pop rdi ; ret ; \x8b\x5c\x24\x30\x48\x83\xc4\x20\x5f\xc3 (1 found)
0x14001573b: mov ebx,  [rsp+0x30] ; add rsp, 0x20 ; pop rdi ; ret ; \x8b\x5c\x24\x30\x48\x83\xc4\x20\x5f\xc3 (1 found)
0x140015920: mov ebx,  [rsp+0x30] ; add rsp, 0x20 ; pop rdi ; ret ; \x8b\x5c\x24\x30\x48\x83\xc4\x20\x5f\xc3 (1 found)
0x1400159a2: mov ebx,  [rsp+0x30] ; add rsp, 0x20 ; pop rdi ; ret ; \x8b\x5c\x24\x30\x48\x83\xc4\x20\x5f\xc3 (1 found)
0x140018e0d: mov ebx,  [rsp+0x30] ; add rsp, 0x20 ; pop rdi ; ret ; \x8b\x5c\x24\x30\x48\x83\xc4\x20\x5f\xc3 (1 found)
0x1400193b7: mov ebx,  [rsp+0x30] ; add rsp, 0x20 ; pop rdi ; ret ; \x8b\x5c\x24\x30\x48\x83\xc4\x20\x5f\xc3 (1 found)
0x14001b093: mov ebx,  [rsp+0x30] ; add rsp, 0x20 ; pop rdi ; ret ; \x8b\x5c\x24\x30\x48\x83\xc4\x20\x5f\xc3 (1 found)
0x14001b291: mov ebx,  [rsp+0x30] ; add rsp, 0x20 ; pop rdi ; ret ; \x8b\x5c\x24\x30\x48\x83\xc4\x20\x5f\xc3 (1 found)
0x1400108a4: mov ebx,  [rsp+0x30] ; mov al, 0x01 ; add rsp, 0x20 ; pop rdi ; ret ; \x8b\x5c\x24\x30\xb0\x01\x48\x83\xc4\x20\x5f\xc3 (1 found)
0x1400158d6: mov ebx,  [rsp+0x30] ; mov al, 0x01 ; add rsp, 0x20 ; pop rdi ; ret ; \x8b\x5c\x24\x30\xb0\x01\x48\x83\xc4\x20\x5f\xc3 (1 found)
0x14000b15d: mov ebx,  [rsp+0x30] ; mov eax, r10d ; mov rsi, qword [rsp+0x38] ; add rsp, 0x20 ; pop rdi ; ret ; \x8b\x5c\x24\x30\x41\x8b\xc2\x48\x8b\x74\x24\x38\x48\x83\xc4\x20\x5f\xc3 (1 found)
0x14000b1d1: mov ebx,  [rsp+0x30] ; mov eax, r10d ; mov rsi, qword [rsp+0x38] ; add rsp, 0x20 ; pop rdi ; ret ; \x8b\x5c\x24\x30\x41\x8b\xc2\x48\x8b\x74\x24\x38\x48\x83\xc4\x20\x5f\xc3 (1 found)
0x14000b245: mov ebx,  [rsp+0x30] ; mov eax, r10d ; mov rsi, qword [rsp+0x38] ; add rsp, 0x20 ; pop rdi ; ret ; \x8b\x5c\x24\x30\x41\x8b\xc2\x48\x8b\x74\x24\x38\x48\x83\xc4\x20\x5f\xc3 (1 found)
0x14000ccf8: mov ebx,  [rsp+0x30] ; mov eax, r10d ; mov rsi, qword [rsp+0x38] ; add rsp, 0x20 ; pop rdi ; ret ; \x8b\x5c\x24\x30\x41\x8b\xc2\x48\x8b\x74\x24\x38\x48\x83\xc4\x20\x5f\xc3 (1 found)
0x140004d09: mov ebx,  [rsp+0x30] ; mov rax, rdi ; add rsp, 0x20 ; pop rdi ; ret ; \x8b\x5c\x24\x30\x48\x8b\xc7\x48\x83\xc4\x20\x5f\xc3 (1 found)
0x140004d4d: mov ebx,  [rsp+0x30] ; mov rax, rdi ; add rsp, 0x20 ; pop rdi ; ret ; \x8b\x5c\x24\x30\x48\x8b\xc7\x48\x83\xc4\x20\x5f\xc3 (1 found)
0x14000babd: mov ebx,  [rsp+0x30] ; mov rax, rdi ; mov rsi, qword [rsp+0x38] ; add rsp, 0x20 ; pop rdi ; ret ; \x8b\x5c\x24\x30\x48\x8b\xc7\x48\x8b\x74\x24\x38\x48\x83\xc4\x20\x5f\xc3 (1 found)
0x140010397: mov ebx,  [rsp+0x30] ; mov rax, rdi ; mov rsi, qword [rsp+0x38] ; add rsp, 0x20 ; pop rdi ; ret ; \x8b\x5c\x24\x30\x48\x8b\xc7\x48\x8b\x74\x24\x38\x48\x83\xc4\x20\x5f\xc3 (1 found)
0x14001050a: mov ebx,  [rsp+0x30] ; mov rax, rdi ; mov rsi, qword [rsp+0x38] ; add rsp, 0x20 ; pop rdi ; ret ; \x8b\x5c\x24\x30\x48\x8b\xc7\x48\x8b\x74\x24\x38\x48\x83\xc4\x20\x5f\xc3 (1 found)
0x140015169: mov ebx,  [rsp+0x30] ; mov rbp, qword [rsp+0x38] ; add rsp, 0x20 ; pop rsi ; ret ; \x8b\x5c\x24\x30\x48\x8b\x6c\x24\x38\x48\x83\xc4\x20\x5e\xc3 (1 found)
0x1400037a6: mov ebx,  [rsp+0x30] ; mov rbp, qword [rsp+0x38] ; mov rsi, qword [rsp+0x40] ; add rsp, 0x20 ; pop rdi ; ret ; \x8b\x5c\x24\x30\x48\x8b\x6c\x24\x38\x48\x8b\x74\x24\x40\x48\x83\xc4\x20\x5f\xc3 (1 found)
0x140005350: mov ebx,  [rsp+0x30] ; mov rbp, qword [rsp+0x38] ; mov rsi, qword [rsp+0x40] ; add rsp, 0x20 ; pop rdi ; ret ; \x8b\x5c\x24\x30\x48\x8b\x6c\x24\x38\x48\x8b\x74\x24\x40\x48\x83\xc4\x20\x5f\xc3 (1 found)
0x140005b60: mov ebx,  [rsp+0x30] ; mov rbp, qword [rsp+0x38] ; mov rsi, qword [rsp+0x40] ; add rsp, 0x20 ; pop rdi ; ret ; \x8b\x5c\x24\x30\x48\x8b\x6c\x24\x38\x48\x8b\x74\x24\x40\x48\x83\xc4\x20\x5f\xc3 (1 found)
0x140005c0c: mov ebx,  [rsp+0x30] ; mov rbp, qword [rsp+0x38] ; mov rsi, qword [rsp+0x40] ; add rsp, 0x20 ; pop rdi ; ret ; \x8b\x5c\x24\x30\x48\x8b\x6c\x24\x38\x48\x8b\x74\x24\x40\x48\x83\xc4\x20\x5f\xc3 (1 found)
0x14000bd28: mov ebx,  [rsp+0x30] ; mov rbp, qword [rsp+0x38] ; mov rsi, qword [rsp+0x40] ; add rsp, 0x20 ; pop rdi ; ret ; \x8b\x5c\x24\x30\x48\x8b\x6c\x24\x38\x48\x8b\x74\x24\x40\x48\x83\xc4\x20\x5f\xc3 (1 found)
0x14000ce03: mov ebx,  [rsp+0x30] ; mov rbp, qword [rsp+0x38] ; mov rsi, qword [rsp+0x40] ; add rsp, 0x20 ; pop rdi ; ret ; \x8b\x5c\x24\x30\x48\x8b\x6c\x24\x38\x48\x8b\x74\x24\x40\x48\x83\xc4\x20\x5f\xc3 (1 found)
0x140014514: mov ebx,  [rsp+0x30] ; mov rbp, qword [rsp+0x38] ; mov rsi, qword [rsp+0x40] ; add rsp, 0x20 ; pop rdi ; ret ; \x8b\x5c\x24\x30\x48\x8b\x6c\x24\x38\x48\x8b\x74\x24\x40\x48\x83\xc4\x20\x5f\xc3 (1 found)
0x1400157c9: mov ebx,  [rsp+0x30] ; mov rbp, qword [rsp+0x38] ; mov rsi, qword [rsp+0x40] ; add rsp, 0x20 ; pop rdi ; ret ; \x8b\x5c\x24\x30\x48\x8b\x6c\x24\x38\x48\x8b\x74\x24\x40\x48\x83\xc4\x20\x5f\xc3 (1 found)
0x140015d34: mov ebx,  [rsp+0x30] ; mov rbp, qword [rsp+0x38] ; mov rsi, qword [rsp+0x40] ; add rsp, 0x20 ; pop rdi ; ret ; \x8b\x5c\x24\x30\x48\x8b\x6c\x24\x38\x48\x8b\x74\x24\x40\x48\x83\xc4\x20\x5f\xc3 (1 found)
0x140003328: mov ebx,  [rsp+0x30] ; mov rsi, qword [rsp+0x38] ; add rsp, 0x20 ; pop rdi ; ret ; \x8b\x5c\x24\x30\x48\x8b\x74\x24\x38\x48\x83\xc4\x20\x5f\xc3 (1 found)
0x1400036f2: mov ebx,  [rsp+0x30] ; mov rsi, qword [rsp+0x38] ; add rsp, 0x20 ; pop rdi ; ret ; \x8b\x5c\x24\x30\x48\x8b\x74\x24\x38\x48\x83\xc4\x20\x5f\xc3 (1 found)
0x14000383d: mov ebx,  [rsp+0x30] ; mov rsi, qword [rsp+0x38] ; add rsp, 0x20 ; pop rdi ; ret ; \x8b\x5c\x24\x30\x48\x8b\x74\x24\x38\x48\x83\xc4\x20\x5f\xc3 (1 found)
0x14000a26a: mov ebx,  [rsp+0x30] ; mov rsi, qword [rsp+0x38] ; add rsp, 0x20 ; pop rdi ; ret ; \x8b\x5c\x24\x30\x48\x8b\x74\x24\x38\x48\x83\xc4\x20\x5f\xc3 (1 found)
0x14000a2ea: mov ebx,  [rsp+0x30] ; mov rsi, qword [rsp+0x38] ; add rsp, 0x20 ; pop rdi ; ret ; \x8b\x5c\x24\x30\x48\x8b\x74\x24\x38\x48\x83\xc4\x20\x5f\xc3 (1 found)
0x14000a36a: mov ebx,  [rsp+0x30] ; mov rsi, qword [rsp+0x38] ; add rsp, 0x20 ; pop rdi ; ret ; \x8b\x5c\x24\x30\x48\x8b\x74\x24\x38\x48\x83\xc4\x20\x5f\xc3 (1 found)
0x14000afb5: mov ebx,  [rsp+0x30] ; mov rsi, qword [rsp+0x38] ; add rsp, 0x20 ; pop rdi ; ret ; \x8b\x5c\x24\x30\x48\x8b\x74\x24\x38\x48\x83\xc4\x20\x5f\xc3 (1 found)
0x14000b051: mov ebx,  [rsp+0x30] ; mov rsi, qword [rsp+0x38] ; add rsp, 0x20 ; pop rdi ; ret ; \x8b\x5c\x24\x30\x48\x8b\x74\x24\x38\x48\x83\xc4\x20\x5f\xc3 (1 found)
0x14000b0ed: mov ebx,  [rsp+0x30] ; mov rsi, qword [rsp+0x38] ; add rsp, 0x20 ; pop rdi ; ret ; \x8b\x5c\x24\x30\x48\x8b\x74\x24\x38\x48\x83\xc4\x20\x5f\xc3 (1 found)
0x14000b2c7: mov ebx,  [rsp+0x30] ; mov rsi, qword [rsp+0x38] ; add rsp, 0x20 ; pop rdi ; ret ; \x8b\x5c\x24\x30\x48\x8b\x74\x24\x38\x48\x83\xc4\x20\x5f\xc3 (1 found)
0x14000ca80: mov ebx,  [rsp+0x30] ; mov rsi, qword [rsp+0x38] ; add rsp, 0x20 ; pop rdi ; ret ; \x8b\x5c\x24\x30\x48\x8b\x74\x24\x38\x48\x83\xc4\x20\x5f\xc3 (1 found)
0x14000e385: mov ebx,  [rsp+0x30] ; mov rsi, qword [rsp+0x38] ; add rsp, 0x20 ; pop rdi ; ret ; \x8b\x5c\x24\x30\x48\x8b\x74\x24\x38\x48\x83\xc4\x20\x5f\xc3 (1 found)
0x140010ca9: mov ebx,  [rsp+0x30] ; mov rsi, qword [rsp+0x38] ; add rsp, 0x20 ; pop rdi ; ret ; \x8b\x5c\x24\x30\x48\x8b\x74\x24\x38\x48\x83\xc4\x20\x5f\xc3 (1 found)
0x1400125d2: mov ebx,  [rsp+0x30] ; mov rsi, qword [rsp+0x38] ; add rsp, 0x20 ; pop rdi ; ret ; \x8b\x5c\x24\x30\x48\x8b\x74\x24\x38\x48\x83\xc4\x20\x5f\xc3 (1 found)
0x140014a6d: mov ebx,  [rsp+0x30] ; mov rsi, qword [rsp+0x38] ; add rsp, 0x20 ; pop rdi ; ret ; \x8b\x5c\x24\x30\x48\x8b\x74\x24\x38\x48\x83\xc4\x20\x5f\xc3 (1 found)
0x14001588d: mov ebx,  [rsp+0x30] ; mov rsi, qword [rsp+0x38] ; add rsp, 0x20 ; pop rdi ; ret ; \x8b\x5c\x24\x30\x48\x8b\x74\x24\x38\x48\x83\xc4\x20\x5f\xc3 (1 found)
0x140017604: mov ebx,  [rsp+0x30] ; mov rsi, qword [rsp+0x38] ; add rsp, 0x20 ; pop rdi ; ret ; \x8b\x5c\x24\x30\x48\x8b\x74\x24\x38\x48\x83\xc4\x20\x5f\xc3 (1 found)
0x140017be0: mov ebx,  [rsp+0x30] ; mov rsi, qword [rsp+0x38] ; add rsp, 0x20 ; pop rdi ; ret ; \x8b\x5c\x24\x30\x48\x8b\x74\x24\x38\x48\x83\xc4\x20\x5f\xc3 (1 found)
0x140017cad: mov ebx,  [rsp+0x30] ; mov rsi, qword [rsp+0x38] ; add rsp, 0x20 ; pop rdi ; ret ; \x8b\x5c\x24\x30\x48\x8b\x74\x24\x38\x48\x83\xc4\x20\x5f\xc3 (1 found)
0x140004081: mov ebx,  [rsp+0x30] ; mov rsi, qword [rsp+0x38] ; mov rdi, qword [rsp+0x40] ; add rsp, 0x20 ; pop r14 ; ret ; \x8b\x5c\x24\x30\x48\x8b\x74\x24\x38\x48\x8b\x7c\x24\x40\x48\x83\xc4\x20\x41\x5e\xc3 (1 found)
0x140005498: mov ebx,  [rsp+0x30] ; mov rsi, qword [rsp+0x38] ; mov rdi, qword [rsp+0x40] ; add rsp, 0x20 ; pop r14 ; ret ; \x8b\x5c\x24\x30\x48\x8b\x74\x24\x38\x48\x8b\x7c\x24\x40\x48\x83\xc4\x20\x41\x5e\xc3 (1 found)
0x140014e19: mov ebx,  [rsp+0x30] ; mov rsi, qword [rsp+0x38] ; mov rdi, qword [rsp+0x40] ; add rsp, 0x20 ; pop r14 ; ret ; \x8b\x5c\x24\x30\x48\x8b\x74\x24\x38\x48\x8b\x7c\x24\x40\x48\x83\xc4\x20\x41\x5e\xc3 (1 found)
0x1400051df: mov ebx,  [rsp+0x30] ; mov rsi, qword [rsp+0x40] ; add rsp, 0x20 ; pop rdi ; ret ; \x8b\x5c\x24\x30\x48\x8b\x74\x24\x40\x48\x83\xc4\x20\x5f\xc3 (1 found)
0x14001228d: mov ebx,  [rsp+0x30] ; mov rsi, qword [rsp+0x40] ; mov rdi, qword [rsp+0x48] ; add rsp, 0x20 ; pop r14 ; ret ; \x8b\x5c\x24\x30\x48\x8b\x74\x24\x40\x48\x8b\x7c\x24\x48\x48\x83\xc4\x20\x41\x5e\xc3 (1 found)
0x14001a8e1: mov ebx,  [rsp+0x30] ; sete al ; add rsp, 0x20 ; pop rdi ; ret ; \x8b\x5c\x24\x30\x0f\x94\xc0\x48\x83\xc4\x20\x5f\xc3 (1 found)
0x1400026a1: mov ebx,  [rsp+0x30] ; xor eax, eax ; add rsp, 0x20 ; pop rdi ; ret ; \x8b\x5c\x24\x30\x33\xc0\x48\x83\xc4\x20\x5f\xc3 (1 found)
0x140003136: mov ebx,  [rsp+0x30] ; xor eax, eax ; add rsp, 0x20 ; pop rdi ; ret ; \x8b\x5c\x24\x30\x33\xc0\x48\x83\xc4\x20\x5f\xc3 (1 found)
0x14000cc7a: mov ebx,  [rsp+0x30] ; xor eax, eax ; add rsp, 0x20 ; pop rdi ; ret ; \x8b\x5c\x24\x30\x33\xc0\x48\x83\xc4\x20\x5f\xc3 (1 found)
0x14000ab6e: mov ebx,  [rsp+0x38] ; add rsp, 0x20 ; pop rdi ; ret ; \x8b\x5c\x24\x38\x48\x83\xc4\x20\x5f\xc3 (1 found)
0x14000ac32: mov ebx,  [rsp+0x38] ; add rsp, 0x20 ; pop rdi ; ret ; \x8b\x5c\x24\x38\x48\x83\xc4\x20\x5f\xc3 (1 found)
0x14000acf6: mov ebx,  [rsp+0x38] ; add rsp, 0x20 ; pop rdi ; ret ; \x8b\x5c\x24\x38\x48\x83\xc4\x20\x5f\xc3 (1 found)
0x14000c15a: mov ebx,  [rsp+0x38] ; add rsp, 0x20 ; pop rdi ; ret ; \x8b\x5c\x24\x38\x48\x83\xc4\x20\x5f\xc3 (1 found)
0x1400194c6: mov ebx,  [rsp+0x38] ; add rsp, 0x20 ; pop rdi ; ret ; \x8b\x5c\x24\x38\x48\x83\xc4\x20\x5f\xc3 (1 found)
0x14000e334: mov ebx,  [rsp+0x38] ; mov rax, rsi ; mov rsi, qword [rsp+0x40] ; add rsp, 0x20 ; pop rdi ; ret ; \x8b\x5c\x24\x38\x48\x8b\xc6\x48\x8b\x74\x24\x40\x48\x83\xc4\x20\x5f\xc3 (1 found)
0x140018976: mov ebx,  [rsp+0x38] ; mov rbp, qword [rsp+0x40] ; add rsp, 0x20 ; pop rdi ; ret ; \x8b\x5c\x24\x38\x48\x8b\x6c\x24\x40\x48\x83\xc4\x20\x5f\xc3 (1 found)
0x140017997: mov ebx,  [rsp+0x38] ; mov rbp, qword [rsp+0x40] ; mov rsi, qword [rsp+0x48] ; add rsp, 0x20 ; pop rdi ; ret ; \x8b\x5c\x24\x38\x48\x8b\x6c\x24\x40\x48\x8b\x74\x24\x48\x48\x83\xc4\x20\x5f\xc3 (1 found)
0x140017a93: mov ebx,  [rsp+0x38] ; mov rbp, qword [rsp+0x40] ; mov rsi, qword [rsp+0x48] ; add rsp, 0x20 ; pop rdi ; ret ; \x8b\x5c\x24\x38\x48\x8b\x6c\x24\x40\x48\x8b\x74\x24\x48\x48\x83\xc4\x20\x5f\xc3 (1 found)
0x140013fcb: mov ebx,  [rsp+0x38] ; mov rsi, qword [rsp+0x40] ; add rsp, 0x20 ; pop rdi ; ret ; \x8b\x5c\x24\x38\x48\x8b\x74\x24\x40\x48\x83\xc4\x20\x5f\xc3 (1 found)
0x14001aeec: mov ebx,  [rsp+0x38] ; mov rsi, qword [rsp+0x40] ; mov rdi, qword [rsp+0x48] ; add rsp, 0x20 ; pop rbp ; ret ; \x8b\x5c\x24\x38\x48\x8b\x74\x24\x40\x48\x8b\x7c\x24\x48\x48\x83\xc4\x20\x5d\xc3 (1 found)
0x14000ada5: mov ebx,  [rsp+0x40] ; add rsp, 0x30 ; pop rdi ; ret ; \x8b\x5c\x24\x40\x48\x83\xc4\x30\x5f\xc3 (1 found)
0x14000ae5d: mov ebx,  [rsp+0x40] ; add rsp, 0x30 ; pop rdi ; ret ; \x8b\x5c\x24\x40\x48\x83\xc4\x30\x5f\xc3 (1 found)
0x14000af15: mov ebx,  [rsp+0x40] ; add rsp, 0x30 ; pop rdi ; ret ; \x8b\x5c\x24\x40\x48\x83\xc4\x30\x5f\xc3 (1 found)
0x14000d59a: mov ebx,  [rsp+0x40] ; mov rbp, qword [rsp+0x48] ; mov rsi, qword [rsp+0x50] ; add rsp, 0x30 ; pop rdi ; ret ; \x8b\x5c\x24\x40\x48\x8b\x6c\x24\x48\x48\x8b\x74\x24\x50\x48\x83\xc4\x30\x5f\xc3 (1 found)
0x14000e5f6: mov ebx,  [rsp+0x40] ; mov rbp, qword [rsp+0x48] ; mov rsi, qword [rsp+0x50] ; add rsp, 0x30 ; pop rdi ; ret ; \x8b\x5c\x24\x40\x48\x8b\x6c\x24\x48\x48\x8b\x74\x24\x50\x48\x83\xc4\x30\x5f\xc3 (1 found)
0x140015e44: mov ebx,  [rsp+0x40] ; mov rbp, qword [rsp+0x48] ; mov rsi, qword [rsp+0x50] ; add rsp, 0x30 ; pop rdi ; ret ; \x8b\x5c\x24\x40\x48\x8b\x6c\x24\x48\x48\x8b\x74\x24\x50\x48\x83\xc4\x30\x5f\xc3 (1 found)
0x140017ffd: mov ebx,  [rsp+0x40] ; mov rbp, qword [rsp+0x48] ; mov rsi, qword [rsp+0x50] ; add rsp, 0x30 ; pop rdi ; ret ; \x8b\x5c\x24\x40\x48\x8b\x6c\x24\x48\x48\x8b\x74\x24\x50\x48\x83\xc4\x30\x5f\xc3 (1 found)
0x14001afbd: mov ebx,  [rsp+0x40] ; mov rsi, qword [rsp+0x48] ; add rsp, 0x20 ; pop rdi ; ret ; \x8b\x5c\x24\x40\x48\x8b\x74\x24\x48\x48\x83\xc4\x20\x5f\xc3 (1 found)
0x140001f7c: mov ebx,  [rsp+0x40] ; mov rsi, qword [rsp+0x48] ; add rsp, 0x30 ; pop rdi ; ret ; \x8b\x5c\x24\x40\x48\x8b\x74\x24\x48\x48\x83\xc4\x30\x5f\xc3 (1 found)
0x14000c04e: mov ebx,  [rsp+0x40] ; mov rsi, qword [rsp+0x48] ; add rsp, 0x30 ; pop rdi ; ret ; \x8b\x5c\x24\x40\x48\x8b\x74\x24\x48\x48\x83\xc4\x30\x5f\xc3 (1 found)
0x14000d9bb: mov ebx,  [rsp+0x40] ; mov rsi, qword [rsp+0x48] ; add rsp, 0x30 ; pop rdi ; ret ; \x8b\x5c\x24\x40\x48\x8b\x74\x24\x48\x48\x83\xc4\x30\x5f\xc3 (1 found)
0x140014aaf: mov ebx,  [rsp+0x40] ; mov rsi, qword [rsp+0x48] ; mov rdi, qword [rsp+0x50] ; add rsp, 0x30 ; pop r15 ; ret ; \x8b\x5c\x24\x40\x48\x8b\x74\x24\x48\x48\x8b\x7c\x24\x50\x48\x83\xc4\x30\x41\x5f\xc3 (1 found)
0x14000bf7b: mov ebx,  [rsp+0x48] ; add rsp, 0x30 ; pop rdi ; ret ; \x8b\x5c\x24\x48\x48\x83\xc4\x30\x5f\xc3 (1 found)
0x140010f14: mov ebx,  [rsp+0x48] ; add rsp, 0x30 ; pop rdi ; ret ; \x8b\x5c\x24\x48\x48\x83\xc4\x30\x5f\xc3 (1 found)
0x140008547: mov ebx,  [rsp+0x48] ; mov rbp, qword [rsp+0x50] ; add rsp, 0x30 ; pop rdi ; ret ; \x8b\x5c\x24\x48\x48\x8b\x6c\x24\x50\x48\x83\xc4\x30\x5f\xc3 (1 found)
0x1400085d7: mov ebx,  [rsp+0x48] ; mov rbp, qword [rsp+0x50] ; add rsp, 0x30 ; pop rdi ; ret ; \x8b\x5c\x24\x48\x48\x8b\x6c\x24\x50\x48\x83\xc4\x30\x5f\xc3 (1 found)
0x140008667: mov ebx,  [rsp+0x48] ; mov rbp, qword [rsp+0x50] ; add rsp, 0x30 ; pop rdi ; ret ; \x8b\x5c\x24\x48\x48\x8b\x6c\x24\x50\x48\x83\xc4\x30\x5f\xc3 (1 found)
0x14000be51: mov ebx,  [rsp+0x48] ; mov rsi, qword [rsp+0x50] ; mov rdi, qword [rsp+0x58] ; add rsp, 0x30 ; pop r14 ; ret ; \x8b\x5c\x24\x48\x48\x8b\x74\x24\x50\x48\x8b\x7c\x24\x58\x48\x83\xc4\x30\x41\x5e\xc3 (1 found)
0x14001889f: mov ebx,  [rsp+0x50] ; add rsp, 0x30 ; pop r14 ; pop rdi ; pop rsi ; ret ; \x8b\x5c\x24\x50\x48\x83\xc4\x30\x41\x5e\x5f\x5e\xc3 (1 found)
0x1400010ae: mov ebx,  [rsp+0x50] ; add rsp, 0x40 ; pop rdi ; ret ; \x8b\x5c\x24\x50\x48\x83\xc4\x40\x5f\xc3 (1 found)
0x140001304: mov ebx,  [rsp+0x50] ; add rsp, 0x40 ; pop rdi ; ret ; \x8b\x5c\x24\x50\x48\x83\xc4\x40\x5f\xc3 (1 found)
0x14000131f: mov ebx,  [rsp+0x50] ; add rsp, 0x40 ; pop rdi ; ret ; \x8b\x5c\x24\x50\x48\x83\xc4\x40\x5f\xc3 (1 found)
0x1400139ac: mov ebx,  [rsp+0x50] ; add rsp, 0x40 ; pop rdi ; ret ; \x8b\x5c\x24\x50\x48\x83\xc4\x40\x5f\xc3 (1 found)
0x14001a1a7: mov ebx,  [rsp+0x50] ; mov rsi, qword [rsp+0x60] ; add rsp, 0x40 ; pop rdi ; ret ; \x8b\x5c\x24\x50\x48\x8b\x74\x24\x60\x48\x83\xc4\x40\x5f\xc3 (1 found)
0x140002418: mov ebx,  [rsp+0x50] ; not rax ; mov qword [0x000000014002A040], rax ; add rsp, 0x30 ; pop rbp ; ret ; \x8b\x5c\x24\x50\x48\xf7\xd0\x48\x89\x05\x1a\x7c\x02\x00\x48\x83\xc4\x30\x5d\xc3 (1 found)
0x140003cae: mov ebx,  [rsp+0x58] ; mov rbp, qword [rsp+0x60] ; mov rsi, qword [rsp+0x68] ; add rsp, 0x40 ; pop rdi ; ret ; \x8b\x5c\x24\x58\x48\x8b\x6c\x24\x60\x48\x8b\x74\x24\x68\x48\x83\xc4\x40\x5f\xc3 (1 found)
0x140005737: mov ebx,  [rsp+0x60] ; add rsp, 0x50 ; pop rbp ; ret ; \x8b\x5c\x24\x60\x48\x83\xc4\x50\x5d\xc3 (1 found)
0x1400183a3: mov ebx,  [rsp+0x60] ; add rsp, 0x50 ; pop rdi ; ret ; \x8b\x5c\x24\x60\x48\x83\xc4\x50\x5f\xc3 (1 found)
0x14000f241: mov ebx,  [rsp+0x60] ; mov rbp, qword [rsp+0x68] ; mov rsi, qword [rsp+0x70] ; add rsp, 0x50 ; pop rdi ; ret ; \x8b\x5c\x24\x60\x48\x8b\x6c\x24\x68\x48\x8b\x74\x24\x70\x48\x83\xc4\x50\x5f\xc3 (1 found)
0x140010c14: mov ebx,  [rsp+0x60] ; mov rbp, qword [rsp+0x68] ; mov rsi, qword [rsp+0x70] ; add rsp, 0x50 ; pop rdi ; ret ; \x8b\x5c\x24\x60\x48\x8b\x6c\x24\x68\x48\x8b\x74\x24\x70\x48\x83\xc4\x50\x5f\xc3 (1 found)
0x140010d90: mov ebx,  [rsp+0x60] ; mov rbp, qword [rsp+0x68] ; mov rsi, qword [rsp+0x70] ; add rsp, 0x50 ; pop rdi ; ret ; \x8b\x5c\x24\x60\x48\x8b\x6c\x24\x68\x48\x8b\x74\x24\x70\x48\x83\xc4\x50\x5f\xc3 (1 found)
0x140017e33: mov ebx,  [rsp+0x60] ; mov rbp, qword [rsp+0x68] ; mov rsi, qword [rsp+0x70] ; add rsp, 0x50 ; pop rdi ; ret ; \x8b\x5c\x24\x60\x48\x8b\x6c\x24\x68\x48\x8b\x74\x24\x70\x48\x83\xc4\x50\x5f\xc3 (1 found)
0x140019328: mov ebx,  [rsp+0x60] ; mov rbp, qword [rsp+0x68] ; mov rsi, qword [rsp+0x70] ; add rsp, 0x50 ; pop rdi ; ret ; \x8b\x5c\x24\x60\x48\x8b\x6c\x24\x68\x48\x8b\x74\x24\x70\x48\x83\xc4\x50\x5f\xc3 (1 found)
0x14000f8dc: mov ebx,  [rsp+0x60] ; mov rsi, qword [rsp+0x68] ; add rsp, 0x50 ; pop rdi ; ret ; \x8b\x5c\x24\x60\x48\x8b\x74\x24\x68\x48\x83\xc4\x50\x5f\xc3 (1 found)
0x140012331: mov ebx,  [rsp+0x60] ; mov rsi, qword [rsp+0x78] ; add rsp, 0x50 ; pop rdi ; ret ; \x8b\x5c\x24\x60\x48\x8b\x74\x24\x78\x48\x83\xc4\x50\x5f\xc3 (1 found)
0x14000bdfd: mov ebx,  [rsp+0x70] ; mov eax, edi ; mov rdi, qword [rsp+0x78] ; add rsp, 0x60 ; pop rbp ; ret ; \x8b\x5c\x24\x70\x8b\xc7\x48\x8b\x7c\x24\x78\x48\x83\xc4\x60\x5d\xc3 (1 found)
0x14000c0e7: mov ebx,  [rsp+0x70] ; mov eax, edi ; mov rdi, qword [rsp+0x78] ; add rsp, 0x60 ; pop rbp ; ret ; \x8b\x5c\x24\x70\x8b\xc7\x48\x8b\x7c\x24\x78\x48\x83\xc4\x60\x5d\xc3 (1 found)
0x140011a07: mov ebx,  [rsp+0x70] ; mov eax, edi ; mov rdi, qword [rsp+0x78] ; add rsp, 0x60 ; pop rbp ; ret ; \x8b\x5c\x24\x70\x8b\xc7\x48\x8b\x7c\x24\x78\x48\x83\xc4\x60\x5d\xc3 (1 found)
0x140012503: mov ebx,  [rsp+0x70] ; mov eax, edi ; mov rdi, qword [rsp+0x78] ; add rsp, 0x60 ; pop rbp ; ret ; \x8b\x5c\x24\x70\x8b\xc7\x48\x8b\x7c\x24\x78\x48\x83\xc4\x60\x5d\xc3 (1 found)
0x14001a23f: mov ebx,  [rsp+0x70] ; mov eax, edi ; mov rdi, qword [rsp+0x78] ; add rsp, 0x60 ; pop rbp ; ret ; \x8b\x5c\x24\x70\x8b\xc7\x48\x8b\x7c\x24\x78\x48\x83\xc4\x60\x5d\xc3 (1 found)
0x14001809c: mov ebx,  [rsp+0x70] ; mov rax, rdi ; mov rdi, qword [rsp+0x78] ; add rsp, 0x60 ; pop rbp ; ret ; \x8b\x5c\x24\x70\x48\x8b\xc7\x48\x8b\x7c\x24\x78\x48\x83\xc4\x60\x5d\xc3 (1 found)
0x140018138: mov ebx,  [rsp+0x70] ; mov rax, rdi ; mov rdi, qword [rsp+0x78] ; add rsp, 0x60 ; pop rbp ; ret ; \x8b\x5c\x24\x70\x48\x8b\xc7\x48\x8b\x7c\x24\x78\x48\x83\xc4\x60\x5d\xc3 (1 found)
0x140005570: mov ebx,  [rsp+0x70] ; mov rsi, qword [rsp+0x78] ; add rsp, 0x50 ; pop rdi ; ret ; \x8b\x5c\x24\x70\x48\x8b\x74\x24\x78\x48\x83\xc4\x50\x5f\xc3 (1 found)
0x140002395: mov ebx, 0x2DDFA232 ; cdq ; sub eax,  [rax] ; add byte [rax+0x3B], cl ; ret ; \xbb\x32\xa2\xdf\x2d\x99\x2b\x00\x00\x48\x3b\xc3 (1 found)
0x14001b7a7: mov ebx, ecx ; shr r11, 0x04 ; mov r11d,  [r10+r11*4+0x000263E8] ; add r11, r10 ; jmp r11 ; \x8b\xd9\x49\xc1\xeb\x04\x47\x8b\x9c\x9a\xe8\x63\x02\x00\x4d\x03\xda\x41\xff\xe3 (1 found)
0x14001bd35: mov ebx, ecx ; shr r11, 0x04 ; mov r11d,  [r10+r11*4+0x00026498] ; add r11, r10 ; jmp r11 ; \x8b\xd9\x49\xc1\xeb\x04\x47\x8b\x9c\x9a\x98\x64\x02\x00\x4d\x03\xda\x41\xff\xe3 (1 found)
0x14001b5f3: mov ebx, ecx ; shr r11, 0x05 ; mov r11d,  [r10+r11*4+0x000263A0] ; add r11, r10 ; jmp r11 ; \x8b\xd9\x49\xc1\xeb\x05\x47\x8b\x9c\x9a\xa0\x63\x02\x00\x4d\x03\xda\x41\xff\xe3 (1 found)
0x14001b6b3: mov ebx, ecx ; shr r11, 0x05 ; mov r11d,  [r10+r11*4+0x000263C4] ; add r11, r10 ; jmp r11 ; \x8b\xd9\x49\xc1\xeb\x05\x47\x8b\x9c\x9a\xc4\x63\x02\x00\x4d\x03\xda\x41\xff\xe3 (1 found)
0x14001ba91: mov ebx, ecx ; shr r11, 0x05 ; mov r11d,  [r10+r11*4+0x00026450] ; add r11, r10 ; jmp r11 ; \x8b\xd9\x49\xc1\xeb\x05\x47\x8b\x9c\x9a\x50\x64\x02\x00\x4d\x03\xda\x41\xff\xe3 (1 found)
0x14001bbc1: mov ebx, ecx ; shr r11, 0x05 ; mov r11d,  [r10+r11*4+0x00026474] ; add r11, r10 ; jmp r11 ; \x8b\xd9\x49\xc1\xeb\x05\x47\x8b\x9c\x9a\x74\x64\x02\x00\x4d\x03\xda\x41\xff\xe3 (1 found)
0x14000fc55: mov ecx,  [0x000000014002A000] ; xor eax, eax ; or rcx, 0x01 ; cmp qword [0x000000014002B7A8], rcx ; sete al ; ret ; \x8b\x0d\xa5\xa3\x01\x00\x33\xc0\x48\x83\xc9\x01\x48\x39\x0d\x40\xbb\x01\x00\x0f\x94\xc0\xc3 (1 found)
0x14000e282: mov ecx,  [rax+0x60] ; mov eax,  [rcx+0x000000BC] ; shr eax, 0x08 ; and al, 0x01 ; ret ; \x8b\x48\x60\x8b\x81\xbc\x00\x00\x00\xc1\xe8\x08\x24\x01\xc3 (1 found)
0x14000e29e: mov ecx,  [rax+0x60] ; mov rax, qword [rcx+0x20] ; mov eax,  [rax+0x08] ; shr eax, 0x1F ; ret ; \x8b\x48\x60\x48\x8b\x41\x20\x8b\x40\x08\xc1\xe8\x1f\xc3 (1 found)
0x14001c0c0: mov ecx,  [rbp+0x40] ; mov qword [rax+0x28], rcx ; add rsp, 0x28 ; pop rbp ; pop rbx ; ret ; \x8b\x4d\x40\x48\x89\x48\x28\x48\x83\xc4\x28\x5d\x5b\xc3 (1 found)
0x140015c0d: mov ecx,  [rbx-0x3474EFB0] ; mov rax, rsi ; mov r8, qword [0x000000014001D308] ; call r8 ; \x8b\x8b\x50\x10\x8b\xcb\x48\x8b\xc6\x4c\x8b\x05\xeb\x76\x00\x00\x41\xff\xd0 (1 found)
0x1400030e9: mov ecx,  [rcx+rcx] ; movsxd r8, qword [rdx+rcx] ; add r8, r9 ; add rax, r8 ; ret ; \x8b\x0c\x09\x4c\x63\x04\x0a\x4d\x03\xc1\x49\x03\xc0\xc3 (1 found)
0x14001b916: mov ecx,  [rdx+0x08] ; mov qword [rax], r8 ; mov  [rax+0x08], ecx ; ret ; \x8b\x4a\x08\x4c\x89\x00\x89\x48\x08\xc3 (1 found)
0x14001b8e3: mov ecx,  [rdx+0x08] ; movzx r9d, byte [rdx+0x0C] ; mov qword [rax], r8 ; mov  [rax+0x08], ecx ; mov byte [rax+0x0C], r9L ; ret ; \x8b\x4a\x08\x44\x0f\xb6\x4a\x0c\x4c\x89\x00\x89\x48\x08\x44\x88\x48\x0c\xc3 (1 found)
0x14001b8bb: mov ecx,  [rdx+0x08] ; movzx r9d, word [rdx+0x0C] ; mov qword [rax], r8 ; mov  [rax+0x08], ecx ; mov word [rax+0x0C], r9w ; ret ; \x8b\x4a\x08\x44\x0f\xb7\x4a\x0c\x4c\x89\x00\x89\x48\x08\x66\x44\x89\x48\x0c\xc3 (1 found)
0x14001b4a4: mov ecx,  [rdx+rax*4+0x00026360] ; add r9, r10 ; jmp r9 ; \x8b\x8c\x82\x60\x63\x02\x00\x4d\x03\xca\x41\xff\xe1 (1 found)
0x14001b851: mov ecx,  [rdx+rax*4+0x00026410] ; add r9, r10 ; jmp r9 ; \x8b\x8c\x82\x10\x64\x02\x00\x4d\x03\xca\x41\xff\xe1 (1 found)
0x14001b94a: mov ecx,  [rdx] ; mov  [rax], ecx ; ret ; \x8b\x0a\x89\x08\xc3 (1 found)
0x14001b93e: mov ecx,  [rdx] ; mov qword [rax], rcx ; ret ; \x8b\x0a\x48\x89\x08\xc3 (1 found)
0x14001b92f: mov ecx,  [rdx] ; movzx r8d, byte [rdx+0x04] ; mov  [rax], ecx ; mov byte [rax+0x04], r8L ; ret ; \x8b\x0a\x44\x0f\xb6\x42\x04\x89\x08\x44\x88\x40\x04\xc3 (1 found)
0x14001b920: mov ecx,  [rdx] ; movzx r8d, word [rdx+0x04] ; mov  [rax], ecx ; mov word [rax+0x04], r8w ; ret ; \x8b\x0a\x44\x0f\xb7\x42\x04\x89\x08\x66\x44\x89\x40\x04\xc3 (1 found)
0x140013a22: mov ecx,  [rsp+0x20] ; and  [rcx+0x000003A8], 0xFFFFFFFD ; mov eax, ebx ; add rsp, 0x40 ; pop rbx ; ret ; \x8b\x4c\x24\x20\x83\xa1\xa8\x03\x00\x00\xfd\x8b\xc3\x48\x83\xc4\x40\x5b\xc3 (1 found)
0x140011042: mov ecx,  [rsp+0x30] ; and  [rcx+0x000003A8], 0xFFFFFFFD ; movzx eax, dx ; add rsp, 0x58 ; ret ; \x8b\x4c\x24\x30\x83\xa1\xa8\x03\x00\x00\xfd\x0f\xb7\xc2\x48\x83\xc4\x58\xc3 (1 found)
0x140003233: mov ecx, 0x0000000D ; int 0x29 ; ret ; \xb9\x0d\x00\x00\x00\xcd\x29\xc3 (1 found)
0x140010e17: mov ecx, 0x0000001F ; rep stosq ; mov rdi, qword [rsp+0x08] ; mov al, 0x01 ; ret ; \xb9\x1f\x00\x00\x00\xf3\x48\xab\x48\x8b\x7c\x24\x08\xb0\x01\xc3 (1 found)
0x14001b0bb: mov ecx, 0x0000020B ; cmp word [rdx+0x18], cx ; sete al ; ret ; \xb9\x0b\x02\x00\x00\x66\x39\x4a\x18\x0f\x94\xc0\xc3 (1 found)
0x140014eae: mov ecx, 0x00004000 ; test eax, eax ; cmove eax, ecx ; mov  [0x000000014002BDA8], eax ; xor eax, eax ; ret ; \xb9\x00\x40\x00\x00\x85\xc0\x0f\x44\xc1\x89\x05\xea\x6e\x01\x00\x33\xc0\xc3 (1 found)
0x140019a1a: mov ecx, 0x00A3D005 ; add ch, al ; sti ; pop rax ; retn 0xF9C5 ; \xb9\x05\xd0\xa3\x00\x00\xc5\xfb\x58\xc2\xc5\xf9 (1 found)
0x14000e7ae: mov ecx, 0x04EB0001 ; add rax, 0x20 ; add rsp, 0x28 ; ret ; \xb9\x01\x00\xeb\x04\x48\x83\xc0\x20\x48\x83\xc4\x28\xc3 (1 found)
0x140002400: mov ecx, 0x2DDFA233 ; cdq ; sub eax,  [rax] ; add byte [rax+0x3B], cl ; ret ; \xb9\x33\xa2\xdf\x2d\x99\x2b\x00\x00\x48\x3b\xc3 (1 found)
0x14000249b: mov ecx, 0xC3000447 ; lea rax, qword [0x0000000140046C50] ; ret ; \xb9\x47\x04\x00\xc3\x48\x8d\x05\xa9\x47\x04\x00\xc3 (1 found)
0x14001ab9f: mov ecx, 0xFFFFFFC0 ; and  [rsp+0x08], ecx ; ldmxcsr  [rsp+0x08] ; ret ; \xb9\xc0\xff\xff\xff\x21\x4c\x24\x08\x0f\xae\x54\x24\x08\xc3 (1 found)
0x14001b829: mov ecx, eax ; rep movsb ; pop rsi ; pop rdi ; ret ; \x8b\xc8\xf3\xa4\x5e\x5f\xc3 (1 found)
0x14001b467: mov ecx, eax ; rep stosb ; mov rax, r9 ; pop rdi ; ret ; \x8b\xc8\xf3\xaa\x49\x8b\xc1\x5f\xc3 (1 found)
0x140015c11: mov ecx, ebx ; mov rax, rsi ; mov r8, qword [0x000000014001D308] ; call r8 ; \x8b\xcb\x48\x8b\xc6\x4c\x8b\x05\xeb\x76\x00\x00\x41\xff\xd0 (1 found)
0x140015c2c: mov ecx, ebx ; mov rax, rsi ; mov rdx, qword [0x000000014001D308] ; call rdx ; \x8b\xcb\x48\x8b\xc6\x48\x8b\x15\xd0\x76\x00\x00\xff\xd2 (1 found)
0x14001324c: mov edi,  [rbx+0x20] ; mov rsp, r11 ; pop rbp ; ret ; \x8b\x7b\x20\x49\x8b\xe3\x5d\xc3 (1 found)
0x140013caf: mov edi,  [rbx+0x20] ; mov rsp, r11 ; pop rbp ; ret ; \x8b\x7b\x20\x49\x8b\xe3\x5d\xc3 (1 found)
0x140004c18: mov edi,  [rbx+0x28] ; mov rsp, r11 ; pop r14 ; ret ; \x8b\x7b\x28\x49\x8b\xe3\x41\x5e\xc3 (1 found)
0x140010720: mov edi,  [rbx+0x28] ; mov rsp, r11 ; pop r14 ; ret ; \x8b\x7b\x28\x49\x8b\xe3\x41\x5e\xc3 (1 found)
0x140010e20: mov edi,  [rsp+0x08] ; mov al, 0x01 ; ret ; \x8b\x7c\x24\x08\xb0\x01\xc3 (1 found)
0x14000d916: mov edi,  [rsp+0x10] ; mov r14, qword [rsp+0x18] ; ret ; \x8b\x7c\x24\x10\x4c\x8b\x74\x24\x18\xc3 (1 found)
0x140002c7b: mov edi,  [rsp+0x10] ; ret ; \x8b\x7c\x24\x10\xc3 (1 found)
0x14000d16e: mov edi,  [rsp+0x20] ; mov r14, qword [rsp+0x28] ; pop r15 ; ret ; \x8b\x7c\x24\x20\x4c\x8b\x74\x24\x28\x41\x5f\xc3 (1 found)
0x14000408b: mov edi,  [rsp+0x40] ; add rsp, 0x20 ; pop r14 ; ret ; \x8b\x7c\x24\x40\x48\x83\xc4\x20\x41\x5e\xc3 (1 found)
0x1400054a2: mov edi,  [rsp+0x40] ; add rsp, 0x20 ; pop r14 ; ret ; \x8b\x7c\x24\x40\x48\x83\xc4\x20\x41\x5e\xc3 (1 found)
0x140014e23: mov edi,  [rsp+0x40] ; add rsp, 0x20 ; pop r14 ; ret ; \x8b\x7c\x24\x40\x48\x83\xc4\x20\x41\x5e\xc3 (1 found)
0x14001301c: mov edi,  [rsp+0x40] ; mov rsi, qword [rsp+0x38] ; add rsp, 0x20 ; pop r14 ; ret ; \x8b\x7c\x24\x40\x48\x8b\x74\x24\x38\x48\x83\xc4\x20\x41\x5e\xc3 (1 found)
0x1400049e2: mov edi,  [rsp+0x48] ; add rsp, 0x20 ; pop r14 ; ret ; \x8b\x7c\x24\x48\x48\x83\xc4\x20\x41\x5e\xc3 (1 found)
0x14000b9a0: mov edi,  [rsp+0x48] ; add rsp, 0x20 ; pop r14 ; ret ; \x8b\x7c\x24\x48\x48\x83\xc4\x20\x41\x5e\xc3 (1 found)
0x140010829: mov edi,  [rsp+0x48] ; add rsp, 0x20 ; pop r14 ; ret ; \x8b\x7c\x24\x48\x48\x83\xc4\x20\x41\x5e\xc3 (1 found)
0x140012297: mov edi,  [rsp+0x48] ; add rsp, 0x20 ; pop r14 ; ret ; \x8b\x7c\x24\x48\x48\x83\xc4\x20\x41\x5e\xc3 (1 found)
0x140014c00: mov edi,  [rsp+0x48] ; add rsp, 0x20 ; pop r14 ; ret ; \x8b\x7c\x24\x48\x48\x83\xc4\x20\x41\x5e\xc3 (1 found)
0x14001b1f0: mov edi,  [rsp+0x48] ; add rsp, 0x20 ; pop r14 ; ret ; \x8b\x7c\x24\x48\x48\x83\xc4\x20\x41\x5e\xc3 (1 found)
0x14001aef6: mov edi,  [rsp+0x48] ; add rsp, 0x20 ; pop rbp ; ret ; \x8b\x7c\x24\x48\x48\x83\xc4\x20\x5d\xc3 (1 found)
0x140014ab9: mov edi,  [rsp+0x50] ; add rsp, 0x30 ; pop r15 ; ret ; \x8b\x7c\x24\x50\x48\x83\xc4\x30\x41\x5f\xc3 (1 found)
0x14000c926: mov edi,  [rsp+0x50] ; mov r14, qword [rsp+0x58] ; add rsp, 0x30 ; pop r15 ; ret ; \x8b\x7c\x24\x50\x4c\x8b\x74\x24\x58\x48\x83\xc4\x30\x41\x5f\xc3 (1 found)
0x14000f60b: mov edi,  [rsp+0x58] ; add rsp, 0x20 ; pop r15 ; pop r14 ; pop r12 ; ret ; \x8b\x7c\x24\x58\x48\x83\xc4\x20\x41\x5f\x41\x5e\x41\x5c\xc3 (1 found)
0x1400065d6: mov edi,  [rsp+0x58] ; add rsp, 0x30 ; pop r14 ; ret ; \x8b\x7c\x24\x58\x48\x83\xc4\x30\x41\x5e\xc3 (1 found)
0x1400067e2: mov edi,  [rsp+0x58] ; add rsp, 0x30 ; pop r14 ; ret ; \x8b\x7c\x24\x58\x48\x83\xc4\x30\x41\x5e\xc3 (1 found)
0x1400069ee: mov edi,  [rsp+0x58] ; add rsp, 0x30 ; pop r14 ; ret ; \x8b\x7c\x24\x58\x48\x83\xc4\x30\x41\x5e\xc3 (1 found)
0x140006bfa: mov edi,  [rsp+0x58] ; add rsp, 0x30 ; pop r14 ; ret ; \x8b\x7c\x24\x58\x48\x83\xc4\x30\x41\x5e\xc3 (1 found)
0x140006e06: mov edi,  [rsp+0x58] ; add rsp, 0x30 ; pop r14 ; ret ; \x8b\x7c\x24\x58\x48\x83\xc4\x30\x41\x5e\xc3 (1 found)
0x140007012: mov edi,  [rsp+0x58] ; add rsp, 0x30 ; pop r14 ; ret ; \x8b\x7c\x24\x58\x48\x83\xc4\x30\x41\x5e\xc3 (1 found)
0x14000721e: mov edi,  [rsp+0x58] ; add rsp, 0x30 ; pop r14 ; ret ; \x8b\x7c\x24\x58\x48\x83\xc4\x30\x41\x5e\xc3 (1 found)
0x14000742a: mov edi,  [rsp+0x58] ; add rsp, 0x30 ; pop r14 ; ret ; \x8b\x7c\x24\x58\x48\x83\xc4\x30\x41\x5e\xc3 (1 found)
0x140007636: mov edi,  [rsp+0x58] ; add rsp, 0x30 ; pop r14 ; ret ; \x8b\x7c\x24\x58\x48\x83\xc4\x30\x41\x5e\xc3 (1 found)
0x14000891a: mov edi,  [rsp+0x58] ; add rsp, 0x30 ; pop r14 ; ret ; \x8b\x7c\x24\x58\x48\x83\xc4\x30\x41\x5e\xc3 (1 found)
0x140008bec: mov edi,  [rsp+0x58] ; add rsp, 0x30 ; pop r14 ; ret ; \x8b\x7c\x24\x58\x48\x83\xc4\x30\x41\x5e\xc3 (1 found)
0x140008ec3: mov edi,  [rsp+0x58] ; add rsp, 0x30 ; pop r14 ; ret ; \x8b\x7c\x24\x58\x48\x83\xc4\x30\x41\x5e\xc3 (1 found)
0x14000be5b: mov edi,  [rsp+0x58] ; add rsp, 0x30 ; pop r14 ; ret ; \x8b\x7c\x24\x58\x48\x83\xc4\x30\x41\x5e\xc3 (1 found)
0x14000fc21: mov edi,  [rsp+0x58] ; add rsp, 0x30 ; pop r14 ; ret ; \x8b\x7c\x24\x58\x48\x83\xc4\x30\x41\x5e\xc3 (1 found)
0x1400148c1: mov edi,  [rsp+0x58] ; add rsp, 0x30 ; pop r14 ; ret ; \x8b\x7c\x24\x58\x48\x83\xc4\x30\x41\x5e\xc3 (1 found)
0x140014d63: mov edi,  [rsp+0x60] ; add rsp, 0x30 ; pop r15 ; pop r14 ; pop r12 ; ret ; \x8b\x7c\x24\x60\x48\x83\xc4\x30\x41\x5f\x41\x5e\x41\x5c\xc3 (1 found)
0x140003fab: mov edi,  [rsp+0x60] ; add rsp, 0x30 ; pop r15 ; pop r14 ; pop r13 ; ret ; \x8b\x7c\x24\x60\x48\x83\xc4\x30\x41\x5f\x41\x5e\x41\x5d\xc3 (1 found)
0x14000f015: mov edi,  [rsp+0x68] ; add rsp, 0x30 ; pop r15 ; pop r14 ; pop r13 ; ret ; \x8b\x7c\x24\x68\x48\x83\xc4\x30\x41\x5f\x41\x5e\x41\x5d\xc3 (1 found)
0x14000f4f2: mov edi,  [rsp+0x70] ; mov r14, qword [rsp+0x78] ; add rsp, 0x50 ; pop r15 ; ret ; \x8b\x7c\x24\x70\x4c\x8b\x74\x24\x78\x48\x83\xc4\x50\x41\x5f\xc3 (1 found)
0x140018366: mov edi,  [rsp+0x78] ; add rsp, 0x40 ; pop r15 ; pop r14 ; pop r12 ; ret ; \x8b\x7c\x24\x78\x48\x83\xc4\x40\x41\x5f\x41\x5e\x41\x5c\xc3 (1 found)
0x14000ef91: mov edi,  [rsp+0x78] ; add rsp, 0x50 ; pop r14 ; ret ; \x8b\x7c\x24\x78\x48\x83\xc4\x50\x41\x5e\xc3 (1 found)
0x14001a4ae: mov edi,  [rsp+0x78] ; add rsp, 0x50 ; pop r14 ; ret ; \x8b\x7c\x24\x78\x48\x83\xc4\x50\x41\x5e\xc3 (1 found)
0x14000be04: mov edi,  [rsp+0x78] ; add rsp, 0x60 ; pop rbp ; ret ; \x8b\x7c\x24\x78\x48\x83\xc4\x60\x5d\xc3 (1 found)
0x14000c0ee: mov edi,  [rsp+0x78] ; add rsp, 0x60 ; pop rbp ; ret ; \x8b\x7c\x24\x78\x48\x83\xc4\x60\x5d\xc3 (1 found)
0x140011a0e: mov edi,  [rsp+0x78] ; add rsp, 0x60 ; pop rbp ; ret ; \x8b\x7c\x24\x78\x48\x83\xc4\x60\x5d\xc3 (1 found)
0x14001250a: mov edi,  [rsp+0x78] ; add rsp, 0x60 ; pop rbp ; ret ; \x8b\x7c\x24\x78\x48\x83\xc4\x60\x5d\xc3 (1 found)
0x1400180a4: mov edi,  [rsp+0x78] ; add rsp, 0x60 ; pop rbp ; ret ; \x8b\x7c\x24\x78\x48\x83\xc4\x60\x5d\xc3 (1 found)
0x140018140: mov edi,  [rsp+0x78] ; add rsp, 0x60 ; pop rbp ; ret ; \x8b\x7c\x24\x78\x48\x83\xc4\x60\x5d\xc3 (1 found)
0x14001a246: mov edi,  [rsp+0x78] ; add rsp, 0x60 ; pop rbp ; ret ; \x8b\x7c\x24\x78\x48\x83\xc4\x60\x5d\xc3 (1 found)
0x14001b464: mov edi, ecx ; mov rcx, r8 ; rep stosb ; mov rax, r9 ; pop rdi ; ret ; \x8b\xf9\x49\x8b\xc8\xf3\xaa\x49\x8b\xc1\x5f\xc3 (1 found)
0x1400156a5: mov edi, edi ; call qword [rax+0x10158B48] ; \x8b\xff\xff\x90\x48\x8b\x15\x10 (1 found)
0x1400156da: mov edi, edi ; call qword [rax-0x76B73334] ; \x89\xff\xff\x90\xcc\xcc\x48\x89 (1 found)
0x140015957: mov edi, edi ; dec  [rax-0x75] ; ret ; \x89\xff\xff\x48\x8b\xc3 (1 found)
0x140015c32: mov edx,  [0x000000014001D308] ; call rdx ; \x8b\x15\xd0\x76\x00\x00\xff\xd2 (1 found)
0x140015c0e: mov edx,  [rax+0x10] ; mov ecx, ebx ; mov rax, rsi ; mov r8, qword [0x000000014001D308] ; call r8 ; \x8b\x50\x10\x8b\xcb\x48\x8b\xc6\x4c\x8b\x05\xeb\x76\x00\x00\x41\xff\xd0 (1 found)
0x14001b251: mov edx,  [rsp+0x00] ; mov r11, qword [rsp+0x08] ; add rsp, 0x10 ; ret ; \x8b\x14\x24\x4c\x8b\x5c\x24\x08\x48\x83\xc4\x10\xc3 (1 found)
0x14000e78e: mov edx, 0x04EB0001 ; add rax, 0x24 ; add rsp, 0x28 ; ret ; \xba\x01\x00\xeb\x04\x48\x83\xc0\x24\x48\x83\xc4\x28\xc3 (1 found)
0x1400028df: mov edx, 0x830F1CE7 ; test byte [rax], 0x00 ; add byte [rax-0x75], cl ; and byte [r10], r12L ; ret ; \xba\xe7\x1c\x0f\x83\xf6\x00\x00\x00\x48\x8b\x45\x20\x22\xc3 (1 found)
0x140004cf2: mov edx, 0xF6000007 ; ret ; \xba\x07\x00\x00\xf6\xc3 (1 found)
0x14000212a: mov edx, 0xFF0001AF ; mov  [rbx-0x4E83FD01], 0x40C48348 ; pop rdi ; pop rsi ; pop rbx ; ret ; \xba\xaf\x01\x00\xff\xc7\x83\xff\x02\x7c\xb1\x48\x83\xc4\x40\x5f\x5e\x5b\xc3 (1 found)
0x14000536c: mov edx, eax ; jmp rax ; \x8b\xd0\x48\xff\xe0 (1 found)
0x14000537b: mov edx, eax ; mov r8d, r9d ; jmp r10 ; \x8b\xd0\x45\x8b\xc1\x49\xff\xe2 (1 found)
0x140002e3f: mov edx, ebp ; add rax, r12 ; lea rcx, qword [rsp+0x30] ; call rax ; \x8b\xd5\x49\x03\xc4\x48\x8d\x4c\x24\x30\xff\xd0 (1 found)
0x140002f7f: mov edx, ebp ; mov  [r15+0x48], eax ; mov r8d,  [rbx+rcx*8+0x0C] ; mov cl, 0x01 ; add r8, r12 ; call r8 ; \x8b\xd5\x41\x89\x47\x48\x44\x8b\x44\xcb\x0c\xb1\x01\x4d\x03\xc4\x41\xff\xd0 (1 found)
0x140005378: mov edx, edx ; mov rdx, rax ; mov r8d, r9d ; jmp r10 ; \x8b\xd2\x48\x8b\xd0\x45\x8b\xc1\x49\xff\xe2 (1 found)
0x14000222c: mov es, word [rdx] ; add byte [rcx], al ; mov al, 0x01 ; add rsp, 0x20 ; pop rbx ; ret ; \x8e\x02\x00\x01\xb0\x01\x48\x83\xc4\x20\x5b\xc3 (1 found)
0x140013248: mov esi,  [rbx+0x18] ; mov rdi, qword [r11+0x20] ; mov rsp, r11 ; pop rbp ; ret ; \x8b\x73\x18\x49\x8b\x7b\x20\x49\x8b\xe3\x5d\xc3 (1 found)
0x1400191da: mov esi,  [rbx+0x18] ; mov rsp, r11 ; pop rdi ; ret ; \x8b\x73\x18\x49\x8b\xe3\x5f\xc3 (1 found)
0x140004c14: mov esi,  [rbx+0x20] ; mov rdi, qword [r11+0x28] ; mov rsp, r11 ; pop r14 ; ret ; \x8b\x73\x20\x49\x8b\x7b\x28\x49\x8b\xe3\x41\x5e\xc3 (1 found)
0x14001071c: mov esi,  [rbx+0x20] ; mov rdi, qword [r11+0x28] ; mov rsp, r11 ; pop r14 ; ret ; \x8b\x73\x20\x49\x8b\x7b\x28\x49\x8b\xe3\x41\x5e\xc3 (1 found)
0x140013f1c: mov esi,  [rbx+0x28] ; mov rsp, r11 ; pop r14 ; pop rdi ; pop rbp ; ret ; \x8b\x73\x28\x49\x8b\xe3\x41\x5e\x5f\x5d\xc3 (1 found)
0x14000e4e4: mov esi,  [rbx+0x30] ; mov rsp, r11 ; pop r14 ; pop rdi ; pop rbp ; ret ; \x8b\x73\x30\x49\x8b\xe3\x41\x5e\x5f\x5d\xc3 (1 found)
0x14000d169: mov esi,  [rsp+0x18] ; mov rdi, qword [rsp+0x20] ; mov r14, qword [rsp+0x28] ; pop r15 ; ret ; \x8b\x74\x24\x18\x48\x8b\x7c\x24\x20\x4c\x8b\x74\x24\x28\x41\x5f\xc3 (1 found)
0x14000d91b: mov esi,  [rsp+0x18] ; ret ; \x8b\x74\x24\x18\xc3 (1 found)
0x14000d173: mov esi,  [rsp+0x28] ; pop r15 ; ret ; \x8b\x74\x24\x28\x41\x5f\xc3 (1 found)
0x140013021: mov esi,  [rsp+0x38] ; add rsp, 0x20 ; pop r14 ; ret ; \x8b\x74\x24\x38\x48\x83\xc4\x20\x41\x5e\xc3 (1 found)
0x14000332d: mov esi,  [rsp+0x38] ; add rsp, 0x20 ; pop rdi ; ret ; \x8b\x74\x24\x38\x48\x83\xc4\x20\x5f\xc3 (1 found)
0x1400036f7: mov esi,  [rsp+0x38] ; add rsp, 0x20 ; pop rdi ; ret ; \x8b\x74\x24\x38\x48\x83\xc4\x20\x5f\xc3 (1 found)
0x140003842: mov esi,  [rsp+0x38] ; add rsp, 0x20 ; pop rdi ; ret ; \x8b\x74\x24\x38\x48\x83\xc4\x20\x5f\xc3 (1 found)
0x14000a26f: mov esi,  [rsp+0x38] ; add rsp, 0x20 ; pop rdi ; ret ; \x8b\x74\x24\x38\x48\x83\xc4\x20\x5f\xc3 (1 found)
0x14000a2ef: mov esi,  [rsp+0x38] ; add rsp, 0x20 ; pop rdi ; ret ; \x8b\x74\x24\x38\x48\x83\xc4\x20\x5f\xc3 (1 found)
0x14000a36f: mov esi,  [rsp+0x38] ; add rsp, 0x20 ; pop rdi ; ret ; \x8b\x74\x24\x38\x48\x83\xc4\x20\x5f\xc3 (1 found)
0x14000afba: mov esi,  [rsp+0x38] ; add rsp, 0x20 ; pop rdi ; ret ; \x8b\x74\x24\x38\x48\x83\xc4\x20\x5f\xc3 (1 found)
0x14000b056: mov esi,  [rsp+0x38] ; add rsp, 0x20 ; pop rdi ; ret ; \x8b\x74\x24\x38\x48\x83\xc4\x20\x5f\xc3 (1 found)
0x14000b0f2: mov esi,  [rsp+0x38] ; add rsp, 0x20 ; pop rdi ; ret ; \x8b\x74\x24\x38\x48\x83\xc4\x20\x5f\xc3 (1 found)
0x14000b165: mov esi,  [rsp+0x38] ; add rsp, 0x20 ; pop rdi ; ret ; \x8b\x74\x24\x38\x48\x83\xc4\x20\x5f\xc3 (1 found)
0x14000b1d9: mov esi,  [rsp+0x38] ; add rsp, 0x20 ; pop rdi ; ret ; \x8b\x74\x24\x38\x48\x83\xc4\x20\x5f\xc3 (1 found)
0x14000b24d: mov esi,  [rsp+0x38] ; add rsp, 0x20 ; pop rdi ; ret ; \x8b\x74\x24\x38\x48\x83\xc4\x20\x5f\xc3 (1 found)
0x14000b2cc: mov esi,  [rsp+0x38] ; add rsp, 0x20 ; pop rdi ; ret ; \x8b\x74\x24\x38\x48\x83\xc4\x20\x5f\xc3 (1 found)
0x14000bac5: mov esi,  [rsp+0x38] ; add rsp, 0x20 ; pop rdi ; ret ; \x8b\x74\x24\x38\x48\x83\xc4\x20\x5f\xc3 (1 found)
0x14000ca85: mov esi,  [rsp+0x38] ; add rsp, 0x20 ; pop rdi ; ret ; \x8b\x74\x24\x38\x48\x83\xc4\x20\x5f\xc3 (1 found)
0x14000cd00: mov esi,  [rsp+0x38] ; add rsp, 0x20 ; pop rdi ; ret ; \x8b\x74\x24\x38\x48\x83\xc4\x20\x5f\xc3 (1 found)
0x14000e38a: mov esi,  [rsp+0x38] ; add rsp, 0x20 ; pop rdi ; ret ; \x8b\x74\x24\x38\x48\x83\xc4\x20\x5f\xc3 (1 found)
0x14001039f: mov esi,  [rsp+0x38] ; add rsp, 0x20 ; pop rdi ; ret ; \x8b\x74\x24\x38\x48\x83\xc4\x20\x5f\xc3 (1 found)
0x140010512: mov esi,  [rsp+0x38] ; add rsp, 0x20 ; pop rdi ; ret ; \x8b\x74\x24\x38\x48\x83\xc4\x20\x5f\xc3 (1 found)
0x140010cae: mov esi,  [rsp+0x38] ; add rsp, 0x20 ; pop rdi ; ret ; \x8b\x74\x24\x38\x48\x83\xc4\x20\x5f\xc3 (1 found)
0x1400125d7: mov esi,  [rsp+0x38] ; add rsp, 0x20 ; pop rdi ; ret ; \x8b\x74\x24\x38\x48\x83\xc4\x20\x5f\xc3 (1 found)
0x140014a72: mov esi,  [rsp+0x38] ; add rsp, 0x20 ; pop rdi ; ret ; \x8b\x74\x24\x38\x48\x83\xc4\x20\x5f\xc3 (1 found)
0x140015892: mov esi,  [rsp+0x38] ; add rsp, 0x20 ; pop rdi ; ret ; \x8b\x74\x24\x38\x48\x83\xc4\x20\x5f\xc3 (1 found)
0x140017609: mov esi,  [rsp+0x38] ; add rsp, 0x20 ; pop rdi ; ret ; \x8b\x74\x24\x38\x48\x83\xc4\x20\x5f\xc3 (1 found)
0x140017be5: mov esi,  [rsp+0x38] ; add rsp, 0x20 ; pop rdi ; ret ; \x8b\x74\x24\x38\x48\x83\xc4\x20\x5f\xc3 (1 found)
0x140017cb2: mov esi,  [rsp+0x38] ; add rsp, 0x20 ; pop rdi ; ret ; \x8b\x74\x24\x38\x48\x83\xc4\x20\x5f\xc3 (1 found)
0x140001180: mov esi,  [rsp+0x38] ; add rsp, 0x40 ; pop rbx ; ret ; \x8b\x74\x24\x38\x48\x83\xc4\x40\x5b\xc3 (1 found)
0x1400105c8: mov esi,  [rsp+0x38] ; mov rax, rbx ; mov rbx, qword [rsp+0x30] ; add rsp, 0x20 ; pop rdi ; ret ; \x8b\x74\x24\x38\x48\x8b\xc3\x48\x8b\x5c\x24\x30\x48\x83\xc4\x20\x5f\xc3 (1 found)
0x140004086: mov esi,  [rsp+0x38] ; mov rdi, qword [rsp+0x40] ; add rsp, 0x20 ; pop r14 ; ret ; \x8b\x74\x24\x38\x48\x8b\x7c\x24\x40\x48\x83\xc4\x20\x41\x5e\xc3 (1 found)
0x14000549d: mov esi,  [rsp+0x38] ; mov rdi, qword [rsp+0x40] ; add rsp, 0x20 ; pop r14 ; ret ; \x8b\x74\x24\x38\x48\x8b\x7c\x24\x40\x48\x83\xc4\x20\x41\x5e\xc3 (1 found)
0x140014e1e: mov esi,  [rsp+0x38] ; mov rdi, qword [rsp+0x40] ; add rsp, 0x20 ; pop r14 ; ret ; \x8b\x74\x24\x38\x48\x8b\x7c\x24\x40\x48\x83\xc4\x20\x41\x5e\xc3 (1 found)
0x140002a01: mov esi,  [rsp+0x40] ; add rsp, 0x10 ; pop r14 ; pop rdi ; pop rbp ; ret ; \x8b\x74\x24\x40\x48\x83\xc4\x10\x41\x5e\x5f\x5d\xc3 (1 found)
0x1400037b0: mov esi,  [rsp+0x40] ; add rsp, 0x20 ; pop rdi ; ret ; \x8b\x74\x24\x40\x48\x83\xc4\x20\x5f\xc3 (1 found)
0x1400051e4: mov esi,  [rsp+0x40] ; add rsp, 0x20 ; pop rdi ; ret ; \x8b\x74\x24\x40\x48\x83\xc4\x20\x5f\xc3 (1 found)
0x14000535a: mov esi,  [rsp+0x40] ; add rsp, 0x20 ; pop rdi ; ret ; \x8b\x74\x24\x40\x48\x83\xc4\x20\x5f\xc3 (1 found)
0x140005b6a: mov esi,  [rsp+0x40] ; add rsp, 0x20 ; pop rdi ; ret ; \x8b\x74\x24\x40\x48\x83\xc4\x20\x5f\xc3 (1 found)
0x140005c16: mov esi,  [rsp+0x40] ; add rsp, 0x20 ; pop rdi ; ret ; \x8b\x74\x24\x40\x48\x83\xc4\x20\x5f\xc3 (1 found)
0x14000bd32: mov esi,  [rsp+0x40] ; add rsp, 0x20 ; pop rdi ; ret ; \x8b\x74\x24\x40\x48\x83\xc4\x20\x5f\xc3 (1 found)
0x14000ce0d: mov esi,  [rsp+0x40] ; add rsp, 0x20 ; pop rdi ; ret ; \x8b\x74\x24\x40\x48\x83\xc4\x20\x5f\xc3 (1 found)
0x14000e33c: mov esi,  [rsp+0x40] ; add rsp, 0x20 ; pop rdi ; ret ; \x8b\x74\x24\x40\x48\x83\xc4\x20\x5f\xc3 (1 found)
0x140013fd0: mov esi,  [rsp+0x40] ; add rsp, 0x20 ; pop rdi ; ret ; \x8b\x74\x24\x40\x48\x83\xc4\x20\x5f\xc3 (1 found)
0x14001451e: mov esi,  [rsp+0x40] ; add rsp, 0x20 ; pop rdi ; ret ; \x8b\x74\x24\x40\x48\x83\xc4\x20\x5f\xc3 (1 found)
0x1400157d3: mov esi,  [rsp+0x40] ; add rsp, 0x20 ; pop rdi ; ret ; \x8b\x74\x24\x40\x48\x83\xc4\x20\x5f\xc3 (1 found)
0x140015d3e: mov esi,  [rsp+0x40] ; add rsp, 0x20 ; pop rdi ; ret ; \x8b\x74\x24\x40\x48\x83\xc4\x20\x5f\xc3 (1 found)
0x140014a1a: mov esi,  [rsp+0x40] ; mov rbp, qword [rsp+0x38] ; add rsp, 0x20 ; pop rdi ; ret ; \x8b\x74\x24\x40\x48\x8b\x6c\x24\x38\x48\x83\xc4\x20\x5f\xc3 (1 found)
0x1400049dd: mov esi,  [rsp+0x40] ; mov rdi, qword [rsp+0x48] ; add rsp, 0x20 ; pop r14 ; ret ; \x8b\x74\x24\x40\x48\x8b\x7c\x24\x48\x48\x83\xc4\x20\x41\x5e\xc3 (1 found)
0x14000b99b: mov esi,  [rsp+0x40] ; mov rdi, qword [rsp+0x48] ; add rsp, 0x20 ; pop r14 ; ret ; \x8b\x74\x24\x40\x48\x8b\x7c\x24\x48\x48\x83\xc4\x20\x41\x5e\xc3 (1 found)
0x140010824: mov esi,  [rsp+0x40] ; mov rdi, qword [rsp+0x48] ; add rsp, 0x20 ; pop r14 ; ret ; \x8b\x74\x24\x40\x48\x8b\x7c\x24\x48\x48\x83\xc4\x20\x41\x5e\xc3 (1 found)
0x140012292: mov esi,  [rsp+0x40] ; mov rdi, qword [rsp+0x48] ; add rsp, 0x20 ; pop r14 ; ret ; \x8b\x74\x24\x40\x48\x8b\x7c\x24\x48\x48\x83\xc4\x20\x41\x5e\xc3 (1 found)
0x140014bfb: mov esi,  [rsp+0x40] ; mov rdi, qword [rsp+0x48] ; add rsp, 0x20 ; pop r14 ; ret ; \x8b\x74\x24\x40\x48\x8b\x7c\x24\x48\x48\x83\xc4\x20\x41\x5e\xc3 (1 found)
0x14001b1eb: mov esi,  [rsp+0x40] ; mov rdi, qword [rsp+0x48] ; add rsp, 0x20 ; pop r14 ; ret ; \x8b\x74\x24\x40\x48\x8b\x7c\x24\x48\x48\x83\xc4\x20\x41\x5e\xc3 (1 found)
0x14001aef1: mov esi,  [rsp+0x40] ; mov rdi, qword [rsp+0x48] ; add rsp, 0x20 ; pop rbp ; ret ; \x8b\x74\x24\x40\x48\x8b\x7c\x24\x48\x48\x83\xc4\x20\x5d\xc3 (1 found)
0x1400179a1: mov esi,  [rsp+0x48] ; add rsp, 0x20 ; pop rdi ; ret ; \x8b\x74\x24\x48\x48\x83\xc4\x20\x5f\xc3 (1 found)
0x140017a9d: mov esi,  [rsp+0x48] ; add rsp, 0x20 ; pop rdi ; ret ; \x8b\x74\x24\x48\x48\x83\xc4\x20\x5f\xc3 (1 found)
0x14001afc2: mov esi,  [rsp+0x48] ; add rsp, 0x20 ; pop rdi ; ret ; \x8b\x74\x24\x48\x48\x83\xc4\x20\x5f\xc3 (1 found)
0x140001f81: mov esi,  [rsp+0x48] ; add rsp, 0x30 ; pop rdi ; ret ; \x8b\x74\x24\x48\x48\x83\xc4\x30\x5f\xc3 (1 found)
0x14000c053: mov esi,  [rsp+0x48] ; add rsp, 0x30 ; pop rdi ; ret ; \x8b\x74\x24\x48\x48\x83\xc4\x30\x5f\xc3 (1 found)
0x14000d9c0: mov esi,  [rsp+0x48] ; add rsp, 0x30 ; pop rdi ; ret ; \x8b\x74\x24\x48\x48\x83\xc4\x30\x5f\xc3 (1 found)
0x140011f90: mov esi,  [rsp+0x48] ; mov rbp, qword [rsp+0x40] ; add rsp, 0x20 ; pop rdi ; ret ; \x8b\x74\x24\x48\x48\x8b\x6c\x24\x40\x48\x83\xc4\x20\x5f\xc3 (1 found)
0x140014ab4: mov esi,  [rsp+0x48] ; mov rdi, qword [rsp+0x50] ; add rsp, 0x30 ; pop r15 ; ret ; \x8b\x74\x24\x48\x48\x8b\x7c\x24\x50\x48\x83\xc4\x30\x41\x5f\xc3 (1 found)
0x14000c921: mov esi,  [rsp+0x48] ; mov rdi, qword [rsp+0x50] ; mov r14, qword [rsp+0x58] ; add rsp, 0x30 ; pop r15 ; ret ; \x8b\x74\x24\x48\x48\x8b\x7c\x24\x50\x4c\x8b\x74\x24\x58\x48\x83\xc4\x30\x41\x5f\xc3 (1 found)
0x14001a3d4: mov esi,  [rsp+0x50] ; add rsp, 0x20 ; pop r15 ; pop r14 ; pop r12 ; ret ; \x8b\x74\x24\x50\x48\x83\xc4\x20\x41\x5f\x41\x5e\x41\x5c\xc3 (1 found)
0x14001a7bb: mov esi,  [rsp+0x50] ; add rsp, 0x20 ; pop r15 ; pop r14 ; pop r12 ; ret ; \x8b\x74\x24\x50\x48\x83\xc4\x20\x41\x5f\x41\x5e\x41\x5c\xc3 (1 found)
0x14000b36f: mov esi,  [rsp+0x50] ; add rsp, 0x20 ; pop r15 ; pop r14 ; pop rdi ; ret ; \x8b\x74\x24\x50\x48\x83\xc4\x20\x41\x5f\x41\x5e\x5f\xc3 (1 found)
0x14000b44f: mov esi,  [rsp+0x50] ; add rsp, 0x20 ; pop r15 ; pop r14 ; pop rdi ; ret ; \x8b\x74\x24\x50\x48\x83\xc4\x20\x41\x5f\x41\x5e\x5f\xc3 (1 found)
0x14000dcca: mov esi,  [rsp+0x50] ; add rsp, 0x20 ; pop r15 ; pop r14 ; pop rdi ; ret ; \x8b\x74\x24\x50\x48\x83\xc4\x20\x41\x5f\x41\x5e\x5f\xc3 (1 found)
0x14000ddea: mov esi,  [rsp+0x50] ; add rsp, 0x20 ; pop r15 ; pop r14 ; pop rdi ; ret ; \x8b\x74\x24\x50\x48\x83\xc4\x20\x41\x5f\x41\x5e\x5f\xc3 (1 found)
0x14000f3a0: mov esi,  [rsp+0x50] ; add rsp, 0x20 ; pop r15 ; pop r14 ; pop rdi ; ret ; \x8b\x74\x24\x50\x48\x83\xc4\x20\x41\x5f\x41\x5e\x5f\xc3 (1 found)
0x140017d90: mov esi,  [rsp+0x50] ; add rsp, 0x20 ; pop r15 ; pop r14 ; pop rdi ; ret ; \x8b\x74\x24\x50\x48\x83\xc4\x20\x41\x5f\x41\x5e\x5f\xc3 (1 found)
0x14000d5a4: mov esi,  [rsp+0x50] ; add rsp, 0x30 ; pop rdi ; ret ; \x8b\x74\x24\x50\x48\x83\xc4\x30\x5f\xc3 (1 found)
0x14000e600: mov esi,  [rsp+0x50] ; add rsp, 0x30 ; pop rdi ; ret ; \x8b\x74\x24\x50\x48\x83\xc4\x30\x5f\xc3 (1 found)
0x140015e4e: mov esi,  [rsp+0x50] ; add rsp, 0x30 ; pop rdi ; ret ; \x8b\x74\x24\x50\x48\x83\xc4\x30\x5f\xc3 (1 found)
0x140018007: mov esi,  [rsp+0x50] ; add rsp, 0x30 ; pop rdi ; ret ; \x8b\x74\x24\x50\x48\x83\xc4\x30\x5f\xc3 (1 found)
0x1400065d1: mov esi,  [rsp+0x50] ; mov rdi, qword [rsp+0x58] ; add rsp, 0x30 ; pop r14 ; ret ; \x8b\x74\x24\x50\x48\x8b\x7c\x24\x58\x48\x83\xc4\x30\x41\x5e\xc3 (1 found)
0x1400067dd: mov esi,  [rsp+0x50] ; mov rdi, qword [rsp+0x58] ; add rsp, 0x30 ; pop r14 ; ret ; \x8b\x74\x24\x50\x48\x8b\x7c\x24\x58\x48\x83\xc4\x30\x41\x5e\xc3 (1 found)
0x1400069e9: mov esi,  [rsp+0x50] ; mov rdi, qword [rsp+0x58] ; add rsp, 0x30 ; pop r14 ; ret ; \x8b\x74\x24\x50\x48\x8b\x7c\x24\x58\x48\x83\xc4\x30\x41\x5e\xc3 (1 found)
0x140006bf5: mov esi,  [rsp+0x50] ; mov rdi, qword [rsp+0x58] ; add rsp, 0x30 ; pop r14 ; ret ; \x8b\x74\x24\x50\x48\x8b\x7c\x24\x58\x48\x83\xc4\x30\x41\x5e\xc3 (1 found)
0x140006e01: mov esi,  [rsp+0x50] ; mov rdi, qword [rsp+0x58] ; add rsp, 0x30 ; pop r14 ; ret ; \x8b\x74\x24\x50\x48\x8b\x7c\x24\x58\x48\x83\xc4\x30\x41\x5e\xc3 (1 found)
0x14000700d: mov esi,  [rsp+0x50] ; mov rdi, qword [rsp+0x58] ; add rsp, 0x30 ; pop r14 ; ret ; \x8b\x74\x24\x50\x48\x8b\x7c\x24\x58\x48\x83\xc4\x30\x41\x5e\xc3 (1 found)
0x140007219: mov esi,  [rsp+0x50] ; mov rdi, qword [rsp+0x58] ; add rsp, 0x30 ; pop r14 ; ret ; \x8b\x74\x24\x50\x48\x8b\x7c\x24\x58\x48\x83\xc4\x30\x41\x5e\xc3 (1 found)
0x140007425: mov esi,  [rsp+0x50] ; mov rdi, qword [rsp+0x58] ; add rsp, 0x30 ; pop r14 ; ret ; \x8b\x74\x24\x50\x48\x8b\x7c\x24\x58\x48\x83\xc4\x30\x41\x5e\xc3 (1 found)
0x140007631: mov esi,  [rsp+0x50] ; mov rdi, qword [rsp+0x58] ; add rsp, 0x30 ; pop r14 ; ret ; \x8b\x74\x24\x50\x48\x8b\x7c\x24\x58\x48\x83\xc4\x30\x41\x5e\xc3 (1 found)
0x140008915: mov esi,  [rsp+0x50] ; mov rdi, qword [rsp+0x58] ; add rsp, 0x30 ; pop r14 ; ret ; \x8b\x74\x24\x50\x48\x8b\x7c\x24\x58\x48\x83\xc4\x30\x41\x5e\xc3 (1 found)
0x140008be7: mov esi,  [rsp+0x50] ; mov rdi, qword [rsp+0x58] ; add rsp, 0x30 ; pop r14 ; ret ; \x8b\x74\x24\x50\x48\x8b\x7c\x24\x58\x48\x83\xc4\x30\x41\x5e\xc3 (1 found)
0x140008ebe: mov esi,  [rsp+0x50] ; mov rdi, qword [rsp+0x58] ; add rsp, 0x30 ; pop r14 ; ret ; \x8b\x74\x24\x50\x48\x8b\x7c\x24\x58\x48\x83\xc4\x30\x41\x5e\xc3 (1 found)
0x14000be56: mov esi,  [rsp+0x50] ; mov rdi, qword [rsp+0x58] ; add rsp, 0x30 ; pop r14 ; ret ; \x8b\x74\x24\x50\x48\x8b\x7c\x24\x58\x48\x83\xc4\x30\x41\x5e\xc3 (1 found)
0x14000fc1c: mov esi,  [rsp+0x50] ; mov rdi, qword [rsp+0x58] ; add rsp, 0x30 ; pop r14 ; ret ; \x8b\x74\x24\x50\x48\x8b\x7c\x24\x58\x48\x83\xc4\x30\x41\x5e\xc3 (1 found)
0x1400148bc: mov esi,  [rsp+0x50] ; mov rdi, qword [rsp+0x58] ; add rsp, 0x30 ; pop r14 ; ret ; \x8b\x74\x24\x50\x48\x8b\x7c\x24\x58\x48\x83\xc4\x30\x41\x5e\xc3 (1 found)
0x14000c92b: mov esi,  [rsp+0x58] ; add rsp, 0x30 ; pop r15 ; ret ; \x8b\x74\x24\x58\x48\x83\xc4\x30\x41\x5f\xc3 (1 found)
0x14000d4ca: mov esi,  [rsp+0x60] ; add rsp, 0x30 ; pop r15 ; pop r14 ; pop rdi ; ret ; \x8b\x74\x24\x60\x48\x83\xc4\x30\x41\x5f\x41\x5e\x5f\xc3 (1 found)
0x14001a1ac: mov esi,  [rsp+0x60] ; add rsp, 0x40 ; pop rdi ; ret ; \x8b\x74\x24\x60\x48\x83\xc4\x40\x5f\xc3 (1 found)
0x140018699: mov esi,  [rsp+0x68] ; add rsp, 0x30 ; pop r15 ; pop r14 ; pop rdi ; ret ; \x8b\x74\x24\x68\x48\x83\xc4\x30\x41\x5f\x41\x5e\x5f\xc3 (1 found)
0x140003cb8: mov esi,  [rsp+0x68] ; add rsp, 0x40 ; pop rdi ; ret ; \x8b\x74\x24\x68\x48\x83\xc4\x40\x5f\xc3 (1 found)
0x14000f8e1: mov esi,  [rsp+0x68] ; add rsp, 0x50 ; pop rdi ; ret ; \x8b\x74\x24\x68\x48\x83\xc4\x50\x5f\xc3 (1 found)
0x14000f24b: mov esi,  [rsp+0x70] ; add rsp, 0x50 ; pop rdi ; ret ; \x8b\x74\x24\x70\x48\x83\xc4\x50\x5f\xc3 (1 found)
0x140010c1e: mov esi,  [rsp+0x70] ; add rsp, 0x50 ; pop rdi ; ret ; \x8b\x74\x24\x70\x48\x83\xc4\x50\x5f\xc3 (1 found)
0x140010d9a: mov esi,  [rsp+0x70] ; add rsp, 0x50 ; pop rdi ; ret ; \x8b\x74\x24\x70\x48\x83\xc4\x50\x5f\xc3 (1 found)
0x140017e3d: mov esi,  [rsp+0x70] ; add rsp, 0x50 ; pop rdi ; ret ; \x8b\x74\x24\x70\x48\x83\xc4\x50\x5f\xc3 (1 found)
0x140019332: mov esi,  [rsp+0x70] ; add rsp, 0x50 ; pop rdi ; ret ; \x8b\x74\x24\x70\x48\x83\xc4\x50\x5f\xc3 (1 found)
0x14000ef8c: mov esi,  [rsp+0x70] ; mov rdi, qword [rsp+0x78] ; add rsp, 0x50 ; pop r14 ; ret ; \x8b\x74\x24\x70\x48\x8b\x7c\x24\x78\x48\x83\xc4\x50\x41\x5e\xc3 (1 found)
0x14001a4a9: mov esi,  [rsp+0x70] ; mov rdi, qword [rsp+0x78] ; add rsp, 0x50 ; pop r14 ; ret ; \x8b\x74\x24\x70\x48\x8b\x7c\x24\x78\x48\x83\xc4\x50\x41\x5e\xc3 (1 found)
0x14000f4f7: mov esi,  [rsp+0x78] ; add rsp, 0x50 ; pop r15 ; ret ; \x8b\x74\x24\x78\x48\x83\xc4\x50\x41\x5f\xc3 (1 found)
0x140005575: mov esi,  [rsp+0x78] ; add rsp, 0x50 ; pop rdi ; ret ; \x8b\x74\x24\x78\x48\x83\xc4\x50\x5f\xc3 (1 found)
0x140012336: mov esi,  [rsp+0x78] ; add rsp, 0x50 ; pop rdi ; ret ; \x8b\x74\x24\x78\x48\x83\xc4\x50\x5f\xc3 (1 found)
0x1400157e6: mov esi, 0x4800007A ; test eax, eax ; mov qword [0x000000014002BDB8], rax ; setne al ; add rsp, 0x28 ; ret ; \xbe\x7a\x00\x00\x48\x85\xc0\x48\x89\x05\xc4\x65\x01\x00\x0f\x95\xc0\x48\x83\xc4\x28\xc3 (1 found)
0x14001599a: mov esi, 0x48FFFF88 ; mov eax, ebx ; mov rbx, qword [rsp+0x30] ; add rsp, 0x20 ; pop rdi ; ret ; \xbe\x88\xff\xff\x48\x8b\xc3\x48\x8b\x5c\x24\x30\x48\x83\xc4\x20\x5f\xc3 (1 found)
0x140001b41: mov esi, 0xFF480143 ; ret ; \xbe\x43\x01\x48\xff\xc3 (1 found)
0x14001b826: mov esi, edx ; mov rcx, r8 ; rep movsb ; pop rsi ; pop rdi ; ret ; \x8b\xf2\x49\x8b\xc8\xf3\xa4\x5e\x5f\xc3 (1 found)
0x14000b875: mov esp,  [rbx+0x38] ; mov rsp, r11 ; pop r15 ; pop r14 ; pop rbp ; ret ; \x8b\x63\x38\x49\x8b\xe3\x41\x5f\x41\x5e\x5d\xc3 (1 found)
0x140012abf: mov esp,  [rsp+0x58] ; add rsp, 0x20 ; pop r15 ; pop r14 ; pop r13 ; ret ; \x8b\x64\x24\x58\x48\x83\xc4\x20\x41\x5f\x41\x5e\x41\x5d\xc3 (1 found)
0x140002a80: mov esp, 0xC1034CC8 ; cmp word [r8], dx ; cmove r9, r8 ; mov rax, r9 ; ret ; \xbc\xc8\x4c\x03\xc1\x66\x41\x39\x10\x4d\x0f\x44\xc8\x49\x8b\xc1\xc3 (1 found)
0x140002ceb: mov esp, 0xD00349D2 ; cmp byte [rdx], r10L ; cmove r9, rdx ; mov rax, r9 ; ret ; \xbc\xd2\x49\x03\xd0\x44\x38\x12\x4c\x0f\x44\xca\x49\x8b\xc1\xc3 (1 found)
0x14000a5dc: mov esp, ebx ; pop r12 ; pop rdi ; pop rsi ; ret ; \x8b\xe3\x41\x5c\x5f\x5e\xc3 (1 found)
0x14000a844: mov esp, ebx ; pop r12 ; pop rdi ; pop rsi ; ret ; \x8b\xe3\x41\x5c\x5f\x5e\xc3 (1 found)
0x14000aaac: mov esp, ebx ; pop r12 ; pop rdi ; pop rsi ; ret ; \x8b\xe3\x41\x5c\x5f\x5e\xc3 (1 found)
0x14000e4e8: mov esp, ebx ; pop r14 ; pop rdi ; pop rbp ; ret ; \x8b\xe3\x41\x5e\x5f\x5d\xc3 (1 found)
0x140013f20: mov esp, ebx ; pop r14 ; pop rdi ; pop rbp ; ret ; \x8b\xe3\x41\x5e\x5f\x5d\xc3 (1 found)
0x1400116eb: mov esp, ebx ; pop r14 ; pop rdi ; pop rsi ; ret ; \x8b\xe3\x41\x5e\x5f\x5e\xc3 (1 found)
0x140011806: mov esp, ebx ; pop r14 ; pop rdi ; pop rsi ; ret ; \x8b\xe3\x41\x5e\x5f\x5e\xc3 (1 found)
0x140004c1c: mov esp, ebx ; pop r14 ; ret ; \x8b\xe3\x41\x5e\xc3 (1 found)
0x140010724: mov esp, ebx ; pop r14 ; ret ; \x8b\xe3\x41\x5e\xc3 (1 found)
0x14000b879: mov esp, ebx ; pop r15 ; pop r14 ; pop rbp ; ret ; \x8b\xe3\x41\x5f\x41\x5e\x5d\xc3 (1 found)
0x140013250: mov esp, ebx ; pop rbp ; ret ; \x8b\xe3\x5d\xc3 (1 found)
0x140013cb3: mov esp, ebx ; pop rbp ; ret ; \x8b\xe3\x5d\xc3 (1 found)
0x1400191de: mov esp, ebx ; pop rdi ; ret ; \x8b\xe3\x5f\xc3 (1 found)
0x14000f9aa: mov gs, word [rdi+0x38000000] ; pop rdi ; xor byte [rbx+rax-0x75], dh ; pop rdi ; sub al, 0x8B ; ret ; \x8e\xaf\x00\x00\x00\x38\x5f\x30\x74\x03\x8b\x5f\x2c\x8b\xc3 (1 found)
0x14000241f: mov qword [0x000000014002A040], rax ; add rsp, 0x30 ; pop rbp ; ret ; \x48\x89\x05\x1a\x7c\x02\x00\x48\x83\xc4\x30\x5d\xc3 (1 found)
0x140002222: mov qword [0x000000014002B0E0], rax ; mov byte [0x000000014002B0B1], 0x01 ; mov al, 0x01 ; add rsp, 0x20 ; pop rbx ; ret ; \x48\x89\x05\xb7\x8e\x02\x00\xc6\x05\x81\x8e\x02\x00\x01\xb0\x01\x48\x83\xc4\x20\x5b\xc3 (1 found)
0x140005814: mov qword [0x000000014002B288], rcx ; ret ; \x48\x89\x0d\x6d\x5a\x02\x00\xc3 (1 found)
0x140005874: mov qword [0x000000014002B288], rdx ; add rsp, 0x28 ; ret ; \x48\x89\x15\x0d\x5a\x02\x00\x48\x83\xc4\x28\xc3 (1 found)
0x14000cfcd: mov qword [0x000000014002B2B0], r9 ; ret ; \x4c\x89\x0d\xdc\xe2\x01\x00\xc3 (1 found)
0x14000cf6c: mov qword [0x000000014002B2B0], rcx ; ret ; \x48\x89\x0d\x3d\xe3\x01\x00\xc3 (1 found)
0x14000d72a: mov qword [0x000000014002B4E0], rax ; add rsp, 0x28 ; ret ; \x48\x89\x05\xaf\xdd\x01\x00\x48\x83\xc4\x28\xc3 (1 found)
0x14000d937: mov qword [0x000000014002B518], rax ; mov al, 0x01 ; add rsp, 0x28 ; ret ; \x48\x89\x05\xda\xdb\x01\x00\xb0\x01\x48\x83\xc4\x28\xc3 (1 found)
0x14000e4f0: mov qword [0x000000014002B798], rcx ; ret ; \x48\x89\x0d\xa1\xd2\x01\x00\xc3 (1 found)
0x14000dec3: mov qword [0x000000014002B7C0], rax ; mov al, 0x01 ; ret ; \x48\x89\x05\xf6\xd8\x01\x00\xb0\x01\xc3 (1 found)
0x14000df8d: mov qword [0x000000014002BD98], rbx ; mov al, 0x01 ; add rsp, 0x20 ; pop rbx ; ret ; \x48\x89\x1d\x04\xde\x01\x00\xb0\x01\x48\x83\xc4\x20\x5b\xc3 (1 found)
0x1400157ed: mov qword [0x000000014002BDB8], rax ; setne al ; add rsp, 0x28 ; ret ; \x48\x89\x05\xc4\x65\x01\x00\x0f\x95\xc0\x48\x83\xc4\x28\xc3 (1 found)
0x1400158e4: mov qword [0x000000014002BDC0], rcx ; ret ; \x48\x89\x0d\xd5\x64\x01\x00\xc3 (1 found)
0x1400159dc: mov qword [0x000000014002BDC8], rcx ; mov qword [0x000000014002BDD0], rcx ; mov qword [0x000000014002BDD8], rcx ; mov qword [0x000000014002BDE0], rcx ; ret ; \x48\x89\x0d\xe5\x63\x01\x00\x48\x89\x0d\xe6\x63\x01\x00\x48\x89\x0d\xe7\x63\x01\x00\x48\x89\x0d\xe8\x63\x01\x00\xc3 (1 found)
0x1400159e3: mov qword [0x000000014002BDD0], rcx ; mov qword [0x000000014002BDD8], rcx ; mov qword [0x000000014002BDE0], rcx ; ret ; \x48\x89\x0d\xe6\x63\x01\x00\x48\x89\x0d\xe7\x63\x01\x00\x48\x89\x0d\xe8\x63\x01\x00\xc3 (1 found)
0x1400159ea: mov qword [0x000000014002BDD8], rcx ; mov qword [0x000000014002BDE0], rcx ; ret ; \x48\x89\x0d\xe7\x63\x01\x00\x48\x89\x0d\xe8\x63\x01\x00\xc3 (1 found)
0x1400159f1: mov qword [0x000000014002BDE0], rcx ; ret ; \x48\x89\x0d\xe8\x63\x01\x00\xc3 (1 found)
0x1400076c1: mov qword [r8+0x40], rax ; ret ; \x48\x48\x49\x89\x40\x40\xc3 (1 found)
0x1400076c2: mov qword [r8+0x40], rax ; ret ; \x48\x49\x89\x40\x40\xc3 (1 found)
0x1400076c3: mov qword [r8+0x40], rax ; ret ; \x49\x89\x40\x40\xc3 (1 found)
0x140007745: mov qword [r8+0x40], rax ; ret ; \x48\x48\x49\x89\x40\x40\xc3 (1 found)
0x140007746: mov qword [r8+0x40], rax ; ret ; \x48\x49\x89\x40\x40\xc3 (1 found)
0x140007747: mov qword [r8+0x40], rax ; ret ; \x49\x89\x40\x40\xc3 (1 found)
0x1400077c9: mov qword [r8+0x40], rax ; ret ; \x48\x48\x49\x89\x40\x40\xc3 (1 found)
0x1400077ca: mov qword [r8+0x40], rax ; ret ; \x48\x49\x89\x40\x40\xc3 (1 found)
0x1400077cb: mov qword [r8+0x40], rax ; ret ; \x49\x89\x40\x40\xc3 (1 found)
0x140007c6f: mov qword [r8+0x40], rax ; ret ; \x48\x48\x49\x89\x40\x40\xc3 (1 found)
0x140007c70: mov qword [r8+0x40], rax ; ret ; \x48\x49\x89\x40\x40\xc3 (1 found)
0x140007c71: mov qword [r8+0x40], rax ; ret ; \x49\x89\x40\x40\xc3 (1 found)
0x140007cf7: mov qword [r8+0x40], rax ; ret ; \x48\x48\x49\x89\x40\x40\xc3 (1 found)
0x140007cf8: mov qword [r8+0x40], rax ; ret ; \x48\x49\x89\x40\x40\xc3 (1 found)
0x140007cf9: mov qword [r8+0x40], rax ; ret ; \x49\x89\x40\x40\xc3 (1 found)
0x140007d7f: mov qword [r8+0x40], rax ; ret ; \x48\x48\x49\x89\x40\x40\xc3 (1 found)
0x140007d80: mov qword [r8+0x40], rax ; ret ; \x48\x49\x89\x40\x40\xc3 (1 found)
0x140007d81: mov qword [r8+0x40], rax ; ret ; \x49\x89\x40\x40\xc3 (1 found)
0x140017632: mov qword [r8], rax ; mov eax, 0x00000001 ; ret ; \x49\x89\x00\xb8\x01\x00\x00\x00\xc3 (1 found)
0x140007886: mov qword [r9+0x40], rax ; ret ; \x41\x48\x49\x89\x41\x40\xc3 (1 found)
0x140007887: mov qword [r9+0x40], rax ; ret ; \x48\x49\x89\x41\x40\xc3 (1 found)
0x140007888: mov qword [r9+0x40], rax ; ret ; \x49\x89\x41\x40\xc3 (1 found)
0x140007946: mov qword [r9+0x40], rax ; ret ; \x41\x48\x49\x89\x41\x40\xc3 (1 found)
0x140007947: mov qword [r9+0x40], rax ; ret ; \x48\x49\x89\x41\x40\xc3 (1 found)
0x140007948: mov qword [r9+0x40], rax ; ret ; \x49\x89\x41\x40\xc3 (1 found)
0x140007a06: mov qword [r9+0x40], rax ; ret ; \x41\x48\x49\x89\x41\x40\xc3 (1 found)
0x140007a07: mov qword [r9+0x40], rax ; ret ; \x48\x49\x89\x41\x40\xc3 (1 found)
0x140007a08: mov qword [r9+0x40], rax ; ret ; \x49\x89\x41\x40\xc3 (1 found)
0x140007e44: mov qword [r9+0x40], rax ; ret ; \x41\x48\x49\x89\x41\x40\xc3 (1 found)
0x140007e45: mov qword [r9+0x40], rax ; ret ; \x48\x49\x89\x41\x40\xc3 (1 found)
0x140007e46: mov qword [r9+0x40], rax ; ret ; \x49\x89\x41\x40\xc3 (1 found)
0x140007f08: mov qword [r9+0x40], rax ; ret ; \x41\x48\x49\x89\x41\x40\xc3 (1 found)
0x140007f09: mov qword [r9+0x40], rax ; ret ; \x48\x49\x89\x41\x40\xc3 (1 found)
0x140007f0a: mov qword [r9+0x40], rax ; ret ; \x49\x89\x41\x40\xc3 (1 found)
0x140007fcc: mov qword [r9+0x40], rax ; ret ; \x41\x48\x49\x89\x41\x40\xc3 (1 found)
0x140007fcd: mov qword [r9+0x40], rax ; ret ; \x48\x49\x89\x41\x40\xc3 (1 found)
0x140007fce: mov qword [r9+0x40], rax ; ret ; \x49\x89\x41\x40\xc3 (1 found)
0x14001c0c1: mov qword [rax+0x28], rcx ; add rsp, 0x28 ; pop rbp ; pop rbx ; ret ; \x4d\x40\x48\x89\x48\x28\x48\x83\xc4\x28\x5d\x5b\xc3 (1 found)
0x14001c0c2: mov qword [rax+0x28], rcx ; add rsp, 0x28 ; pop rbp ; pop rbx ; ret ; \x40\x48\x89\x48\x28\x48\x83\xc4\x28\x5d\x5b\xc3 (1 found)
0x14001c0c3: mov qword [rax+0x28], rcx ; add rsp, 0x28 ; pop rbp ; pop rbx ; ret ; \x48\x89\x48\x28\x48\x83\xc4\x28\x5d\x5b\xc3 (1 found)
0x140003b81: mov qword [rax+0x58], rbx ; mov rax, rbx ; add rsp, 0x20 ; pop rbx ; ret ; \x48\x89\x58\x58\x48\x8b\xc3\x48\x83\xc4\x20\x5b\xc3 (1 found)
0x140003bce: mov qword [rax+0x58], rbx ; mov rbx, qword [rsp+0x30] ; add rsp, 0x20 ; pop rdi ; ret ; \x48\x89\x58\x58\x48\x8b\x5c\x24\x30\x48\x83\xc4\x20\x5f\xc3 (1 found)
0x140003c1a: mov qword [rax+0x60], rbx ; add rsp, 0x20 ; pop rbx ; ret ; \x48\x89\x58\x60\x48\x83\xc4\x20\x5b\xc3 (1 found)
0x140003c32: mov qword [rax+0x68], rbx ; add rsp, 0x20 ; pop rbx ; ret ; \x48\x89\x58\x68\x48\x83\xc4\x20\x5b\xc3 (1 found)
0x14001b8eb: mov qword [rax], r8 ; mov  [rax+0x08], ecx ; mov byte [rax+0x0C], r9L ; ret ; \x4c\x89\x00\x89\x48\x08\x44\x88\x48\x0c\xc3 (1 found)
0x14001b870: mov qword [rax], r8 ; mov  [rax+0x08], ecx ; mov word [rax+0x0C], r9w ; mov byte [rax+0x0E], r10L ; ret ; \x4c\x89\x00\x89\x48\x08\x66\x44\x89\x48\x0c\x44\x88\x50\x0e\xc3 (1 found)
0x14001b8c3: mov qword [rax], r8 ; mov  [rax+0x08], ecx ; mov word [rax+0x0C], r9w ; ret ; \x4c\x89\x00\x89\x48\x08\x66\x44\x89\x48\x0c\xc3 (1 found)
0x14001b919: mov qword [rax], r8 ; mov  [rax+0x08], ecx ; ret ; \x4c\x89\x00\x89\x48\x08\xc3 (1 found)
0x14001b90c: mov qword [rax], r8 ; mov byte [rax+0x08], cl ; ret ; \x4c\x89\x00\x88\x48\x08\xc3 (1 found)
0x14001b88c: mov qword [rax], r8 ; mov word [rax+0x08], cx ; mov byte [rax+0x0A], r9L ; ret ; \x4c\x89\x00\x66\x89\x48\x08\x44\x88\x48\x0a\xc3 (1 found)
0x14001b8fd: mov qword [rax], r8 ; mov word [rax+0x08], cx ; ret ; \x4c\x89\x00\x66\x89\x48\x08\xc3 (1 found)
0x14001b940: mov qword [rax], rcx ; ret ; \x48\x89\x08\xc3 (1 found)
0x140008542: mov qword [rbp+0x2C], rbx ; mov rbx, qword [rsp+0x48] ; mov rbp, qword [rsp+0x50] ; add rsp, 0x30 ; pop rdi ; ret ; \x48\x89\x5d\x2c\x48\x8b\x5c\x24\x48\x48\x8b\x6c\x24\x50\x48\x83\xc4\x30\x5f\xc3 (1 found)
0x1400085d2: mov qword [rbp+0x2C], rbx ; mov rbx, qword [rsp+0x48] ; mov rbp, qword [rsp+0x50] ; add rsp, 0x30 ; pop rdi ; ret ; \x48\x89\x5d\x2c\x48\x8b\x5c\x24\x48\x48\x8b\x6c\x24\x50\x48\x83\xc4\x30\x5f\xc3 (1 found)
0x140008662: mov qword [rbp+0x2C], rbx ; mov rbx, qword [rsp+0x48] ; mov rbp, qword [rsp+0x50] ; add rsp, 0x30 ; pop rdi ; ret ; \x48\x89\x5d\x2c\x48\x8b\x5c\x24\x48\x48\x8b\x6c\x24\x50\x48\x83\xc4\x30\x5f\xc3 (1 found)
0x140010f52: mov qword [rbx+0x08], rax ; mov qword [rbx], rax ; mov  [rbx+0x10], eax ; add rsp, 0x20 ; pop rbx ; ret ; \x48\x89\x43\x08\x48\x89\x03\x89\x43\x10\x48\x83\xc4\x20\x5b\xc3 (1 found)
0x14000ab69: mov qword [rbx+0x40], rcx ; mov rbx, qword [rsp+0x38] ; add rsp, 0x20 ; pop rdi ; ret ; \x48\x89\x4b\x40\x48\x8b\x5c\x24\x38\x48\x83\xc4\x20\x5f\xc3 (1 found)
0x14000ac2d: mov qword [rbx+0x40], rcx ; mov rbx, qword [rsp+0x38] ; add rsp, 0x20 ; pop rdi ; ret ; \x48\x89\x4b\x40\x48\x8b\x5c\x24\x38\x48\x83\xc4\x20\x5f\xc3 (1 found)
0x14000acf1: mov qword [rbx+0x40], rcx ; mov rbx, qword [rsp+0x38] ; add rsp, 0x20 ; pop rdi ; ret ; \x48\x89\x4b\x40\x48\x8b\x5c\x24\x38\x48\x83\xc4\x20\x5f\xc3 (1 found)
0x14000ea58: mov qword [rbx], rax ; add rsp, 0x20 ; pop rbx ; ret ; \x48\x89\x03\x48\x83\xc4\x20\x5b\xc3 (1 found)
0x14000ea90: mov qword [rbx], rax ; add rsp, 0x20 ; pop rbx ; ret ; \x48\x89\x03\x48\x83\xc4\x20\x5b\xc3 (1 found)
0x14000eac4: mov qword [rbx], rax ; add rsp, 0x20 ; pop rbx ; ret ; \x48\x89\x03\x48\x83\xc4\x20\x5b\xc3 (1 found)
0x14000eafc: mov qword [rbx], rax ; add rsp, 0x20 ; pop rbx ; ret ; \x48\x89\x03\x48\x83\xc4\x20\x5b\xc3 (1 found)
0x140010f56: mov qword [rbx], rax ; mov  [rbx+0x10], eax ; add rsp, 0x20 ; pop rbx ; ret ; \x48\x89\x03\x89\x43\x10\x48\x83\xc4\x20\x5b\xc3 (1 found)
0x140004c60: mov qword [rbx], rax ; mov rax, rbx ; add rsp, 0x20 ; pop rbx ; ret ; \x48\x89\x03\x48\x8b\xc3\x48\x83\xc4\x20\x5b\xc3 (1 found)
0x140018e09: mov qword [rbx], rax ; mov rbx, qword [rsp+0x30] ; add rsp, 0x20 ; pop rdi ; ret ; \x48\x89\x03\x48\x8b\x5c\x24\x30\x48\x83\xc4\x20\x5f\xc3 (1 found)
0x140004c78: mov qword [rcx+0x08], rax ; lea rax, qword [0x000000014001E3E0] ; mov qword [rcx], rax ; mov rax, rcx ; ret ; \x48\x89\x41\x08\x48\x8d\x05\x5d\x97\x01\x00\x48\x89\x01\x48\x8b\xc1\xc3 (1 found)
0x140011ea1: mov qword [rcx+0x08], rax ; mov  [rcx+0x10], eax ; mov qword [rcx+0x1C], rax ; mov qword [rcx+0x28], rax ; xchg  [rcx+0x14], eax ; ret ; \x48\x89\x41\x08\x89\x41\x10\x48\x89\x41\x1c\x48\x89\x41\x28\x87\x41\x14\xc3 (1 found)
0x14000de68: mov qword [rcx+0x08], rax ; mov qword [rcx+0x10], rax ; xor eax, eax ; ret ; \x48\x89\x41\x08\x48\x89\x41\x10\x33\xc0\xc3 (1 found)
0x14000de6c: mov qword [rcx+0x10], rax ; xor eax, eax ; ret ; \x48\x89\x41\x10\x33\xc0\xc3 (1 found)
0x140011ea8: mov qword [rcx+0x1C], rax ; mov qword [rcx+0x28], rax ; xchg  [rcx+0x14], eax ; ret ; \x48\x89\x41\x1c\x48\x89\x41\x28\x87\x41\x14\xc3 (1 found)
0x140011eac: mov qword [rcx+0x28], rax ; xchg  [rcx+0x14], eax ; ret ; \x48\x89\x41\x28\x87\x41\x14\xc3 (1 found)
0x140007aaa: mov qword [rcx+0x40], rax ; ret ; \x48\x48\x89\x41\x40\xc3 (1 found)
0x140007aab: mov qword [rcx+0x40], rax ; ret ; \x48\x89\x41\x40\xc3 (1 found)
0x140007b4a: mov qword [rcx+0x40], rax ; ret ; \x48\x48\x89\x41\x40\xc3 (1 found)
0x140007b4b: mov qword [rcx+0x40], rax ; ret ; \x48\x89\x41\x40\xc3 (1 found)
0x140007bea: mov qword [rcx+0x40], rax ; ret ; \x48\x48\x89\x41\x40\xc3 (1 found)
0x140007beb: mov qword [rcx+0x40], rax ; ret ; \x48\x89\x41\x40\xc3 (1 found)
0x14000806e: mov qword [rcx+0x40], rax ; ret ; \x48\x48\x89\x41\x40\xc3 (1 found)
0x14000806f: mov qword [rcx+0x40], rax ; ret ; \x48\x89\x41\x40\xc3 (1 found)
0x14000810e: mov qword [rcx+0x40], rax ; ret ; \x48\x48\x89\x41\x40\xc3 (1 found)
0x14000810f: mov qword [rcx+0x40], rax ; ret ; \x48\x89\x41\x40\xc3 (1 found)
0x1400081ae: mov qword [rcx+0x40], rax ; ret ; \x48\x48\x89\x41\x40\xc3 (1 found)
0x1400081af: mov qword [rcx+0x40], rax ; ret ; \x48\x89\x41\x40\xc3 (1 found)
0x14001b51a: mov qword [rcx-0x08], r11 ; ret ; \x4c\x89\x59\xf8\xc3 (1 found)
0x14001b507: mov qword [rcx-0x09], r11 ; mov byte [rcx-0x01], r11L ; ret ; \x4c\x89\x59\xf7\x44\x88\x59\xff\xc3 (1 found)
0x14001b510: mov qword [rcx-0x0A], r11 ; mov word [rcx-0x02], r11w ; ret ; \x4c\x89\x59\xf6\x66\x44\x89\x59\xfe\xc3 (1 found)
0x14001b4f9: mov qword [rcx-0x0B], r11 ; mov word [rcx-0x03], r11w ; mov byte [rcx-0x01], r11L ; ret ; \x4c\x89\x59\xf5\x66\x44\x89\x59\xfd\x44\x88\x59\xff\xc3 (1 found)
0x14001b4f0: mov qword [rcx-0x0C], r11 ; mov  [rcx-0x04], r11d ; ret ; \x4c\x89\x59\xf4\x44\x89\x59\xfc\xc3 (1 found)
0x14001b4e0: mov qword [rcx-0x0D], r11 ; mov  [rcx-0x05], r11d ; mov byte [rcx-0x01], r11L ; ret ; \x4c\x89\x59\xf3\x44\x89\x59\xfb\x44\x88\x59\xff\xc3 (1 found)
0x14001b4c3: mov qword [rcx-0x0E], r11 ; mov  [rcx-0x06], r11d ; mov word [rcx-0x02], r11w ; ret ; \x4c\x89\x59\xf2\x44\x89\x59\xfa\x66\x44\x89\x59\xfe\xc3 (1 found)
0x14001b4b1: mov qword [rcx-0x0F], r11 ; mov  [rcx-0x07], r11d ; mov word [rcx-0x03], r11w ; mov byte [rcx-0x01], r11L ; ret ; \x4c\x89\x59\xf1\x44\x89\x59\xf9\x66\x44\x89\x59\xfd\x44\x88\x59\xff\xc3 (1 found)
0x14000de65: mov qword [rcx], rax ; mov qword [rcx+0x08], rax ; mov qword [rcx+0x10], rax ; xor eax, eax ; ret ; \x48\x89\x01\x48\x89\x41\x08\x48\x89\x41\x10\x33\xc0\xc3 (1 found)
0x140004c83: mov qword [rcx], rax ; mov rax, rcx ; ret ; \x48\x89\x01\x48\x8b\xc1\xc3 (1 found)
0x14001aa25: mov qword [rsp+0x08], rcx ; movsd xmm0, qword [rsp+0x08] ; ret ; \x48\x89\x4c\x24\x08\xf2\x0f\x10\x44\x24\x08\xc3 (1 found)
0x140003d12: mov qword [rsp+0x40], rcx ; mov eax,  [rax+rcx+0x04] ; add rsp, 0x20 ; pop rbx ; ret ; \x48\x89\x4c\x24\x40\x8b\x44\x08\x04\x48\x83\xc4\x20\x5b\xc3 (1 found)
0x140015c04: mov r10, 0x8B9C1F4F30D33370 ; mov edx,  [rax+0x10] ; mov ecx, ebx ; mov rax, rsi ; mov r8, qword [0x000000014001D308] ; call r8 ; \x49\xba\x70\x33\xd3\x30\x4f\x1f\x9c\x8b\x8b\x50\x10\x8b\xcb\x48\x8b\xc6\x4c\x8b\x05\xeb\x76\x00\x00\x41\xff\xd0 (1 found)
0x140015c22: mov r10, 0xC6C1864950D77370 ; mov ecx, ebx ; mov rax, rsi ; mov rdx, qword [0x000000014001D308] ; call rdx ; \x49\xba\x70\x73\xd7\x50\x49\x86\xc1\xc6\x8b\xcb\x48\x8b\xc6\x48\x8b\x15\xd0\x76\x00\x00\xff\xd2 (1 found)
0x14001b250: mov r10, qword [rsp+0x00] ; mov r11, qword [rsp+0x08] ; add rsp, 0x10 ; ret ; \x4c\x8b\x14\x24\x4c\x8b\x5c\x24\x08\x48\x83\xc4\x10\xc3 (1 found)
0x140005377: mov r10, rdx ; mov rdx, rax ; mov r8d, r9d ; jmp r10 ; \x4c\x8b\xd2\x48\x8b\xd0\x45\x8b\xc1\x49\xff\xe2 (1 found)
0x14001b254: mov r11, qword [rsp+0x08] ; add rsp, 0x10 ; ret ; \x4c\x8b\x5c\x24\x08\x48\x83\xc4\x10\xc3 (1 found)
0x14001b7a6: mov r11, r9 ; shr r11, 0x04 ; mov r11d,  [r10+r11*4+0x000263E8] ; add r11, r10 ; jmp r11 ; \x4d\x8b\xd9\x49\xc1\xeb\x04\x47\x8b\x9c\x9a\xe8\x63\x02\x00\x4d\x03\xda\x41\xff\xe3 (1 found)
0x14001bd34: mov r11, r9 ; shr r11, 0x04 ; mov r11d,  [r10+r11*4+0x00026498] ; add r11, r10 ; jmp r11 ; \x4d\x8b\xd9\x49\xc1\xeb\x04\x47\x8b\x9c\x9a\x98\x64\x02\x00\x4d\x03\xda\x41\xff\xe3 (1 found)
0x14001b5f2: mov r11, r9 ; shr r11, 0x05 ; mov r11d,  [r10+r11*4+0x000263A0] ; add r11, r10 ; jmp r11 ; \x4d\x8b\xd9\x49\xc1\xeb\x05\x47\x8b\x9c\x9a\xa0\x63\x02\x00\x4d\x03\xda\x41\xff\xe3 (1 found)
0x14001b6b2: mov r11, r9 ; shr r11, 0x05 ; mov r11d,  [r10+r11*4+0x000263C4] ; add r11, r10 ; jmp r11 ; \x4d\x8b\xd9\x49\xc1\xeb\x05\x47\x8b\x9c\x9a\xc4\x63\x02\x00\x4d\x03\xda\x41\xff\xe3 (1 found)
0x14001ba90: mov r11, r9 ; shr r11, 0x05 ; mov r11d,  [r10+r11*4+0x00026450] ; add r11, r10 ; jmp r11 ; \x4d\x8b\xd9\x49\xc1\xeb\x05\x47\x8b\x9c\x9a\x50\x64\x02\x00\x4d\x03\xda\x41\xff\xe3 (1 found)
0x14001bbc0: mov r11, r9 ; shr r11, 0x05 ; mov r11d,  [r10+r11*4+0x00026474] ; add r11, r10 ; jmp r11 ; \x4d\x8b\xd9\x49\xc1\xeb\x05\x47\x8b\x9c\x9a\x74\x64\x02\x00\x4d\x03\xda\x41\xff\xe3 (1 found)
0x14001b5f9: mov r11d,  [r10+r11*4+0x000263A0] ; add r11, r10 ; jmp r11 ; \x47\x8b\x9c\x9a\xa0\x63\x02\x00\x4d\x03\xda\x41\xff\xe3 (1 found)
0x14001b6b9: mov r11d,  [r10+r11*4+0x000263C4] ; add r11, r10 ; jmp r11 ; \x47\x8b\x9c\x9a\xc4\x63\x02\x00\x4d\x03\xda\x41\xff\xe3 (1 found)
0x14001b7ad: mov r11d,  [r10+r11*4+0x000263E8] ; add r11, r10 ; jmp r11 ; \x47\x8b\x9c\x9a\xe8\x63\x02\x00\x4d\x03\xda\x41\xff\xe3 (1 found)
0x14001ba97: mov r11d,  [r10+r11*4+0x00026450] ; add r11, r10 ; jmp r11 ; \x47\x8b\x9c\x9a\x50\x64\x02\x00\x4d\x03\xda\x41\xff\xe3 (1 found)
0x14001bbc7: mov r11d,  [r10+r11*4+0x00026474] ; add r11, r10 ; jmp r11 ; \x47\x8b\x9c\x9a\x74\x64\x02\x00\x4d\x03\xda\x41\xff\xe3 (1 found)
0x14001bd3b: mov r11d,  [r10+r11*4+0x00026498] ; add r11, r10 ; jmp r11 ; \x47\x8b\x9c\x9a\x98\x64\x02\x00\x4d\x03\xda\x41\xff\xe3 (1 found)
0x14000b874: mov r12, qword [r11+0x38] ; mov rsp, r11 ; pop r15 ; pop r14 ; pop rbp ; ret ; \x4d\x8b\x63\x38\x49\x8b\xe3\x41\x5f\x41\x5e\x5d\xc3 (1 found)
0x140012abe: mov r12, qword [rsp+0x58] ; add rsp, 0x20 ; pop r15 ; pop r14 ; pop r13 ; ret ; \x4c\x8b\x64\x24\x58\x48\x83\xc4\x20\x41\x5f\x41\x5e\x41\x5d\xc3 (1 found)
0x14000d91a: mov r14, qword [rsp+0x18] ; ret ; \x4c\x8b\x74\x24\x18\xc3 (1 found)
0x14000d172: mov r14, qword [rsp+0x28] ; pop r15 ; ret ; \x4c\x8b\x74\x24\x28\x41\x5f\xc3 (1 found)
0x14000c92a: mov r14, qword [rsp+0x58] ; add rsp, 0x30 ; pop r15 ; ret ; \x4c\x8b\x74\x24\x58\x48\x83\xc4\x30\x41\x5f\xc3 (1 found)
0x14000f4f6: mov r14, qword [rsp+0x78] ; add rsp, 0x50 ; pop r15 ; ret ; \x4c\x8b\x74\x24\x78\x48\x83\xc4\x50\x41\x5f\xc3 (1 found)
0x140015c16: mov r8, qword [0x000000014001D308] ; call r8 ; \x4c\x8b\x05\xeb\x76\x00\x00\x41\xff\xd0 (1 found)
0x14001b913: mov r8, qword [rdx] ; mov ecx,  [rdx+0x08] ; mov qword [rax], r8 ; mov  [rax+0x08], ecx ; ret ; \x4c\x8b\x02\x8b\x4a\x08\x4c\x89\x00\x89\x48\x08\xc3 (1 found)
0x14001b905: mov r8, qword [rdx] ; movzx ecx, byte [rdx+0x08] ; mov qword [rax], r8 ; mov byte [rax+0x08], cl ; ret ; \x4c\x8b\x02\x0f\xb6\x4a\x08\x4c\x89\x00\x88\x48\x08\xc3 (1 found)
0x14001b8f6: mov r8, qword [rdx] ; movzx ecx, word [rdx+0x08] ; mov qword [rax], r8 ; mov word [rax+0x08], cx ; ret ; \x4c\x8b\x02\x0f\xb7\x4a\x08\x4c\x89\x00\x66\x89\x48\x08\xc3 (1 found)
0x140002f83: mov r8d,  [rbx+rcx*8+0x0C] ; mov cl, 0x01 ; add r8, r12 ; call r8 ; \x47\x48\x44\x8b\x44\xcb\x0c\xb1\x01\x4d\x03\xc4\x41\xff\xd0 (1 found)
0x140002f84: mov r8d,  [rbx+rcx*8+0x0C] ; mov cl, 0x01 ; add r8, r12 ; call r8 ; \x48\x44\x8b\x44\xcb\x0c\xb1\x01\x4d\x03\xc4\x41\xff\xd0 (1 found)
0x140002f85: mov r8d,  [rbx+rcx*8+0x0C] ; mov cl, 0x01 ; add r8, r12 ; call r8 ; \x44\x8b\x44\xcb\x0c\xb1\x01\x4d\x03\xc4\x41\xff\xd0 (1 found)
0x14000537d: mov r8d, r9d ; jmp r10 ; \x45\x8b\xc1\x49\xff\xe2 (1 found)
0x140017675: mov r9, 0xEBE0B14100000002 ; sbb bh, dh ; retn 0x0000 ; \x49\xb9\x02\x00\x00\x00\x41\xb1\xe0\xeb\x18\xf7\xc2\x00\x00 (1 found)
0x14001b4a3: mov r9d,  [r10+r8*4+0x00026360] ; add r9, r10 ; jmp r9 ; \x47\x8b\x8c\x82\x60\x63\x02\x00\x4d\x03\xca\x41\xff\xe1 (1 found)
0x14001b850: mov r9d,  [r10+r8*4+0x00026410] ; add r9, r10 ; jmp r9 ; \x47\x8b\x8c\x82\x10\x64\x02\x00\x4d\x03\xca\x41\xff\xe1 (1 found)
0x14001aa18: mov rax, 0x0008000000000000 ; or rcx, rax ; mov qword [rsp+0x08], rcx ; movsd xmm0, qword [rsp+0x08] ; ret ; \x48\xb8\x00\x00\x00\x00\x00\x00\x08\x00\x48\x0b\xc8\x48\x89\x4c\x24\x08\xf2\x0f\x10\x44\x24\x08\xc3 (1 found)
0x14000de5e: mov rax, qword [0x000000014002A000] ; mov qword [rcx], rax ; mov qword [rcx+0x08], rax ; mov qword [rcx+0x10], rax ; xor eax, eax ; ret ; \x48\x8b\x05\x9b\xc1\x01\x00\x48\x89\x01\x48\x89\x41\x08\x48\x89\x41\x10\x33\xc0\xc3 (1 found)
0x14000d697: mov rax, qword [0x000000014002B4D8] ; add rsp, 0x28 ; ret ; \x48\x8b\x05\x3a\xde\x01\x00\x48\x83\xc4\x28\xc3 (1 found)
0x14000d723: mov rax, qword [0x000000014002B4D8] ; mov qword [0x000000014002B4E0], rax ; add rsp, 0x28 ; ret ; \x48\x8b\x05\xae\xdd\x01\x00\x48\x89\x05\xaf\xdd\x01\x00\x48\x83\xc4\x28\xc3 (1 found)
0x14000e279: mov rax, qword [0x00000030] ; mov rcx, qword [rax+0x60] ; mov eax,  [rcx+0x000000BC] ; shr eax, 0x08 ; and al, 0x01 ; ret ; \x48\x8b\x04\x25\x30\x00\x00\x00\x48\x8b\x48\x60\x8b\x81\xbc\x00\x00\x00\xc1\xe8\x08\x24\x01\xc3 (1 found)
0x14000e295: mov rax, qword [0x00000030] ; mov rcx, qword [rax+0x60] ; mov rax, qword [rcx+0x20] ; mov eax,  [rax+0x08] ; shr eax, 0x1F ; ret ; \x48\x8b\x04\x25\x30\x00\x00\x00\x48\x8b\x48\x60\x48\x8b\x41\x20\x8b\x40\x08\xc1\xe8\x1f\xc3 (1 found)
0x14000e278: mov rax, qword [gs:0x00000030] ; mov rcx, qword [rax+0x60] ; mov eax,  [rcx+0x000000BC] ; shr eax, 0x08 ; and al, 0x01 ; ret ; \x65\x48\x8b\x04\x25\x30\x00\x00\x00\x48\x8b\x48\x60\x8b\x81\xbc\x00\x00\x00\xc1\xe8\x08\x24\x01\xc3 (1 found)
0x14000e294: mov rax, qword [gs:0x00000030] ; mov rcx, qword [rax+0x60] ; mov rax, qword [rcx+0x20] ; mov eax,  [rax+0x08] ; shr eax, 0x1F ; ret ; \x65\x48\x8b\x04\x25\x30\x00\x00\x00\x48\x8b\x48\x60\x48\x8b\x41\x20\x8b\x40\x08\xc1\xe8\x1f\xc3 (1 found)
0x140003bed: mov rax, qword [rax+0x60] ; add rsp, 0x28 ; ret ; \x48\x8b\x40\x60\x48\x83\xc4\x28\xc3 (1 found)
0x140003c01: mov rax, qword [rax+0x68] ; add rsp, 0x28 ; ret ; \x48\x8b\x40\x68\x48\x83\xc4\x28\xc3 (1 found)
0x140005670: mov rax, qword [rbx+0x10] ; mov byte [rax], 0x01 ; add rsp, 0x30 ; pop rbx ; ret ; \x48\x8b\x43\x10\xc6\x00\x01\x48\x83\xc4\x30\x5b\xc3 (1 found)
0x14000e2a1: mov rax, qword [rcx+0x20] ; mov eax,  [rax+0x08] ; shr eax, 0x1F ; ret ; \x48\x8b\x41\x20\x8b\x40\x08\xc1\xe8\x1f\xc3 (1 found)
0x140003d28: mov rax, qword [rcx] ; mov  [rdx+rax], r8d ; ret ; \x48\x8b\x01\x44\x89\x04\x02\xc3 (1 found)
0x1400084b8: mov rax, qword [rdi] ; add rsp, 0x20 ; pop rdi ; ret ; \x48\x8b\x07\x48\x83\xc4\x20\x5f\xc3 (1 found)
0x14000fe02: mov rax, qword [rdx] ; mov byte [rax], cl ; inc qword [rdx] ; movzx eax, cl ; ret ; \x48\x8b\x02\x88\x08\x48\xff\x02\x0f\xb6\xc1\xc3 (1 found)
0x140005374: mov rax, r8 ; mov r10, rdx ; mov rdx, rax ; mov r8d, r9d ; jmp r10 ; \x49\x8b\xc0\x4c\x8b\xd2\x48\x8b\xd0\x45\x8b\xc1\x49\xff\xe2 (1 found)
0x140002a94: mov rax, r8 ; ret ; \x49\x8b\xc0\xc3 (1 found)
0x140002d2d: mov rax, r8 ; ret ; \x49\x8b\xc0\xc3 (1 found)
0x14001b3b4: mov rax, r9 ; mov rbx, qword [rsp+0x08] ; ret ; \x49\x8b\xc1\x48\x8b\x5c\x24\x08\xc3 (1 found)
0x14001b46b: mov rax, r9 ; pop rdi ; ret ; \x49\x8b\xc1\x5f\xc3 (1 found)
0x140002a8d: mov rax, r9 ; ret ; \x49\x8b\xc1\xc3 (1 found)
0x140002cf7: mov rax, r9 ; ret ; \x49\x8b\xc1\xc3 (1 found)
0x140003b85: mov rax, rbx ; add rsp, 0x20 ; pop rbx ; ret ; \x48\x8b\xc3\x48\x83\xc4\x20\x5b\xc3 (1 found)
0x140004c63: mov rax, rbx ; add rsp, 0x20 ; pop rbx ; ret ; \x48\x8b\xc3\x48\x83\xc4\x20\x5b\xc3 (1 found)
0x140004cb5: mov rax, rbx ; add rsp, 0x20 ; pop rbx ; ret ; \x48\x8b\xc3\x48\x83\xc4\x20\x5b\xc3 (1 found)
0x140010443: mov rax, rbx ; add rsp, 0x20 ; pop rbx ; ret ; \x48\x8b\xc3\x48\x83\xc4\x20\x5b\xc3 (1 found)
0x140011e8d: mov rax, rbx ; add rsp, 0x20 ; pop rbx ; ret ; \x48\x8b\xc3\x48\x83\xc4\x20\x5b\xc3 (1 found)
0x14001595a: mov rax, rbx ; add rsp, 0x20 ; pop rbx ; ret ; \x48\x8b\xc3\x48\x83\xc4\x20\x5b\xc3 (1 found)
0x14001b0ee: mov rax, rbx ; add rsp, 0x20 ; pop rbx ; ret ; \x48\x8b\xc3\x48\x83\xc4\x20\x5b\xc3 (1 found)
0x1400105cc: mov rax, rbx ; mov rbx, qword [rsp+0x30] ; add rsp, 0x20 ; pop rdi ; ret ; \x48\x8b\xc3\x48\x8b\x5c\x24\x30\x48\x83\xc4\x20\x5f\xc3 (1 found)
0x1400156ca: mov rax, rbx ; mov rbx, qword [rsp+0x30] ; add rsp, 0x20 ; pop rdi ; ret ; \x48\x8b\xc3\x48\x8b\x5c\x24\x30\x48\x83\xc4\x20\x5f\xc3 (1 found)
0x14001599e: mov rax, rbx ; mov rbx, qword [rsp+0x30] ; add rsp, 0x20 ; pop rdi ; ret ; \x48\x8b\xc3\x48\x8b\x5c\x24\x30\x48\x83\xc4\x20\x5f\xc3 (1 found)
0x140013fc7: mov rax, rbx ; mov rbx, qword [rsp+0x38] ; mov rsi, qword [rsp+0x40] ; add rsp, 0x20 ; pop rdi ; ret ; \x48\x8b\xc3\x48\x8b\x5c\x24\x38\x48\x8b\x74\x24\x40\x48\x83\xc4\x20\x5f\xc3 (1 found)
0x14001232d: mov rax, rbx ; mov rbx, qword [rsp+0x60] ; mov rsi, qword [rsp+0x78] ; add rsp, 0x50 ; pop rdi ; ret ; \x48\x8b\xc3\x48\x8b\x5c\x24\x60\x48\x8b\x74\x24\x78\x48\x83\xc4\x50\x5f\xc3 (1 found)
0x140002d39: mov rax, rcx ; ret ; \x48\x8b\xc1\xc3 (1 found)
0x140004c86: mov rax, rcx ; ret ; \x48\x8b\xc1\xc3 (1 found)
0x1400151a5: mov rax, rcx ; ret ; \x48\x8b\xc1\xc3 (1 found)
0x140019e94: mov rax, rcx ; ret ; \x48\x8b\xc1\xc3 (1 found)
0x140004d0d: mov rax, rdi ; add rsp, 0x20 ; pop rdi ; ret ; \x48\x8b\xc7\x48\x83\xc4\x20\x5f\xc3 (1 found)
0x140004d51: mov rax, rdi ; add rsp, 0x20 ; pop rdi ; ret ; \x48\x8b\xc7\x48\x83\xc4\x20\x5f\xc3 (1 found)
0x1400180a0: mov rax, rdi ; mov rdi, qword [rsp+0x78] ; add rsp, 0x60 ; pop rbp ; ret ; \x48\x8b\xc7\x48\x8b\x7c\x24\x78\x48\x83\xc4\x60\x5d\xc3 (1 found)
0x14001813c: mov rax, rdi ; mov rdi, qword [rsp+0x78] ; add rsp, 0x60 ; pop rbp ; ret ; \x48\x8b\xc7\x48\x8b\x7c\x24\x78\x48\x83\xc4\x60\x5d\xc3 (1 found)
0x14000bac1: mov rax, rdi ; mov rsi, qword [rsp+0x38] ; add rsp, 0x20 ; pop rdi ; ret ; \x48\x8b\xc7\x48\x8b\x74\x24\x38\x48\x83\xc4\x20\x5f\xc3 (1 found)
0x14001039b: mov rax, rdi ; mov rsi, qword [rsp+0x38] ; add rsp, 0x20 ; pop rdi ; ret ; \x48\x8b\xc7\x48\x8b\x74\x24\x38\x48\x83\xc4\x20\x5f\xc3 (1 found)
0x14001050e: mov rax, rdi ; mov rsi, qword [rsp+0x38] ; add rsp, 0x20 ; pop rdi ; ret ; \x48\x8b\xc7\x48\x8b\x74\x24\x38\x48\x83\xc4\x20\x5f\xc3 (1 found)
0x14000235d: mov rax, rdx ; add rsp, 0x20 ; pop rbx ; ret ; \x48\x8b\xc2\x48\x83\xc4\x20\x5b\xc3 (1 found)
0x140005368: mov rax, rdx ; mov rdx, r8 ; jmp rax ; \x48\x8b\xc2\x49\x8b\xd0\x48\xff\xe0 (1 found)
0x140002da7: mov rax, rdx ; ret ; \x48\x8b\xc2\xc3 (1 found)
0x14000ea2a: mov rax, rdx ; ret ; \x48\x8b\xc2\xc3 (1 found)
0x140015c13: mov rax, rsi ; mov r8, qword [0x000000014001D308] ; call r8 ; \x48\x8b\xc6\x4c\x8b\x05\xeb\x76\x00\x00\x41\xff\xd0 (1 found)
0x140003324: mov rax, rsi ; mov rbx, qword [rsp+0x30] ; mov rsi, qword [rsp+0x38] ; add rsp, 0x20 ; pop rdi ; ret ; \x48\x8b\xc6\x48\x8b\x5c\x24\x30\x48\x8b\x74\x24\x38\x48\x83\xc4\x20\x5f\xc3 (1 found)
0x140015c2e: mov rax, rsi ; mov rdx, qword [0x000000014001D308] ; call rdx ; \x48\x8b\xc6\x48\x8b\x15\xd0\x76\x00\x00\xff\xd2 (1 found)
0x14000e338: mov rax, rsi ; mov rsi, qword [rsp+0x40] ; add rsp, 0x20 ; pop rdi ; ret ; \x48\x8b\xc6\x48\x8b\x74\x24\x40\x48\x83\xc4\x20\x5f\xc3 (1 found)
0x140014a16: mov rax, rsi ; mov rsi, qword [rsp+0x40] ; mov rbp, qword [rsp+0x38] ; add rsp, 0x20 ; pop rdi ; ret ; \x48\x8b\xc6\x48\x8b\x74\x24\x40\x48\x8b\x6c\x24\x38\x48\x83\xc4\x20\x5f\xc3 (1 found)
0x140011f8c: mov rax, rsi ; mov rsi, qword [rsp+0x48] ; mov rbp, qword [rsp+0x40] ; add rsp, 0x20 ; pop rdi ; ret ; \x48\x8b\xc6\x48\x8b\x74\x24\x48\x48\x8b\x6c\x24\x40\x48\x83\xc4\x20\x5f\xc3 (1 found)
0x140004c0f: mov rbp, qword [r11+0x18] ; mov rsi, qword [r11+0x20] ; mov rdi, qword [r11+0x28] ; mov rsp, r11 ; pop r14 ; ret ; \x49\x8b\x6b\x18\x49\x8b\x73\x20\x49\x8b\x7b\x28\x49\x8b\xe3\x41\x5e\xc3 (1 found)
0x140010717: mov rbp, qword [r11+0x18] ; mov rsi, qword [r11+0x20] ; mov rdi, qword [r11+0x28] ; mov rsp, r11 ; pop r14 ; ret ; \x49\x8b\x6b\x18\x49\x8b\x73\x20\x49\x8b\x7b\x28\x49\x8b\xe3\x41\x5e\xc3 (1 found)
0x14000a5d7: mov rbp, qword [r11+0x30] ; mov rsp, r11 ; pop r12 ; pop rdi ; pop rsi ; ret ; \x49\x8b\x6b\x30\x49\x8b\xe3\x41\x5c\x5f\x5e\xc3 (1 found)
0x14000a83f: mov rbp, qword [r11+0x30] ; mov rsp, r11 ; pop r12 ; pop rdi ; pop rsi ; ret ; \x49\x8b\x6b\x30\x49\x8b\xe3\x41\x5c\x5f\x5e\xc3 (1 found)
0x14000aaa7: mov rbp, qword [r11+0x30] ; mov rsp, r11 ; pop r12 ; pop rdi ; pop rsi ; ret ; \x49\x8b\x6b\x30\x49\x8b\xe3\x41\x5c\x5f\x5e\xc3 (1 found)
0x1400116e6: mov rbp, qword [r11+0x30] ; mov rsp, r11 ; pop r14 ; pop rdi ; pop rsi ; ret ; \x49\x8b\x6b\x30\x49\x8b\xe3\x41\x5e\x5f\x5e\xc3 (1 found)
0x140011801: mov rbp, qword [r11+0x30] ; mov rsp, r11 ; pop r14 ; pop rdi ; pop rsi ; ret ; \x49\x8b\x6b\x30\x49\x8b\xe3\x41\x5e\x5f\x5e\xc3 (1 found)
0x140014a1d: mov rbp, qword [rsp+0x38] ; add rsp, 0x20 ; pop rdi ; ret ; \x40\x48\x8b\x6c\x24\x38\x48\x83\xc4\x20\x5f\xc3 (1 found)
0x140014a1e: mov rbp, qword [rsp+0x38] ; add rsp, 0x20 ; pop rdi ; ret ; \x48\x8b\x6c\x24\x38\x48\x83\xc4\x20\x5f\xc3 (1 found)
0x14001516d: mov rbp, qword [rsp+0x38] ; add rsp, 0x20 ; pop rsi ; ret ; \x48\x8b\x6c\x24\x38\x48\x83\xc4\x20\x5e\xc3 (1 found)
0x1400037aa: mov rbp, qword [rsp+0x38] ; mov rsi, qword [rsp+0x40] ; add rsp, 0x20 ; pop rdi ; ret ; \x48\x8b\x6c\x24\x38\x48\x8b\x74\x24\x40\x48\x83\xc4\x20\x5f\xc3 (1 found)
0x140005354: mov rbp, qword [rsp+0x38] ; mov rsi, qword [rsp+0x40] ; add rsp, 0x20 ; pop rdi ; ret ; \x48\x8b\x6c\x24\x38\x48\x8b\x74\x24\x40\x48\x83\xc4\x20\x5f\xc3 (1 found)
0x140005b64: mov rbp, qword [rsp+0x38] ; mov rsi, qword [rsp+0x40] ; add rsp, 0x20 ; pop rdi ; ret ; \x48\x8b\x6c\x24\x38\x48\x8b\x74\x24\x40\x48\x83\xc4\x20\x5f\xc3 (1 found)
0x140005c10: mov rbp, qword [rsp+0x38] ; mov rsi, qword [rsp+0x40] ; add rsp, 0x20 ; pop rdi ; ret ; \x48\x8b\x6c\x24\x38\x48\x8b\x74\x24\x40\x48\x83\xc4\x20\x5f\xc3 (1 found)
0x14000bd2c: mov rbp, qword [rsp+0x38] ; mov rsi, qword [rsp+0x40] ; add rsp, 0x20 ; pop rdi ; ret ; \x48\x8b\x6c\x24\x38\x48\x8b\x74\x24\x40\x48\x83\xc4\x20\x5f\xc3 (1 found)
0x14000ce07: mov rbp, qword [rsp+0x38] ; mov rsi, qword [rsp+0x40] ; add rsp, 0x20 ; pop rdi ; ret ; \x48\x8b\x6c\x24\x38\x48\x8b\x74\x24\x40\x48\x83\xc4\x20\x5f\xc3 (1 found)
0x140014518: mov rbp, qword [rsp+0x38] ; mov rsi, qword [rsp+0x40] ; add rsp, 0x20 ; pop rdi ; ret ; \x48\x8b\x6c\x24\x38\x48\x8b\x74\x24\x40\x48\x83\xc4\x20\x5f\xc3 (1 found)
0x1400157cd: mov rbp, qword [rsp+0x38] ; mov rsi, qword [rsp+0x40] ; add rsp, 0x20 ; pop rdi ; ret ; \x48\x8b\x6c\x24\x38\x48\x8b\x74\x24\x40\x48\x83\xc4\x20\x5f\xc3 (1 found)
0x140015d38: mov rbp, qword [rsp+0x38] ; mov rsi, qword [rsp+0x40] ; add rsp, 0x20 ; pop rdi ; ret ; \x48\x8b\x6c\x24\x38\x48\x8b\x74\x24\x40\x48\x83\xc4\x20\x5f\xc3 (1 found)
0x1400049d7: mov rbp, qword [rsp+0x38] ; mov rsi, qword [rsp+0x40] ; mov rdi, qword [rsp+0x48] ; add rsp, 0x20 ; pop r14 ; ret ; \x48\x8b\x6c\x24\x38\x48\x8b\x74\x24\x40\x48\x8b\x7c\x24\x48\x48\x83\xc4\x20\x41\x5e\xc3 (1 found)
0x14000b995: mov rbp, qword [rsp+0x38] ; mov rsi, qword [rsp+0x40] ; mov rdi, qword [rsp+0x48] ; add rsp, 0x20 ; pop r14 ; ret ; \x48\x8b\x6c\x24\x38\x48\x8b\x74\x24\x40\x48\x8b\x7c\x24\x48\x48\x83\xc4\x20\x41\x5e\xc3 (1 found)
0x14001081e: mov rbp, qword [rsp+0x38] ; mov rsi, qword [rsp+0x40] ; mov rdi, qword [rsp+0x48] ; add rsp, 0x20 ; pop r14 ; ret ; \x48\x8b\x6c\x24\x38\x48\x8b\x74\x24\x40\x48\x8b\x7c\x24\x48\x48\x83\xc4\x20\x41\x5e\xc3 (1 found)
0x140014bf5: mov rbp, qword [rsp+0x38] ; mov rsi, qword [rsp+0x40] ; mov rdi, qword [rsp+0x48] ; add rsp, 0x20 ; pop r14 ; ret ; \x48\x8b\x6c\x24\x38\x48\x8b\x74\x24\x40\x48\x8b\x7c\x24\x48\x48\x83\xc4\x20\x41\x5e\xc3 (1 found)
0x14001b1e5: mov rbp, qword [rsp+0x38] ; mov rsi, qword [rsp+0x40] ; mov rdi, qword [rsp+0x48] ; add rsp, 0x20 ; pop r14 ; ret ; \x48\x8b\x6c\x24\x38\x48\x8b\x74\x24\x40\x48\x8b\x7c\x24\x48\x48\x83\xc4\x20\x41\x5e\xc3 (1 found)
0x140011f93: mov rbp, qword [rsp+0x40] ; add rsp, 0x20 ; pop rdi ; ret ; \x48\x48\x8b\x6c\x24\x40\x48\x83\xc4\x20\x5f\xc3 (1 found)
0x140011f94: mov rbp, qword [rsp+0x40] ; add rsp, 0x20 ; pop rdi ; ret ; \x48\x8b\x6c\x24\x40\x48\x83\xc4\x20\x5f\xc3 (1 found)
0x14001897a: mov rbp, qword [rsp+0x40] ; add rsp, 0x20 ; pop rdi ; ret ; \x48\x8b\x6c\x24\x40\x48\x83\xc4\x20\x5f\xc3 (1 found)
0x14001799b: mov rbp, qword [rsp+0x40] ; mov rsi, qword [rsp+0x48] ; add rsp, 0x20 ; pop rdi ; ret ; \x48\x8b\x6c\x24\x40\x48\x8b\x74\x24\x48\x48\x83\xc4\x20\x5f\xc3 (1 found)
0x140017a97: mov rbp, qword [rsp+0x40] ; mov rsi, qword [rsp+0x48] ; add rsp, 0x20 ; pop rdi ; ret ; \x48\x8b\x6c\x24\x40\x48\x8b\x74\x24\x48\x48\x83\xc4\x20\x5f\xc3 (1 found)
0x14000d59d: mov rbp, qword [rsp+0x48] ; mov rsi, qword [rsp+0x50] ; add rsp, 0x30 ; pop rdi ; ret ; \x40\x48\x8b\x6c\x24\x48\x48\x8b\x74\x24\x50\x48\x83\xc4\x30\x5f\xc3 (1 found)
0x14000d59e: mov rbp, qword [rsp+0x48] ; mov rsi, qword [rsp+0x50] ; add rsp, 0x30 ; pop rdi ; ret ; \x48\x8b\x6c\x24\x48\x48\x8b\x74\x24\x50\x48\x83\xc4\x30\x5f\xc3 (1 found)
0x14000e5f9: mov rbp, qword [rsp+0x48] ; mov rsi, qword [rsp+0x50] ; add rsp, 0x30 ; pop rdi ; ret ; \x40\x48\x8b\x6c\x24\x48\x48\x8b\x74\x24\x50\x48\x83\xc4\x30\x5f\xc3 (1 found)
0x14000e5fa: mov rbp, qword [rsp+0x48] ; mov rsi, qword [rsp+0x50] ; add rsp, 0x30 ; pop rdi ; ret ; \x48\x8b\x6c\x24\x48\x48\x8b\x74\x24\x50\x48\x83\xc4\x30\x5f\xc3 (1 found)
0x140015e47: mov rbp, qword [rsp+0x48] ; mov rsi, qword [rsp+0x50] ; add rsp, 0x30 ; pop rdi ; ret ; \x40\x48\x8b\x6c\x24\x48\x48\x8b\x74\x24\x50\x48\x83\xc4\x30\x5f\xc3 (1 found)
0x140015e48: mov rbp, qword [rsp+0x48] ; mov rsi, qword [rsp+0x50] ; add rsp, 0x30 ; pop rdi ; ret ; \x48\x8b\x6c\x24\x48\x48\x8b\x74\x24\x50\x48\x83\xc4\x30\x5f\xc3 (1 found)
0x140018000: mov rbp, qword [rsp+0x48] ; mov rsi, qword [rsp+0x50] ; add rsp, 0x30 ; pop rdi ; ret ; \x40\x48\x8b\x6c\x24\x48\x48\x8b\x74\x24\x50\x48\x83\xc4\x30\x5f\xc3 (1 found)
0x140018001: mov rbp, qword [rsp+0x48] ; mov rsi, qword [rsp+0x50] ; add rsp, 0x30 ; pop rdi ; ret ; \x48\x8b\x6c\x24\x48\x48\x8b\x74\x24\x50\x48\x83\xc4\x30\x5f\xc3 (1 found)
0x1400065ca: mov rbp, qword [rsp+0x48] ; mov rsi, qword [rsp+0x50] ; mov rdi, qword [rsp+0x58] ; add rsp, 0x30 ; pop r14 ; ret ; \x40\x48\x8b\x6c\x24\x48\x48\x8b\x74\x24\x50\x48\x8b\x7c\x24\x58\x48\x83\xc4\x30\x41\x5e\xc3 (1 found)
0x1400065cb: mov rbp, qword [rsp+0x48] ; mov rsi, qword [rsp+0x50] ; mov rdi, qword [rsp+0x58] ; add rsp, 0x30 ; pop r14 ; ret ; \x48\x8b\x6c\x24\x48\x48\x8b\x74\x24\x50\x48\x8b\x7c\x24\x58\x48\x83\xc4\x30\x41\x5e\xc3 (1 found)
0x1400067d6: mov rbp, qword [rsp+0x48] ; mov rsi, qword [rsp+0x50] ; mov rdi, qword [rsp+0x58] ; add rsp, 0x30 ; pop r14 ; ret ; \x40\x48\x8b\x6c\x24\x48\x48\x8b\x74\x24\x50\x48\x8b\x7c\x24\x58\x48\x83\xc4\x30\x41\x5e\xc3 (1 found)
0x1400067d7: mov rbp, qword [rsp+0x48] ; mov rsi, qword [rsp+0x50] ; mov rdi, qword [rsp+0x58] ; add rsp, 0x30 ; pop r14 ; ret ; \x48\x8b\x6c\x24\x48\x48\x8b\x74\x24\x50\x48\x8b\x7c\x24\x58\x48\x83\xc4\x30\x41\x5e\xc3 (1 found)
0x1400069e2: mov rbp, qword [rsp+0x48] ; mov rsi, qword [rsp+0x50] ; mov rdi, qword [rsp+0x58] ; add rsp, 0x30 ; pop r14 ; ret ; \x40\x48\x8b\x6c\x24\x48\x48\x8b\x74\x24\x50\x48\x8b\x7c\x24\x58\x48\x83\xc4\x30\x41\x5e\xc3 (1 found)
0x1400069e3: mov rbp, qword [rsp+0x48] ; mov rsi, qword [rsp+0x50] ; mov rdi, qword [rsp+0x58] ; add rsp, 0x30 ; pop r14 ; ret ; \x48\x8b\x6c\x24\x48\x48\x8b\x74\x24\x50\x48\x8b\x7c\x24\x58\x48\x83\xc4\x30\x41\x5e\xc3 (1 found)
0x140006bee: mov rbp, qword [rsp+0x48] ; mov rsi, qword [rsp+0x50] ; mov rdi, qword [rsp+0x58] ; add rsp, 0x30 ; pop r14 ; ret ; \x40\x48\x8b\x6c\x24\x48\x48\x8b\x74\x24\x50\x48\x8b\x7c\x24\x58\x48\x83\xc4\x30\x41\x5e\xc3 (1 found)
0x140006bef: mov rbp, qword [rsp+0x48] ; mov rsi, qword [rsp+0x50] ; mov rdi, qword [rsp+0x58] ; add rsp, 0x30 ; pop r14 ; ret ; \x48\x8b\x6c\x24\x48\x48\x8b\x74\x24\x50\x48\x8b\x7c\x24\x58\x48\x83\xc4\x30\x41\x5e\xc3 (1 found)
0x140006dfa: mov rbp, qword [rsp+0x48] ; mov rsi, qword [rsp+0x50] ; mov rdi, qword [rsp+0x58] ; add rsp, 0x30 ; pop r14 ; ret ; \x40\x48\x8b\x6c\x24\x48\x48\x8b\x74\x24\x50\x48\x8b\x7c\x24\x58\x48\x83\xc4\x30\x41\x5e\xc3 (1 found)
0x140006dfb: mov rbp, qword [rsp+0x48] ; mov rsi, qword [rsp+0x50] ; mov rdi, qword [rsp+0x58] ; add rsp, 0x30 ; pop r14 ; ret ; \x48\x8b\x6c\x24\x48\x48\x8b\x74\x24\x50\x48\x8b\x7c\x24\x58\x48\x83\xc4\x30\x41\x5e\xc3 (1 found)
0x140007006: mov rbp, qword [rsp+0x48] ; mov rsi, qword [rsp+0x50] ; mov rdi, qword [rsp+0x58] ; add rsp, 0x30 ; pop r14 ; ret ; \x40\x48\x8b\x6c\x24\x48\x48\x8b\x74\x24\x50\x48\x8b\x7c\x24\x58\x48\x83\xc4\x30\x41\x5e\xc3 (1 found)
0x140007007: mov rbp, qword [rsp+0x48] ; mov rsi, qword [rsp+0x50] ; mov rdi, qword [rsp+0x58] ; add rsp, 0x30 ; pop r14 ; ret ; \x48\x8b\x6c\x24\x48\x48\x8b\x74\x24\x50\x48\x8b\x7c\x24\x58\x48\x83\xc4\x30\x41\x5e\xc3 (1 found)
0x140007212: mov rbp, qword [rsp+0x48] ; mov rsi, qword [rsp+0x50] ; mov rdi, qword [rsp+0x58] ; add rsp, 0x30 ; pop r14 ; ret ; \x40\x48\x8b\x6c\x24\x48\x48\x8b\x74\x24\x50\x48\x8b\x7c\x24\x58\x48\x83\xc4\x30\x41\x5e\xc3 (1 found)
0x140007213: mov rbp, qword [rsp+0x48] ; mov rsi, qword [rsp+0x50] ; mov rdi, qword [rsp+0x58] ; add rsp, 0x30 ; pop r14 ; ret ; \x48\x8b\x6c\x24\x48\x48\x8b\x74\x24\x50\x48\x8b\x7c\x24\x58\x48\x83\xc4\x30\x41\x5e\xc3 (1 found)
0x14000741e: mov rbp, qword [rsp+0x48] ; mov rsi, qword [rsp+0x50] ; mov rdi, qword [rsp+0x58] ; add rsp, 0x30 ; pop r14 ; ret ; \x40\x48\x8b\x6c\x24\x48\x48\x8b\x74\x24\x50\x48\x8b\x7c\x24\x58\x48\x83\xc4\x30\x41\x5e\xc3 (1 found)
0x14000741f: mov rbp, qword [rsp+0x48] ; mov rsi, qword [rsp+0x50] ; mov rdi, qword [rsp+0x58] ; add rsp, 0x30 ; pop r14 ; ret ; \x48\x8b\x6c\x24\x48\x48\x8b\x74\x24\x50\x48\x8b\x7c\x24\x58\x48\x83\xc4\x30\x41\x5e\xc3 (1 found)
0x14000762a: mov rbp, qword [rsp+0x48] ; mov rsi, qword [rsp+0x50] ; mov rdi, qword [rsp+0x58] ; add rsp, 0x30 ; pop r14 ; ret ; \x40\x48\x8b\x6c\x24\x48\x48\x8b\x74\x24\x50\x48\x8b\x7c\x24\x58\x48\x83\xc4\x30\x41\x5e\xc3 (1 found)
0x14000762b: mov rbp, qword [rsp+0x48] ; mov rsi, qword [rsp+0x50] ; mov rdi, qword [rsp+0x58] ; add rsp, 0x30 ; pop r14 ; ret ; \x48\x8b\x6c\x24\x48\x48\x8b\x74\x24\x50\x48\x8b\x7c\x24\x58\x48\x83\xc4\x30\x41\x5e\xc3 (1 found)
0x14000890e: mov rbp, qword [rsp+0x48] ; mov rsi, qword [rsp+0x50] ; mov rdi, qword [rsp+0x58] ; add rsp, 0x30 ; pop r14 ; ret ; \x40\x48\x8b\x6c\x24\x48\x48\x8b\x74\x24\x50\x48\x8b\x7c\x24\x58\x48\x83\xc4\x30\x41\x5e\xc3 (1 found)
0x14000890f: mov rbp, qword [rsp+0x48] ; mov rsi, qword [rsp+0x50] ; mov rdi, qword [rsp+0x58] ; add rsp, 0x30 ; pop r14 ; ret ; \x48\x8b\x6c\x24\x48\x48\x8b\x74\x24\x50\x48\x8b\x7c\x24\x58\x48\x83\xc4\x30\x41\x5e\xc3 (1 found)
0x140008be0: mov rbp, qword [rsp+0x48] ; mov rsi, qword [rsp+0x50] ; mov rdi, qword [rsp+0x58] ; add rsp, 0x30 ; pop r14 ; ret ; \x40\x48\x8b\x6c\x24\x48\x48\x8b\x74\x24\x50\x48\x8b\x7c\x24\x58\x48\x83\xc4\x30\x41\x5e\xc3 (1 found)
0x140008be1: mov rbp, qword [rsp+0x48] ; mov rsi, qword [rsp+0x50] ; mov rdi, qword [rsp+0x58] ; add rsp, 0x30 ; pop r14 ; ret ; \x48\x8b\x6c\x24\x48\x48\x8b\x74\x24\x50\x48\x8b\x7c\x24\x58\x48\x83\xc4\x30\x41\x5e\xc3 (1 found)
0x140008eb7: mov rbp, qword [rsp+0x48] ; mov rsi, qword [rsp+0x50] ; mov rdi, qword [rsp+0x58] ; add rsp, 0x30 ; pop r14 ; ret ; \x40\x48\x8b\x6c\x24\x48\x48\x8b\x74\x24\x50\x48\x8b\x7c\x24\x58\x48\x83\xc4\x30\x41\x5e\xc3 (1 found)
0x140008eb8: mov rbp, qword [rsp+0x48] ; mov rsi, qword [rsp+0x50] ; mov rdi, qword [rsp+0x58] ; add rsp, 0x30 ; pop r14 ; ret ; \x48\x8b\x6c\x24\x48\x48\x8b\x74\x24\x50\x48\x8b\x7c\x24\x58\x48\x83\xc4\x30\x41\x5e\xc3 (1 found)
0x14000fc15: mov rbp, qword [rsp+0x48] ; mov rsi, qword [rsp+0x50] ; mov rdi, qword [rsp+0x58] ; add rsp, 0x30 ; pop r14 ; ret ; \x40\x48\x8b\x6c\x24\x48\x48\x8b\x74\x24\x50\x48\x8b\x7c\x24\x58\x48\x83\xc4\x30\x41\x5e\xc3 (1 found)
0x14000fc16: mov rbp, qword [rsp+0x48] ; mov rsi, qword [rsp+0x50] ; mov rdi, qword [rsp+0x58] ; add rsp, 0x30 ; pop r14 ; ret ; \x48\x8b\x6c\x24\x48\x48\x8b\x74\x24\x50\x48\x8b\x7c\x24\x58\x48\x83\xc4\x30\x41\x5e\xc3 (1 found)
0x1400148b5: mov rbp, qword [rsp+0x48] ; mov rsi, qword [rsp+0x50] ; mov rdi, qword [rsp+0x58] ; add rsp, 0x30 ; pop r14 ; ret ; \x40\x48\x8b\x6c\x24\x48\x48\x8b\x74\x24\x50\x48\x8b\x7c\x24\x58\x48\x83\xc4\x30\x41\x5e\xc3 (1 found)
0x1400148b6: mov rbp, qword [rsp+0x48] ; mov rsi, qword [rsp+0x50] ; mov rdi, qword [rsp+0x58] ; add rsp, 0x30 ; pop r14 ; ret ; \x48\x8b\x6c\x24\x48\x48\x8b\x74\x24\x50\x48\x8b\x7c\x24\x58\x48\x83\xc4\x30\x41\x5e\xc3 (1 found)
0x14000854a: mov rbp, qword [rsp+0x50] ; add rsp, 0x30 ; pop rdi ; ret ; \x48\x48\x8b\x6c\x24\x50\x48\x83\xc4\x30\x5f\xc3 (1 found)
0x14000854b: mov rbp, qword [rsp+0x50] ; add rsp, 0x30 ; pop rdi ; ret ; \x48\x8b\x6c\x24\x50\x48\x83\xc4\x30\x5f\xc3 (1 found)
0x1400085da: mov rbp, qword [rsp+0x50] ; add rsp, 0x30 ; pop rdi ; ret ; \x48\x48\x8b\x6c\x24\x50\x48\x83\xc4\x30\x5f\xc3 (1 found)
0x1400085db: mov rbp, qword [rsp+0x50] ; add rsp, 0x30 ; pop rdi ; ret ; \x48\x8b\x6c\x24\x50\x48\x83\xc4\x30\x5f\xc3 (1 found)
0x14000866a: mov rbp, qword [rsp+0x50] ; add rsp, 0x30 ; pop rdi ; ret ; \x48\x48\x8b\x6c\x24\x50\x48\x83\xc4\x30\x5f\xc3 (1 found)
0x14000866b: mov rbp, qword [rsp+0x50] ; add rsp, 0x30 ; pop rdi ; ret ; \x48\x8b\x6c\x24\x50\x48\x83\xc4\x30\x5f\xc3 (1 found)
0x140003cb2: mov rbp, qword [rsp+0x60] ; mov rsi, qword [rsp+0x68] ; add rsp, 0x40 ; pop rdi ; ret ; \x48\x8b\x6c\x24\x60\x48\x8b\x74\x24\x68\x48\x83\xc4\x40\x5f\xc3 (1 found)
0x14000f4ec: mov rbp, qword [rsp+0x68] ; mov rdi, qword [rsp+0x70] ; mov r14, qword [rsp+0x78] ; add rsp, 0x50 ; pop r15 ; ret ; \x48\x8b\x6c\x24\x68\x48\x8b\x7c\x24\x70\x4c\x8b\x74\x24\x78\x48\x83\xc4\x50\x41\x5f\xc3 (1 found)
0x14000f245: mov rbp, qword [rsp+0x68] ; mov rsi, qword [rsp+0x70] ; add rsp, 0x50 ; pop rdi ; ret ; \x48\x8b\x6c\x24\x68\x48\x8b\x74\x24\x70\x48\x83\xc4\x50\x5f\xc3 (1 found)
0x140010c18: mov rbp, qword [rsp+0x68] ; mov rsi, qword [rsp+0x70] ; add rsp, 0x50 ; pop rdi ; ret ; \x48\x8b\x6c\x24\x68\x48\x8b\x74\x24\x70\x48\x83\xc4\x50\x5f\xc3 (1 found)
0x140010d94: mov rbp, qword [rsp+0x68] ; mov rsi, qword [rsp+0x70] ; add rsp, 0x50 ; pop rdi ; ret ; \x48\x8b\x6c\x24\x68\x48\x8b\x74\x24\x70\x48\x83\xc4\x50\x5f\xc3 (1 found)
0x140017e37: mov rbp, qword [rsp+0x68] ; mov rsi, qword [rsp+0x70] ; add rsp, 0x50 ; pop rdi ; ret ; \x48\x8b\x6c\x24\x68\x48\x8b\x74\x24\x70\x48\x83\xc4\x50\x5f\xc3 (1 found)
0x14001932c: mov rbp, qword [rsp+0x68] ; mov rsi, qword [rsp+0x70] ; add rsp, 0x50 ; pop rdi ; ret ; \x48\x8b\x6c\x24\x68\x48\x8b\x74\x24\x70\x48\x83\xc4\x50\x5f\xc3 (1 found)
0x14000ef86: mov rbp, qword [rsp+0x68] ; mov rsi, qword [rsp+0x70] ; mov rdi, qword [rsp+0x78] ; add rsp, 0x50 ; pop r14 ; ret ; \x48\x8b\x6c\x24\x68\x48\x8b\x74\x24\x70\x48\x8b\x7c\x24\x78\x48\x83\xc4\x50\x41\x5e\xc3 (1 found)
0x14001a4a3: mov rbp, qword [rsp+0x68] ; mov rsi, qword [rsp+0x70] ; mov rdi, qword [rsp+0x78] ; add rsp, 0x50 ; pop r14 ; ret ; \x48\x8b\x6c\x24\x68\x48\x8b\x74\x24\x70\x48\x8b\x7c\x24\x78\x48\x83\xc4\x50\x41\x5e\xc3 (1 found)
0x14000f9f7: mov rbp, qword [rsp+0x70] ; add rsp, 0x40 ; pop r14 ; pop rdi ; pop rsi ; ret ; \x48\x8b\x6c\x24\x70\x48\x83\xc4\x40\x41\x5e\x5f\x5e\xc3 (1 found)
0x140013243: mov rbx, qword [r11+0x10] ; mov rsi, qword [r11+0x18] ; mov rdi, qword [r11+0x20] ; mov rsp, r11 ; pop rbp ; ret ; \x49\x8b\x5b\x10\x49\x8b\x73\x18\x49\x8b\x7b\x20\x49\x8b\xe3\x5d\xc3 (1 found)
0x1400191d5: mov rbx, qword [r11+0x10] ; mov rsi, qword [r11+0x18] ; mov rsp, r11 ; pop rdi ; ret ; \x49\x8b\x5b\x10\x49\x8b\x73\x18\x49\x8b\xe3\x5f\xc3 (1 found)
0x140013caa: mov rbx, qword [r11+0x18] ; mov rdi, qword [r11+0x20] ; mov rsp, r11 ; pop rbp ; ret ; \x49\x8b\x5b\x18\x49\x8b\x7b\x20\x49\x8b\xe3\x5d\xc3 (1 found)
0x14000bc3c: mov rbx, qword [rsp+0x00000080] ; add rsp, 0x60 ; pop r14 ; pop rdi ; pop rsi ; ret ; \x48\x8b\x9c\x24\x80\x00\x00\x00\x48\x83\xc4\x60\x41\x5e\x5f\x5e\xc3 (1 found)
0x14000e585: mov rbx, qword [rsp+0x00000080] ; add rsp, 0x70 ; pop rbp ; ret ; \x48\x8b\x9c\x24\x80\x00\x00\x00\x48\x83\xc4\x70\x5d\xc3 (1 found)
0x1400025e7: mov rbx, qword [rsp+0x000005D0] ; add rsp, 0x00000000000005C0 ; pop rbp ; ret ; \x48\x8b\x9c\x24\xd0\x05\x00\x00\x48\x81\xc4\xc0\x05\x00\x00\x5d\xc3 (1 found)
0x14000d910: mov rbx, qword [rsp+0x08] ; mov rdi, qword [rsp+0x10] ; mov r14, qword [rsp+0x18] ; ret ; \x48\x8b\x5c\x24\x08\x48\x8b\x7c\x24\x10\x4c\x8b\x74\x24\x18\xc3 (1 found)
0x140002c75: mov rbx, qword [rsp+0x08] ; mov rdi, qword [rsp+0x10] ; ret ; \x48\x8b\x5c\x24\x08\x48\x8b\x7c\x24\x10\xc3 (1 found)
0x14001b3b7: mov rbx, qword [rsp+0x08] ; ret ; \x48\x8b\x5c\x24\x08\xc3 (1 found)
0x14000d163: mov rbx, qword [rsp+0x10] ; mov rsi, qword [rsp+0x18] ; mov rdi, qword [rsp+0x20] ; mov r14, qword [rsp+0x28] ; pop r15 ; ret ; \x48\x8b\x5c\x24\x10\x48\x8b\x74\x24\x18\x48\x8b\x7c\x24\x20\x4c\x8b\x74\x24\x28\x41\x5f\xc3 (1 found)
0x1400026f9: mov rbx, qword [rsp+0x30] ; add rsp, 0x20 ; pop rdi ; ret ; \x48\x8b\x5c\x24\x30\x48\x83\xc4\x20\x5f\xc3 (1 found)
0x140002735: mov rbx, qword [rsp+0x30] ; add rsp, 0x20 ; pop rdi ; ret ; \x48\x8b\x5c\x24\x30\x48\x83\xc4\x20\x5f\xc3 (1 found)
0x140003692: mov rbx, qword [rsp+0x30] ; add rsp, 0x20 ; pop rdi ; ret ; \x48\x8b\x5c\x24\x30\x48\x83\xc4\x20\x5f\xc3 (1 found)
0x140003bd2: mov rbx, qword [rsp+0x30] ; add rsp, 0x20 ; pop rdi ; ret ; \x48\x8b\x5c\x24\x30\x48\x83\xc4\x20\x5f\xc3 (1 found)
0x140003d60: mov rbx, qword [rsp+0x30] ; add rsp, 0x20 ; pop rdi ; ret ; \x48\x8b\x5c\x24\x30\x48\x83\xc4\x20\x5f\xc3 (1 found)
0x1400055ad: mov rbx, qword [rsp+0x30] ; add rsp, 0x20 ; pop rdi ; ret ; \x48\x8b\x5c\x24\x30\x48\x83\xc4\x20\x5f\xc3 (1 found)
0x1400058c6: mov rbx, qword [rsp+0x30] ; add rsp, 0x20 ; pop rdi ; ret ; \x48\x8b\x5c\x24\x30\x48\x83\xc4\x20\x5f\xc3 (1 found)
0x140005906: mov rbx, qword [rsp+0x30] ; add rsp, 0x20 ; pop rdi ; ret ; \x48\x8b\x5c\x24\x30\x48\x83\xc4\x20\x5f\xc3 (1 found)
0x14000bb61: mov rbx, qword [rsp+0x30] ; add rsp, 0x20 ; pop rdi ; ret ; \x48\x8b\x5c\x24\x30\x48\x83\xc4\x20\x5f\xc3 (1 found)
0x14000bf31: mov rbx, qword [rsp+0x30] ; add rsp, 0x20 ; pop rdi ; ret ; \x48\x8b\x5c\x24\x30\x48\x83\xc4\x20\x5f\xc3 (1 found)
0x14000c99a: mov rbx, qword [rsp+0x30] ; add rsp, 0x20 ; pop rdi ; ret ; \x48\x8b\x5c\x24\x30\x48\x83\xc4\x20\x5f\xc3 (1 found)
0x14000cc0f: mov rbx, qword [rsp+0x30] ; add rsp, 0x20 ; pop rdi ; ret ; \x48\x8b\x5c\x24\x30\x48\x83\xc4\x20\x5f\xc3 (1 found)
0x14000cc4f: mov rbx, qword [rsp+0x30] ; add rsp, 0x20 ; pop rdi ; ret ; \x48\x8b\x5c\x24\x30\x48\x83\xc4\x20\x5f\xc3 (1 found)
0x14000cc6e: mov rbx, qword [rsp+0x30] ; add rsp, 0x20 ; pop rdi ; ret ; \x48\x8b\x5c\x24\x30\x48\x83\xc4\x20\x5f\xc3 (1 found)
0x14000d3c3: mov rbx, qword [rsp+0x30] ; add rsp, 0x20 ; pop rdi ; ret ; \x48\x8b\x5c\x24\x30\x48\x83\xc4\x20\x5f\xc3 (1 found)
0x14000d522: mov rbx, qword [rsp+0x30] ; add rsp, 0x20 ; pop rdi ; ret ; \x48\x8b\x5c\x24\x30\x48\x83\xc4\x20\x5f\xc3 (1 found)
0x14000d566: mov rbx, qword [rsp+0x30] ; add rsp, 0x20 ; pop rdi ; ret ; \x48\x8b\x5c\x24\x30\x48\x83\xc4\x20\x5f\xc3 (1 found)
0x14000d776: mov rbx, qword [rsp+0x30] ; add rsp, 0x20 ; pop rdi ; ret ; \x48\x8b\x5c\x24\x30\x48\x83\xc4\x20\x5f\xc3 (1 found)
0x14000d7c0: mov rbx, qword [rsp+0x30] ; add rsp, 0x20 ; pop rdi ; ret ; \x48\x8b\x5c\x24\x30\x48\x83\xc4\x20\x5f\xc3 (1 found)
0x14000dae0: mov rbx, qword [rsp+0x30] ; add rsp, 0x20 ; pop rdi ; ret ; \x48\x8b\x5c\x24\x30\x48\x83\xc4\x20\x5f\xc3 (1 found)
0x14000db1c: mov rbx, qword [rsp+0x30] ; add rsp, 0x20 ; pop rdi ; ret ; \x48\x8b\x5c\x24\x30\x48\x83\xc4\x20\x5f\xc3 (1 found)
0x14000ff18: mov rbx, qword [rsp+0x30] ; add rsp, 0x20 ; pop rdi ; ret ; \x48\x8b\x5c\x24\x30\x48\x83\xc4\x20\x5f\xc3 (1 found)
0x14000ff98: mov rbx, qword [rsp+0x30] ; add rsp, 0x20 ; pop rdi ; ret ; \x48\x8b\x5c\x24\x30\x48\x83\xc4\x20\x5f\xc3 (1 found)
0x14000ffd6: mov rbx, qword [rsp+0x30] ; add rsp, 0x20 ; pop rdi ; ret ; \x48\x8b\x5c\x24\x30\x48\x83\xc4\x20\x5f\xc3 (1 found)
0x14001001e: mov rbx, qword [rsp+0x30] ; add rsp, 0x20 ; pop rdi ; ret ; \x48\x8b\x5c\x24\x30\x48\x83\xc4\x20\x5f\xc3 (1 found)
0x140010080: mov rbx, qword [rsp+0x30] ; add rsp, 0x20 ; pop rdi ; ret ; \x48\x8b\x5c\x24\x30\x48\x83\xc4\x20\x5f\xc3 (1 found)
0x1400102d0: mov rbx, qword [rsp+0x30] ; add rsp, 0x20 ; pop rdi ; ret ; \x48\x8b\x5c\x24\x30\x48\x83\xc4\x20\x5f\xc3 (1 found)
0x1400105cf: mov rbx, qword [rsp+0x30] ; add rsp, 0x20 ; pop rdi ; ret ; \x48\x8b\x5c\x24\x30\x48\x83\xc4\x20\x5f\xc3 (1 found)
0x140010df6: mov rbx, qword [rsp+0x30] ; add rsp, 0x20 ; pop rdi ; ret ; \x48\x8b\x5c\x24\x30\x48\x83\xc4\x20\x5f\xc3 (1 found)
0x1400110d8: mov rbx, qword [rsp+0x30] ; add rsp, 0x20 ; pop rdi ; ret ; \x48\x8b\x5c\x24\x30\x48\x83\xc4\x20\x5f\xc3 (1 found)
0x1400123ac: mov rbx, qword [rsp+0x30] ; add rsp, 0x20 ; pop rdi ; ret ; \x48\x8b\x5c\x24\x30\x48\x83\xc4\x20\x5f\xc3 (1 found)
0x140013ac5: mov rbx, qword [rsp+0x30] ; add rsp, 0x20 ; pop rdi ; ret ; \x48\x8b\x5c\x24\x30\x48\x83\xc4\x20\x5f\xc3 (1 found)
0x140015063: mov rbx, qword [rsp+0x30] ; add rsp, 0x20 ; pop rdi ; ret ; \x48\x8b\x5c\x24\x30\x48\x83\xc4\x20\x5f\xc3 (1 found)
0x1400156cd: mov rbx, qword [rsp+0x30] ; add rsp, 0x20 ; pop rdi ; ret ; \x48\x8b\x5c\x24\x30\x48\x83\xc4\x20\x5f\xc3 (1 found)
0x14001573a: mov rbx, qword [rsp+0x30] ; add rsp, 0x20 ; pop rdi ; ret ; \x48\x8b\x5c\x24\x30\x48\x83\xc4\x20\x5f\xc3 (1 found)
0x14001591f: mov rbx, qword [rsp+0x30] ; add rsp, 0x20 ; pop rdi ; ret ; \x48\x8b\x5c\x24\x30\x48\x83\xc4\x20\x5f\xc3 (1 found)
0x1400159a1: mov rbx, qword [rsp+0x30] ; add rsp, 0x20 ; pop rdi ; ret ; \x48\x8b\x5c\x24\x30\x48\x83\xc4\x20\x5f\xc3 (1 found)
0x140018e0c: mov rbx, qword [rsp+0x30] ; add rsp, 0x20 ; pop rdi ; ret ; \x48\x8b\x5c\x24\x30\x48\x83\xc4\x20\x5f\xc3 (1 found)
0x1400193b6: mov rbx, qword [rsp+0x30] ; add rsp, 0x20 ; pop rdi ; ret ; \x48\x8b\x5c\x24\x30\x48\x83\xc4\x20\x5f\xc3 (1 found)
0x14001b092: mov rbx, qword [rsp+0x30] ; add rsp, 0x20 ; pop rdi ; ret ; \x48\x8b\x5c\x24\x30\x48\x83\xc4\x20\x5f\xc3 (1 found)
0x14001b290: mov rbx, qword [rsp+0x30] ; add rsp, 0x20 ; pop rdi ; ret ; \x48\x8b\x5c\x24\x30\x48\x83\xc4\x20\x5f\xc3 (1 found)
0x1400108a3: mov rbx, qword [rsp+0x30] ; mov al, 0x01 ; add rsp, 0x20 ; pop rdi ; ret ; \x48\x8b\x5c\x24\x30\xb0\x01\x48\x83\xc4\x20\x5f\xc3 (1 found)
0x1400158d5: mov rbx, qword [rsp+0x30] ; mov al, 0x01 ; add rsp, 0x20 ; pop rdi ; ret ; \x48\x8b\x5c\x24\x30\xb0\x01\x48\x83\xc4\x20\x5f\xc3 (1 found)
0x14000b15c: mov rbx, qword [rsp+0x30] ; mov eax, r10d ; mov rsi, qword [rsp+0x38] ; add rsp, 0x20 ; pop rdi ; ret ; \x48\x8b\x5c\x24\x30\x41\x8b\xc2\x48\x8b\x74\x24\x38\x48\x83\xc4\x20\x5f\xc3 (1 found)
0x14000b1d0: mov rbx, qword [rsp+0x30] ; mov eax, r10d ; mov rsi, qword [rsp+0x38] ; add rsp, 0x20 ; pop rdi ; ret ; \x48\x8b\x5c\x24\x30\x41\x8b\xc2\x48\x8b\x74\x24\x38\x48\x83\xc4\x20\x5f\xc3 (1 found)
0x14000b244: mov rbx, qword [rsp+0x30] ; mov eax, r10d ; mov rsi, qword [rsp+0x38] ; add rsp, 0x20 ; pop rdi ; ret ; \x48\x8b\x5c\x24\x30\x41\x8b\xc2\x48\x8b\x74\x24\x38\x48\x83\xc4\x20\x5f\xc3 (1 found)
0x14000ccf7: mov rbx, qword [rsp+0x30] ; mov eax, r10d ; mov rsi, qword [rsp+0x38] ; add rsp, 0x20 ; pop rdi ; ret ; \x48\x8b\x5c\x24\x30\x41\x8b\xc2\x48\x8b\x74\x24\x38\x48\x83\xc4\x20\x5f\xc3 (1 found)
0x140004d08: mov rbx, qword [rsp+0x30] ; mov rax, rdi ; add rsp, 0x20 ; pop rdi ; ret ; \x48\x8b\x5c\x24\x30\x48\x8b\xc7\x48\x83\xc4\x20\x5f\xc3 (1 found)
0x140004d4c: mov rbx, qword [rsp+0x30] ; mov rax, rdi ; add rsp, 0x20 ; pop rdi ; ret ; \x48\x8b\x5c\x24\x30\x48\x8b\xc7\x48\x83\xc4\x20\x5f\xc3 (1 found)
0x14000babc: mov rbx, qword [rsp+0x30] ; mov rax, rdi ; mov rsi, qword [rsp+0x38] ; add rsp, 0x20 ; pop rdi ; ret ; \x48\x8b\x5c\x24\x30\x48\x8b\xc7\x48\x8b\x74\x24\x38\x48\x83\xc4\x20\x5f\xc3 (1 found)
0x140010396: mov rbx, qword [rsp+0x30] ; mov rax, rdi ; mov rsi, qword [rsp+0x38] ; add rsp, 0x20 ; pop rdi ; ret ; \x48\x8b\x5c\x24\x30\x48\x8b\xc7\x48\x8b\x74\x24\x38\x48\x83\xc4\x20\x5f\xc3 (1 found)
0x140010509: mov rbx, qword [rsp+0x30] ; mov rax, rdi ; mov rsi, qword [rsp+0x38] ; add rsp, 0x20 ; pop rdi ; ret ; \x48\x8b\x5c\x24\x30\x48\x8b\xc7\x48\x8b\x74\x24\x38\x48\x83\xc4\x20\x5f\xc3 (1 found)
0x140015168: mov rbx, qword [rsp+0x30] ; mov rbp, qword [rsp+0x38] ; add rsp, 0x20 ; pop rsi ; ret ; \x48\x8b\x5c\x24\x30\x48\x8b\x6c\x24\x38\x48\x83\xc4\x20\x5e\xc3 (1 found)
0x1400037a5: mov rbx, qword [rsp+0x30] ; mov rbp, qword [rsp+0x38] ; mov rsi, qword [rsp+0x40] ; add rsp, 0x20 ; pop rdi ; ret ; \x48\x8b\x5c\x24\x30\x48\x8b\x6c\x24\x38\x48\x8b\x74\x24\x40\x48\x83\xc4\x20\x5f\xc3 (1 found)
0x14000534f: mov rbx, qword [rsp+0x30] ; mov rbp, qword [rsp+0x38] ; mov rsi, qword [rsp+0x40] ; add rsp, 0x20 ; pop rdi ; ret ; \x48\x8b\x5c\x24\x30\x48\x8b\x6c\x24\x38\x48\x8b\x74\x24\x40\x48\x83\xc4\x20\x5f\xc3 (1 found)
0x140005b5f: mov rbx, qword [rsp+0x30] ; mov rbp, qword [rsp+0x38] ; mov rsi, qword [rsp+0x40] ; add rsp, 0x20 ; pop rdi ; ret ; \x48\x8b\x5c\x24\x30\x48\x8b\x6c\x24\x38\x48\x8b\x74\x24\x40\x48\x83\xc4\x20\x5f\xc3 (1 found)
0x140005c0b: mov rbx, qword [rsp+0x30] ; mov rbp, qword [rsp+0x38] ; mov rsi, qword [rsp+0x40] ; add rsp, 0x20 ; pop rdi ; ret ; \x48\x8b\x5c\x24\x30\x48\x8b\x6c\x24\x38\x48\x8b\x74\x24\x40\x48\x83\xc4\x20\x5f\xc3 (1 found)
0x14000bd27: mov rbx, qword [rsp+0x30] ; mov rbp, qword [rsp+0x38] ; mov rsi, qword [rsp+0x40] ; add rsp, 0x20 ; pop rdi ; ret ; \x48\x8b\x5c\x24\x30\x48\x8b\x6c\x24\x38\x48\x8b\x74\x24\x40\x48\x83\xc4\x20\x5f\xc3 (1 found)
0x14000ce02: mov rbx, qword [rsp+0x30] ; mov rbp, qword [rsp+0x38] ; mov rsi, qword [rsp+0x40] ; add rsp, 0x20 ; pop rdi ; ret ; \x48\x8b\x5c\x24\x30\x48\x8b\x6c\x24\x38\x48\x8b\x74\x24\x40\x48\x83\xc4\x20\x5f\xc3 (1 found)
0x140014513: mov rbx, qword [rsp+0x30] ; mov rbp, qword [rsp+0x38] ; mov rsi, qword [rsp+0x40] ; add rsp, 0x20 ; pop rdi ; ret ; \x48\x8b\x5c\x24\x30\x48\x8b\x6c\x24\x38\x48\x8b\x74\x24\x40\x48\x83\xc4\x20\x5f\xc3 (1 found)
0x1400157c8: mov rbx, qword [rsp+0x30] ; mov rbp, qword [rsp+0x38] ; mov rsi, qword [rsp+0x40] ; add rsp, 0x20 ; pop rdi ; ret ; \x48\x8b\x5c\x24\x30\x48\x8b\x6c\x24\x38\x48\x8b\x74\x24\x40\x48\x83\xc4\x20\x5f\xc3 (1 found)
0x140015d33: mov rbx, qword [rsp+0x30] ; mov rbp, qword [rsp+0x38] ; mov rsi, qword [rsp+0x40] ; add rsp, 0x20 ; pop rdi ; ret ; \x48\x8b\x5c\x24\x30\x48\x8b\x6c\x24\x38\x48\x8b\x74\x24\x40\x48\x83\xc4\x20\x5f\xc3 (1 found)
0x140003327: mov rbx, qword [rsp+0x30] ; mov rsi, qword [rsp+0x38] ; add rsp, 0x20 ; pop rdi ; ret ; \x48\x8b\x5c\x24\x30\x48\x8b\x74\x24\x38\x48\x83\xc4\x20\x5f\xc3 (1 found)
0x1400036f1: mov rbx, qword [rsp+0x30] ; mov rsi, qword [rsp+0x38] ; add rsp, 0x20 ; pop rdi ; ret ; \x48\x8b\x5c\x24\x30\x48\x8b\x74\x24\x38\x48\x83\xc4\x20\x5f\xc3 (1 found)
0x14000383c: mov rbx, qword [rsp+0x30] ; mov rsi, qword [rsp+0x38] ; add rsp, 0x20 ; pop rdi ; ret ; \x48\x8b\x5c\x24\x30\x48\x8b\x74\x24\x38\x48\x83\xc4\x20\x5f\xc3 (1 found)
0x14000a269: mov rbx, qword [rsp+0x30] ; mov rsi, qword [rsp+0x38] ; add rsp, 0x20 ; pop rdi ; ret ; \x48\x8b\x5c\x24\x30\x48\x8b\x74\x24\x38\x48\x83\xc4\x20\x5f\xc3 (1 found)
0x14000a2e9: mov rbx, qword [rsp+0x30] ; mov rsi, qword [rsp+0x38] ; add rsp, 0x20 ; pop rdi ; ret ; \x48\x8b\x5c\x24\x30\x48\x8b\x74\x24\x38\x48\x83\xc4\x20\x5f\xc3 (1 found)
0x14000a369: mov rbx, qword [rsp+0x30] ; mov rsi, qword [rsp+0x38] ; add rsp, 0x20 ; pop rdi ; ret ; \x48\x8b\x5c\x24\x30\x48\x8b\x74\x24\x38\x48\x83\xc4\x20\x5f\xc3 (1 found)
0x14000afb4: mov rbx, qword [rsp+0x30] ; mov rsi, qword [rsp+0x38] ; add rsp, 0x20 ; pop rdi ; ret ; \x48\x8b\x5c\x24\x30\x48\x8b\x74\x24\x38\x48\x83\xc4\x20\x5f\xc3 (1 found)
0x14000b050: mov rbx, qword [rsp+0x30] ; mov rsi, qword [rsp+0x38] ; add rsp, 0x20 ; pop rdi ; ret ; \x48\x8b\x5c\x24\x30\x48\x8b\x74\x24\x38\x48\x83\xc4\x20\x5f\xc3 (1 found)
0x14000b0ec: mov rbx, qword [rsp+0x30] ; mov rsi, qword [rsp+0x38] ; add rsp, 0x20 ; pop rdi ; ret ; \x48\x8b\x5c\x24\x30\x48\x8b\x74\x24\x38\x48\x83\xc4\x20\x5f\xc3 (1 found)
0x14000b2c6: mov rbx, qword [rsp+0x30] ; mov rsi, qword [rsp+0x38] ; add rsp, 0x20 ; pop rdi ; ret ; \x48\x8b\x5c\x24\x30\x48\x8b\x74\x24\x38\x48\x83\xc4\x20\x5f\xc3 (1 found)
0x14000ca7f: mov rbx, qword [rsp+0x30] ; mov rsi, qword [rsp+0x38] ; add rsp, 0x20 ; pop rdi ; ret ; \x48\x8b\x5c\x24\x30\x48\x8b\x74\x24\x38\x48\x83\xc4\x20\x5f\xc3 (1 found)
0x14000e384: mov rbx, qword [rsp+0x30] ; mov rsi, qword [rsp+0x38] ; add rsp, 0x20 ; pop rdi ; ret ; \x48\x8b\x5c\x24\x30\x48\x8b\x74\x24\x38\x48\x83\xc4\x20\x5f\xc3 (1 found)
0x140010ca8: mov rbx, qword [rsp+0x30] ; mov rsi, qword [rsp+0x38] ; add rsp, 0x20 ; pop rdi ; ret ; \x48\x8b\x5c\x24\x30\x48\x8b\x74\x24\x38\x48\x83\xc4\x20\x5f\xc3 (1 found)
0x1400125d1: mov rbx, qword [rsp+0x30] ; mov rsi, qword [rsp+0x38] ; add rsp, 0x20 ; pop rdi ; ret ; \x48\x8b\x5c\x24\x30\x48\x8b\x74\x24\x38\x48\x83\xc4\x20\x5f\xc3 (1 found)
0x140014a6c: mov rbx, qword [rsp+0x30] ; mov rsi, qword [rsp+0x38] ; add rsp, 0x20 ; pop rdi ; ret ; \x48\x8b\x5c\x24\x30\x48\x8b\x74\x24\x38\x48\x83\xc4\x20\x5f\xc3 (1 found)
0x14001588c: mov rbx, qword [rsp+0x30] ; mov rsi, qword [rsp+0x38] ; add rsp, 0x20 ; pop rdi ; ret ; \x48\x8b\x5c\x24\x30\x48\x8b\x74\x24\x38\x48\x83\xc4\x20\x5f\xc3 (1 found)
0x140017603: mov rbx, qword [rsp+0x30] ; mov rsi, qword [rsp+0x38] ; add rsp, 0x20 ; pop rdi ; ret ; \x48\x8b\x5c\x24\x30\x48\x8b\x74\x24\x38\x48\x83\xc4\x20\x5f\xc3 (1 found)
0x140017bdf: mov rbx, qword [rsp+0x30] ; mov rsi, qword [rsp+0x38] ; add rsp, 0x20 ; pop rdi ; ret ; \x48\x8b\x5c\x24\x30\x48\x8b\x74\x24\x38\x48\x83\xc4\x20\x5f\xc3 (1 found)
0x140017cac: mov rbx, qword [rsp+0x30] ; mov rsi, qword [rsp+0x38] ; add rsp, 0x20 ; pop rdi ; ret ; \x48\x8b\x5c\x24\x30\x48\x8b\x74\x24\x38\x48\x83\xc4\x20\x5f\xc3 (1 found)
0x140004080: mov rbx, qword [rsp+0x30] ; mov rsi, qword [rsp+0x38] ; mov rdi, qword [rsp+0x40] ; add rsp, 0x20 ; pop r14 ; ret ; \x48\x8b\x5c\x24\x30\x48\x8b\x74\x24\x38\x48\x8b\x7c\x24\x40\x48\x83\xc4\x20\x41\x5e\xc3 (1 found)
0x140005497: mov rbx, qword [rsp+0x30] ; mov rsi, qword [rsp+0x38] ; mov rdi, qword [rsp+0x40] ; add rsp, 0x20 ; pop r14 ; ret ; \x48\x8b\x5c\x24\x30\x48\x8b\x74\x24\x38\x48\x8b\x7c\x24\x40\x48\x83\xc4\x20\x41\x5e\xc3 (1 found)
0x140014e18: mov rbx, qword [rsp+0x30] ; mov rsi, qword [rsp+0x38] ; mov rdi, qword [rsp+0x40] ; add rsp, 0x20 ; pop r14 ; ret ; \x48\x8b\x5c\x24\x30\x48\x8b\x74\x24\x38\x48\x8b\x7c\x24\x40\x48\x83\xc4\x20\x41\x5e\xc3 (1 found)
0x1400051de: mov rbx, qword [rsp+0x30] ; mov rsi, qword [rsp+0x40] ; add rsp, 0x20 ; pop rdi ; ret ; \x48\x8b\x5c\x24\x30\x48\x8b\x74\x24\x40\x48\x83\xc4\x20\x5f\xc3 (1 found)
0x14001228c: mov rbx, qword [rsp+0x30] ; mov rsi, qword [rsp+0x40] ; mov rdi, qword [rsp+0x48] ; add rsp, 0x20 ; pop r14 ; ret ; \x48\x8b\x5c\x24\x30\x48\x8b\x74\x24\x40\x48\x8b\x7c\x24\x48\x48\x83\xc4\x20\x41\x5e\xc3 (1 found)
0x14001a8e0: mov rbx, qword [rsp+0x30] ; sete al ; add rsp, 0x20 ; pop rdi ; ret ; \x48\x8b\x5c\x24\x30\x0f\x94\xc0\x48\x83\xc4\x20\x5f\xc3 (1 found)
0x1400026a0: mov rbx, qword [rsp+0x30] ; xor eax, eax ; add rsp, 0x20 ; pop rdi ; ret ; \x48\x8b\x5c\x24\x30\x33\xc0\x48\x83\xc4\x20\x5f\xc3 (1 found)
0x140003135: mov rbx, qword [rsp+0x30] ; xor eax, eax ; add rsp, 0x20 ; pop rdi ; ret ; \x48\x8b\x5c\x24\x30\x33\xc0\x48\x83\xc4\x20\x5f\xc3 (1 found)
0x14000cc79: mov rbx, qword [rsp+0x30] ; xor eax, eax ; add rsp, 0x20 ; pop rdi ; ret ; \x48\x8b\x5c\x24\x30\x33\xc0\x48\x83\xc4\x20\x5f\xc3 (1 found)
0x14000ab6b: mov rbx, qword [rsp+0x38] ; add rsp, 0x20 ; pop rdi ; ret ; \x4b\x40\x48\x8b\x5c\x24\x38\x48\x83\xc4\x20\x5f\xc3 (1 found)
0x14000ab6c: mov rbx, qword [rsp+0x38] ; add rsp, 0x20 ; pop rdi ; ret ; \x40\x48\x8b\x5c\x24\x38\x48\x83\xc4\x20\x5f\xc3 (1 found)
0x14000ab6d: mov rbx, qword [rsp+0x38] ; add rsp, 0x20 ; pop rdi ; ret ; \x48\x8b\x5c\x24\x38\x48\x83\xc4\x20\x5f\xc3 (1 found)
0x14000ac2f: mov rbx, qword [rsp+0x38] ; add rsp, 0x20 ; pop rdi ; ret ; \x4b\x40\x48\x8b\x5c\x24\x38\x48\x83\xc4\x20\x5f\xc3 (1 found)
0x14000ac30: mov rbx, qword [rsp+0x38] ; add rsp, 0x20 ; pop rdi ; ret ; \x40\x48\x8b\x5c\x24\x38\x48\x83\xc4\x20\x5f\xc3 (1 found)
0x14000ac31: mov rbx, qword [rsp+0x38] ; add rsp, 0x20 ; pop rdi ; ret ; \x48\x8b\x5c\x24\x38\x48\x83\xc4\x20\x5f\xc3 (1 found)
0x14000acf3: mov rbx, qword [rsp+0x38] ; add rsp, 0x20 ; pop rdi ; ret ; \x4b\x40\x48\x8b\x5c\x24\x38\x48\x83\xc4\x20\x5f\xc3 (1 found)
0x14000acf4: mov rbx, qword [rsp+0x38] ; add rsp, 0x20 ; pop rdi ; ret ; \x40\x48\x8b\x5c\x24\x38\x48\x83\xc4\x20\x5f\xc3 (1 found)
0x14000acf5: mov rbx, qword [rsp+0x38] ; add rsp, 0x20 ; pop rdi ; ret ; \x48\x8b\x5c\x24\x38\x48\x83\xc4\x20\x5f\xc3 (1 found)
0x14000c159: mov rbx, qword [rsp+0x38] ; add rsp, 0x20 ; pop rdi ; ret ; \x48\x8b\x5c\x24\x38\x48\x83\xc4\x20\x5f\xc3 (1 found)
0x1400194c5: mov rbx, qword [rsp+0x38] ; add rsp, 0x20 ; pop rdi ; ret ; \x48\x8b\x5c\x24\x38\x48\x83\xc4\x20\x5f\xc3 (1 found)
0x14000e333: mov rbx, qword [rsp+0x38] ; mov rax, rsi ; mov rsi, qword [rsp+0x40] ; add rsp, 0x20 ; pop rdi ; ret ; \x48\x8b\x5c\x24\x38\x48\x8b\xc6\x48\x8b\x74\x24\x40\x48\x83\xc4\x20\x5f\xc3 (1 found)
0x140018975: mov rbx, qword [rsp+0x38] ; mov rbp, qword [rsp+0x40] ; add rsp, 0x20 ; pop rdi ; ret ; \x48\x8b\x5c\x24\x38\x48\x8b\x6c\x24\x40\x48\x83\xc4\x20\x5f\xc3 (1 found)
0x140017996: mov rbx, qword [rsp+0x38] ; mov rbp, qword [rsp+0x40] ; mov rsi, qword [rsp+0x48] ; add rsp, 0x20 ; pop rdi ; ret ; \x48\x8b\x5c\x24\x38\x48\x8b\x6c\x24\x40\x48\x8b\x74\x24\x48\x48\x83\xc4\x20\x5f\xc3 (1 found)
0x140017a92: mov rbx, qword [rsp+0x38] ; mov rbp, qword [rsp+0x40] ; mov rsi, qword [rsp+0x48] ; add rsp, 0x20 ; pop rdi ; ret ; \x48\x8b\x5c\x24\x38\x48\x8b\x6c\x24\x40\x48\x8b\x74\x24\x48\x48\x83\xc4\x20\x5f\xc3 (1 found)
0x140013fca: mov rbx, qword [rsp+0x38] ; mov rsi, qword [rsp+0x40] ; add rsp, 0x20 ; pop rdi ; ret ; \x48\x8b\x5c\x24\x38\x48\x8b\x74\x24\x40\x48\x83\xc4\x20\x5f\xc3 (1 found)
0x14001aeeb: mov rbx, qword [rsp+0x38] ; mov rsi, qword [rsp+0x40] ; mov rdi, qword [rsp+0x48] ; add rsp, 0x20 ; pop rbp ; ret ; \x48\x8b\x5c\x24\x38\x48\x8b\x74\x24\x40\x48\x8b\x7c\x24\x48\x48\x83\xc4\x20\x5d\xc3 (1 found)
0x14000ada4: mov rbx, qword [rsp+0x40] ; add rsp, 0x30 ; pop rdi ; ret ; \x48\x8b\x5c\x24\x40\x48\x83\xc4\x30\x5f\xc3 (1 found)
0x14000ae5c: mov rbx, qword [rsp+0x40] ; add rsp, 0x30 ; pop rdi ; ret ; \x48\x8b\x5c\x24\x40\x48\x83\xc4\x30\x5f\xc3 (1 found)
0x14000af14: mov rbx, qword [rsp+0x40] ; add rsp, 0x30 ; pop rdi ; ret ; \x48\x8b\x5c\x24\x40\x48\x83\xc4\x30\x5f\xc3 (1 found)
0x14000d599: mov rbx, qword [rsp+0x40] ; mov rbp, qword [rsp+0x48] ; mov rsi, qword [rsp+0x50] ; add rsp, 0x30 ; pop rdi ; ret ; \x48\x8b\x5c\x24\x40\x48\x8b\x6c\x24\x48\x48\x8b\x74\x24\x50\x48\x83\xc4\x30\x5f\xc3 (1 found)
0x14000e5f5: mov rbx, qword [rsp+0x40] ; mov rbp, qword [rsp+0x48] ; mov rsi, qword [rsp+0x50] ; add rsp, 0x30 ; pop rdi ; ret ; \x48\x8b\x5c\x24\x40\x48\x8b\x6c\x24\x48\x48\x8b\x74\x24\x50\x48\x83\xc4\x30\x5f\xc3 (1 found)
0x140015e43: mov rbx, qword [rsp+0x40] ; mov rbp, qword [rsp+0x48] ; mov rsi, qword [rsp+0x50] ; add rsp, 0x30 ; pop rdi ; ret ; \x48\x8b\x5c\x24\x40\x48\x8b\x6c\x24\x48\x48\x8b\x74\x24\x50\x48\x83\xc4\x30\x5f\xc3 (1 found)
0x140017ffc: mov rbx, qword [rsp+0x40] ; mov rbp, qword [rsp+0x48] ; mov rsi, qword [rsp+0x50] ; add rsp, 0x30 ; pop rdi ; ret ; \x48\x8b\x5c\x24\x40\x48\x8b\x6c\x24\x48\x48\x8b\x74\x24\x50\x48\x83\xc4\x30\x5f\xc3 (1 found)
0x14001afbc: mov rbx, qword [rsp+0x40] ; mov rsi, qword [rsp+0x48] ; add rsp, 0x20 ; pop rdi ; ret ; \x48\x8b\x5c\x24\x40\x48\x8b\x74\x24\x48\x48\x83\xc4\x20\x5f\xc3 (1 found)
0x140001f7b: mov rbx, qword [rsp+0x40] ; mov rsi, qword [rsp+0x48] ; add rsp, 0x30 ; pop rdi ; ret ; \x48\x8b\x5c\x24\x40\x48\x8b\x74\x24\x48\x48\x83\xc4\x30\x5f\xc3 (1 found)
0x14000c04d: mov rbx, qword [rsp+0x40] ; mov rsi, qword [rsp+0x48] ; add rsp, 0x30 ; pop rdi ; ret ; \x48\x8b\x5c\x24\x40\x48\x8b\x74\x24\x48\x48\x83\xc4\x30\x5f\xc3 (1 found)
0x14000d9ba: mov rbx, qword [rsp+0x40] ; mov rsi, qword [rsp+0x48] ; add rsp, 0x30 ; pop rdi ; ret ; \x48\x8b\x5c\x24\x40\x48\x8b\x74\x24\x48\x48\x83\xc4\x30\x5f\xc3 (1 found)
0x140014aae: mov rbx, qword [rsp+0x40] ; mov rsi, qword [rsp+0x48] ; mov rdi, qword [rsp+0x50] ; add rsp, 0x30 ; pop r15 ; ret ; \x48\x8b\x5c\x24\x40\x48\x8b\x74\x24\x48\x48\x8b\x7c\x24\x50\x48\x83\xc4\x30\x41\x5f\xc3 (1 found)
0x14000bf7a: mov rbx, qword [rsp+0x48] ; add rsp, 0x30 ; pop rdi ; ret ; \x48\x8b\x5c\x24\x48\x48\x83\xc4\x30\x5f\xc3 (1 found)
0x140010f13: mov rbx, qword [rsp+0x48] ; add rsp, 0x30 ; pop rdi ; ret ; \x48\x8b\x5c\x24\x48\x48\x83\xc4\x30\x5f\xc3 (1 found)
0x140008546: mov rbx, qword [rsp+0x48] ; mov rbp, qword [rsp+0x50] ; add rsp, 0x30 ; pop rdi ; ret ; \x48\x8b\x5c\x24\x48\x48\x8b\x6c\x24\x50\x48\x83\xc4\x30\x5f\xc3 (1 found)
0x1400085d6: mov rbx, qword [rsp+0x48] ; mov rbp, qword [rsp+0x50] ; add rsp, 0x30 ; pop rdi ; ret ; \x48\x8b\x5c\x24\x48\x48\x8b\x6c\x24\x50\x48\x83\xc4\x30\x5f\xc3 (1 found)
0x140008666: mov rbx, qword [rsp+0x48] ; mov rbp, qword [rsp+0x50] ; add rsp, 0x30 ; pop rdi ; ret ; \x48\x8b\x5c\x24\x48\x48\x8b\x6c\x24\x50\x48\x83\xc4\x30\x5f\xc3 (1 found)
0x14000be50: mov rbx, qword [rsp+0x48] ; mov rsi, qword [rsp+0x50] ; mov rdi, qword [rsp+0x58] ; add rsp, 0x30 ; pop r14 ; ret ; \x48\x8b\x5c\x24\x48\x48\x8b\x74\x24\x50\x48\x8b\x7c\x24\x58\x48\x83\xc4\x30\x41\x5e\xc3 (1 found)
0x14001889e: mov rbx, qword [rsp+0x50] ; add rsp, 0x30 ; pop r14 ; pop rdi ; pop rsi ; ret ; \x48\x8b\x5c\x24\x50\x48\x83\xc4\x30\x41\x5e\x5f\x5e\xc3 (1 found)
0x1400010ad: mov rbx, qword [rsp+0x50] ; add rsp, 0x40 ; pop rdi ; ret ; \x48\x8b\x5c\x24\x50\x48\x83\xc4\x40\x5f\xc3 (1 found)
0x140001303: mov rbx, qword [rsp+0x50] ; add rsp, 0x40 ; pop rdi ; ret ; \x48\x8b\x5c\x24\x50\x48\x83\xc4\x40\x5f\xc3 (1 found)
0x14000131e: mov rbx, qword [rsp+0x50] ; add rsp, 0x40 ; pop rdi ; ret ; \x48\x8b\x5c\x24\x50\x48\x83\xc4\x40\x5f\xc3 (1 found)
0x1400139ab: mov rbx, qword [rsp+0x50] ; add rsp, 0x40 ; pop rdi ; ret ; \x48\x8b\x5c\x24\x50\x48\x83\xc4\x40\x5f\xc3 (1 found)
0x14001a1a6: mov rbx, qword [rsp+0x50] ; mov rsi, qword [rsp+0x60] ; add rsp, 0x40 ; pop rdi ; ret ; \x48\x8b\x5c\x24\x50\x48\x8b\x74\x24\x60\x48\x83\xc4\x40\x5f\xc3 (1 found)
0x140002417: mov rbx, qword [rsp+0x50] ; not rax ; mov qword [0x000000014002A040], rax ; add rsp, 0x30 ; pop rbp ; ret ; \x48\x8b\x5c\x24\x50\x48\xf7\xd0\x48\x89\x05\x1a\x7c\x02\x00\x48\x83\xc4\x30\x5d\xc3 (1 found)
0x140003cad: mov rbx, qword [rsp+0x58] ; mov rbp, qword [rsp+0x60] ; mov rsi, qword [rsp+0x68] ; add rsp, 0x40 ; pop rdi ; ret ; \x48\x8b\x5c\x24\x58\x48\x8b\x6c\x24\x60\x48\x8b\x74\x24\x68\x48\x83\xc4\x40\x5f\xc3 (1 found)
0x140005736: mov rbx, qword [rsp+0x60] ; add rsp, 0x50 ; pop rbp ; ret ; \x48\x8b\x5c\x24\x60\x48\x83\xc4\x50\x5d\xc3 (1 found)
0x1400183a2: mov rbx, qword [rsp+0x60] ; add rsp, 0x50 ; pop rdi ; ret ; \x48\x8b\x5c\x24\x60\x48\x83\xc4\x50\x5f\xc3 (1 found)
0x14000f240: mov rbx, qword [rsp+0x60] ; mov rbp, qword [rsp+0x68] ; mov rsi, qword [rsp+0x70] ; add rsp, 0x50 ; pop rdi ; ret ; \x48\x8b\x5c\x24\x60\x48\x8b\x6c\x24\x68\x48\x8b\x74\x24\x70\x48\x83\xc4\x50\x5f\xc3 (1 found)
0x140010c13: mov rbx, qword [rsp+0x60] ; mov rbp, qword [rsp+0x68] ; mov rsi, qword [rsp+0x70] ; add rsp, 0x50 ; pop rdi ; ret ; \x48\x8b\x5c\x24\x60\x48\x8b\x6c\x24\x68\x48\x8b\x74\x24\x70\x48\x83\xc4\x50\x5f\xc3 (1 found)
0x140010d8f: mov rbx, qword [rsp+0x60] ; mov rbp, qword [rsp+0x68] ; mov rsi, qword [rsp+0x70] ; add rsp, 0x50 ; pop rdi ; ret ; \x48\x8b\x5c\x24\x60\x48\x8b\x6c\x24\x68\x48\x8b\x74\x24\x70\x48\x83\xc4\x50\x5f\xc3 (1 found)
0x140017e32: mov rbx, qword [rsp+0x60] ; mov rbp, qword [rsp+0x68] ; mov rsi, qword [rsp+0x70] ; add rsp, 0x50 ; pop rdi ; ret ; \x48\x8b\x5c\x24\x60\x48\x8b\x6c\x24\x68\x48\x8b\x74\x24\x70\x48\x83\xc4\x50\x5f\xc3 (1 found)
0x140019327: mov rbx, qword [rsp+0x60] ; mov rbp, qword [rsp+0x68] ; mov rsi, qword [rsp+0x70] ; add rsp, 0x50 ; pop rdi ; ret ; \x48\x8b\x5c\x24\x60\x48\x8b\x6c\x24\x68\x48\x8b\x74\x24\x70\x48\x83\xc4\x50\x5f\xc3 (1 found)
0x14000f8db: mov rbx, qword [rsp+0x60] ; mov rsi, qword [rsp+0x68] ; add rsp, 0x50 ; pop rdi ; ret ; \x48\x8b\x5c\x24\x60\x48\x8b\x74\x24\x68\x48\x83\xc4\x50\x5f\xc3 (1 found)
0x140012330: mov rbx, qword [rsp+0x60] ; mov rsi, qword [rsp+0x78] ; add rsp, 0x50 ; pop rdi ; ret ; \x48\x8b\x5c\x24\x60\x48\x8b\x74\x24\x78\x48\x83\xc4\x50\x5f\xc3 (1 found)
0x14000bdfc: mov rbx, qword [rsp+0x70] ; mov eax, edi ; mov rdi, qword [rsp+0x78] ; add rsp, 0x60 ; pop rbp ; ret ; \x48\x8b\x5c\x24\x70\x8b\xc7\x48\x8b\x7c\x24\x78\x48\x83\xc4\x60\x5d\xc3 (1 found)
0x14000c0e6: mov rbx, qword [rsp+0x70] ; mov eax, edi ; mov rdi, qword [rsp+0x78] ; add rsp, 0x60 ; pop rbp ; ret ; \x48\x8b\x5c\x24\x70\x8b\xc7\x48\x8b\x7c\x24\x78\x48\x83\xc4\x60\x5d\xc3 (1 found)
0x140011a06: mov rbx, qword [rsp+0x70] ; mov eax, edi ; mov rdi, qword [rsp+0x78] ; add rsp, 0x60 ; pop rbp ; ret ; \x48\x8b\x5c\x24\x70\x8b\xc7\x48\x8b\x7c\x24\x78\x48\x83\xc4\x60\x5d\xc3 (1 found)
0x140012502: mov rbx, qword [rsp+0x70] ; mov eax, edi ; mov rdi, qword [rsp+0x78] ; add rsp, 0x60 ; pop rbp ; ret ; \x48\x8b\x5c\x24\x70\x8b\xc7\x48\x8b\x7c\x24\x78\x48\x83\xc4\x60\x5d\xc3 (1 found)
0x14001a23e: mov rbx, qword [rsp+0x70] ; mov eax, edi ; mov rdi, qword [rsp+0x78] ; add rsp, 0x60 ; pop rbp ; ret ; \x48\x8b\x5c\x24\x70\x8b\xc7\x48\x8b\x7c\x24\x78\x48\x83\xc4\x60\x5d\xc3 (1 found)
0x14001809b: mov rbx, qword [rsp+0x70] ; mov rax, rdi ; mov rdi, qword [rsp+0x78] ; add rsp, 0x60 ; pop rbp ; ret ; \x48\x8b\x5c\x24\x70\x48\x8b\xc7\x48\x8b\x7c\x24\x78\x48\x83\xc4\x60\x5d\xc3 (1 found)
0x140018137: mov rbx, qword [rsp+0x70] ; mov rax, rdi ; mov rdi, qword [rsp+0x78] ; add rsp, 0x60 ; pop rbp ; ret ; \x48\x8b\x5c\x24\x70\x48\x8b\xc7\x48\x8b\x7c\x24\x78\x48\x83\xc4\x60\x5d\xc3 (1 found)
0x14000556f: mov rbx, qword [rsp+0x70] ; mov rsi, qword [rsp+0x78] ; add rsp, 0x50 ; pop rdi ; ret ; \x48\x8b\x5c\x24\x70\x48\x8b\x74\x24\x78\x48\x83\xc4\x50\x5f\xc3 (1 found)
0x14000fc54: mov rcx, qword [0x000000014002A000] ; xor eax, eax ; or rcx, 0x01 ; cmp qword [0x000000014002B7A8], rcx ; sete al ; ret ; \x48\x8b\x0d\xa5\xa3\x01\x00\x33\xc0\x48\x83\xc9\x01\x48\x39\x0d\x40\xbb\x01\x00\x0f\x94\xc0\xc3 (1 found)
0x1400030e8: mov rcx, qword [r9+rcx] ; movsxd r8, qword [rdx+rcx] ; add r8, r9 ; add rax, r8 ; ret ; \x49\x8b\x0c\x09\x4c\x63\x04\x0a\x4d\x03\xc1\x49\x03\xc0\xc3 (1 found)
0x14000e281: mov rcx, qword [rax+0x60] ; mov eax,  [rcx+0x000000BC] ; shr eax, 0x08 ; and al, 0x01 ; ret ; \x48\x8b\x48\x60\x8b\x81\xbc\x00\x00\x00\xc1\xe8\x08\x24\x01\xc3 (1 found)
0x14000e29d: mov rcx, qword [rax+0x60] ; mov rax, qword [rcx+0x20] ; mov eax,  [rax+0x08] ; shr eax, 0x1F ; ret ; \x48\x8b\x48\x60\x48\x8b\x41\x20\x8b\x40\x08\xc1\xe8\x1f\xc3 (1 found)
0x14001c0bf: mov rcx, qword [rbp+0x40] ; mov qword [rax+0x28], rcx ; add rsp, 0x28 ; pop rbp ; pop rbx ; ret ; \x48\x8b\x4d\x40\x48\x89\x48\x28\x48\x83\xc4\x28\x5d\x5b\xc3 (1 found)
0x14001b93d: mov rcx, qword [rdx] ; mov qword [rax], rcx ; ret ; \x48\x8b\x0a\x48\x89\x08\xc3 (1 found)
0x140013a21: mov rcx, qword [rsp+0x20] ; and  [rcx+0x000003A8], 0xFFFFFFFD ; mov eax, ebx ; add rsp, 0x40 ; pop rbx ; ret ; \x48\x8b\x4c\x24\x20\x83\xa1\xa8\x03\x00\x00\xfd\x8b\xc3\x48\x83\xc4\x40\x5b\xc3 (1 found)
0x140011041: mov rcx, qword [rsp+0x30] ; and  [rcx+0x000003A8], 0xFFFFFFFD ; movzx eax, dx ; add rsp, 0x58 ; ret ; \x48\x8b\x4c\x24\x30\x83\xa1\xa8\x03\x00\x00\xfd\x0f\xb7\xc2\x48\x83\xc4\x58\xc3 (1 found)
0x14001b827: mov rcx, r8 ; rep movsb ; pop rsi ; pop rdi ; ret ; \xf2\x49\x8b\xc8\xf3\xa4\x5e\x5f\xc3 (1 found)
0x14001b828: mov rcx, r8 ; rep movsb ; pop rsi ; pop rdi ; ret ; \x49\x8b\xc8\xf3\xa4\x5e\x5f\xc3 (1 found)
0x14001b466: mov rcx, r8 ; rep stosb ; mov rax, r9 ; pop rdi ; ret ; \x49\x8b\xc8\xf3\xaa\x49\x8b\xc1\x5f\xc3 (1 found)
0x14001324b: mov rdi, qword [r11+0x20] ; mov rsp, r11 ; pop rbp ; ret ; \x49\x8b\x7b\x20\x49\x8b\xe3\x5d\xc3 (1 found)
0x140013cae: mov rdi, qword [r11+0x20] ; mov rsp, r11 ; pop rbp ; ret ; \x49\x8b\x7b\x20\x49\x8b\xe3\x5d\xc3 (1 found)
0x140004c17: mov rdi, qword [r11+0x28] ; mov rsp, r11 ; pop r14 ; ret ; \x49\x8b\x7b\x28\x49\x8b\xe3\x41\x5e\xc3 (1 found)
0x14001071f: mov rdi, qword [r11+0x28] ; mov rsp, r11 ; pop r14 ; ret ; \x49\x8b\x7b\x28\x49\x8b\xe3\x41\x5e\xc3 (1 found)
0x140010e1f: mov rdi, qword [rsp+0x08] ; mov al, 0x01 ; ret ; \x48\x8b\x7c\x24\x08\xb0\x01\xc3 (1 found)
0x14000d915: mov rdi, qword [rsp+0x10] ; mov r14, qword [rsp+0x18] ; ret ; \x48\x8b\x7c\x24\x10\x4c\x8b\x74\x24\x18\xc3 (1 found)
0x140002c7a: mov rdi, qword [rsp+0x10] ; ret ; \x48\x8b\x7c\x24\x10\xc3 (1 found)
0x14000d16d: mov rdi, qword [rsp+0x20] ; mov r14, qword [rsp+0x28] ; pop r15 ; ret ; \x48\x8b\x7c\x24\x20\x4c\x8b\x74\x24\x28\x41\x5f\xc3 (1 found)
0x14000408a: mov rdi, qword [rsp+0x40] ; add rsp, 0x20 ; pop r14 ; ret ; \x48\x8b\x7c\x24\x40\x48\x83\xc4\x20\x41\x5e\xc3 (1 found)
0x1400054a1: mov rdi, qword [rsp+0x40] ; add rsp, 0x20 ; pop r14 ; ret ; \x48\x8b\x7c\x24\x40\x48\x83\xc4\x20\x41\x5e\xc3 (1 found)
0x140014e22: mov rdi, qword [rsp+0x40] ; add rsp, 0x20 ; pop r14 ; ret ; \x48\x8b\x7c\x24\x40\x48\x83\xc4\x20\x41\x5e\xc3 (1 found)
0x14001301b: mov rdi, qword [rsp+0x40] ; mov rsi, qword [rsp+0x38] ; add rsp, 0x20 ; pop r14 ; ret ; \x48\x8b\x7c\x24\x40\x48\x8b\x74\x24\x38\x48\x83\xc4\x20\x41\x5e\xc3 (1 found)
0x1400049e0: mov rdi, qword [rsp+0x48] ; add rsp, 0x20 ; pop r14 ; ret ; \x40\x48\x8b\x7c\x24\x48\x48\x83\xc4\x20\x41\x5e\xc3 (1 found)
0x1400049e1: mov rdi, qword [rsp+0x48] ; add rsp, 0x20 ; pop r14 ; ret ; \x48\x8b\x7c\x24\x48\x48\x83\xc4\x20\x41\x5e\xc3 (1 found)
0x14000b99e: mov rdi, qword [rsp+0x48] ; add rsp, 0x20 ; pop r14 ; ret ; \x40\x48\x8b\x7c\x24\x48\x48\x83\xc4\x20\x41\x5e\xc3 (1 found)
0x14000b99f: mov rdi, qword [rsp+0x48] ; add rsp, 0x20 ; pop r14 ; ret ; \x48\x8b\x7c\x24\x48\x48\x83\xc4\x20\x41\x5e\xc3 (1 found)
0x140010827: mov rdi, qword [rsp+0x48] ; add rsp, 0x20 ; pop r14 ; ret ; \x40\x48\x8b\x7c\x24\x48\x48\x83\xc4\x20\x41\x5e\xc3 (1 found)
0x140010828: mov rdi, qword [rsp+0x48] ; add rsp, 0x20 ; pop r14 ; ret ; \x48\x8b\x7c\x24\x48\x48\x83\xc4\x20\x41\x5e\xc3 (1 found)
0x140012295: mov rdi, qword [rsp+0x48] ; add rsp, 0x20 ; pop r14 ; ret ; \x40\x48\x8b\x7c\x24\x48\x48\x83\xc4\x20\x41\x5e\xc3 (1 found)
0x140012296: mov rdi, qword [rsp+0x48] ; add rsp, 0x20 ; pop r14 ; ret ; \x48\x8b\x7c\x24\x48\x48\x83\xc4\x20\x41\x5e\xc3 (1 found)
0x140014bfe: mov rdi, qword [rsp+0x48] ; add rsp, 0x20 ; pop r14 ; ret ; \x40\x48\x8b\x7c\x24\x48\x48\x83\xc4\x20\x41\x5e\xc3 (1 found)
0x140014bff: mov rdi, qword [rsp+0x48] ; add rsp, 0x20 ; pop r14 ; ret ; \x48\x8b\x7c\x24\x48\x48\x83\xc4\x20\x41\x5e\xc3 (1 found)
0x14001b1ee: mov rdi, qword [rsp+0x48] ; add rsp, 0x20 ; pop r14 ; ret ; \x40\x48\x8b\x7c\x24\x48\x48\x83\xc4\x20\x41\x5e\xc3 (1 found)
0x14001b1ef: mov rdi, qword [rsp+0x48] ; add rsp, 0x20 ; pop r14 ; ret ; \x48\x8b\x7c\x24\x48\x48\x83\xc4\x20\x41\x5e\xc3 (1 found)
0x14001aef4: mov rdi, qword [rsp+0x48] ; add rsp, 0x20 ; pop rbp ; ret ; \x40\x48\x8b\x7c\x24\x48\x48\x83\xc4\x20\x5d\xc3 (1 found)
0x14001aef5: mov rdi, qword [rsp+0x48] ; add rsp, 0x20 ; pop rbp ; ret ; \x48\x8b\x7c\x24\x48\x48\x83\xc4\x20\x5d\xc3 (1 found)
0x140014ab7: mov rdi, qword [rsp+0x50] ; add rsp, 0x30 ; pop r15 ; ret ; \x48\x48\x8b\x7c\x24\x50\x48\x83\xc4\x30\x41\x5f\xc3 (1 found)
0x140014ab8: mov rdi, qword [rsp+0x50] ; add rsp, 0x30 ; pop r15 ; ret ; \x48\x8b\x7c\x24\x50\x48\x83\xc4\x30\x41\x5f\xc3 (1 found)
0x14000c924: mov rdi, qword [rsp+0x50] ; mov r14, qword [rsp+0x58] ; add rsp, 0x30 ; pop r15 ; ret ; \x48\x48\x8b\x7c\x24\x50\x4c\x8b\x74\x24\x58\x48\x83\xc4\x30\x41\x5f\xc3 (1 found)
0x14000c925: mov rdi, qword [rsp+0x50] ; mov r14, qword [rsp+0x58] ; add rsp, 0x30 ; pop r15 ; ret ; \x48\x8b\x7c\x24\x50\x4c\x8b\x74\x24\x58\x48\x83\xc4\x30\x41\x5f\xc3 (1 found)
0x14000f60a: mov rdi, qword [rsp+0x58] ; add rsp, 0x20 ; pop r15 ; pop r14 ; pop r12 ; ret ; \x48\x8b\x7c\x24\x58\x48\x83\xc4\x20\x41\x5f\x41\x5e\x41\x5c\xc3 (1 found)
0x1400065d5: mov rdi, qword [rsp+0x58] ; add rsp, 0x30 ; pop r14 ; ret ; \x48\x8b\x7c\x24\x58\x48\x83\xc4\x30\x41\x5e\xc3 (1 found)
0x1400067e1: mov rdi, qword [rsp+0x58] ; add rsp, 0x30 ; pop r14 ; ret ; \x48\x8b\x7c\x24\x58\x48\x83\xc4\x30\x41\x5e\xc3 (1 found)
0x1400069ed: mov rdi, qword [rsp+0x58] ; add rsp, 0x30 ; pop r14 ; ret ; \x48\x8b\x7c\x24\x58\x48\x83\xc4\x30\x41\x5e\xc3 (1 found)
0x140006bf9: mov rdi, qword [rsp+0x58] ; add rsp, 0x30 ; pop r14 ; ret ; \x48\x8b\x7c\x24\x58\x48\x83\xc4\x30\x41\x5e\xc3 (1 found)
0x140006e05: mov rdi, qword [rsp+0x58] ; add rsp, 0x30 ; pop r14 ; ret ; \x48\x8b\x7c\x24\x58\x48\x83\xc4\x30\x41\x5e\xc3 (1 found)
0x140007011: mov rdi, qword [rsp+0x58] ; add rsp, 0x30 ; pop r14 ; ret ; \x48\x8b\x7c\x24\x58\x48\x83\xc4\x30\x41\x5e\xc3 (1 found)
0x14000721d: mov rdi, qword [rsp+0x58] ; add rsp, 0x30 ; pop r14 ; ret ; \x48\x8b\x7c\x24\x58\x48\x83\xc4\x30\x41\x5e\xc3 (1 found)
0x140007429: mov rdi, qword [rsp+0x58] ; add rsp, 0x30 ; pop r14 ; ret ; \x48\x8b\x7c\x24\x58\x48\x83\xc4\x30\x41\x5e\xc3 (1 found)
0x140007635: mov rdi, qword [rsp+0x58] ; add rsp, 0x30 ; pop r14 ; ret ; \x48\x8b\x7c\x24\x58\x48\x83\xc4\x30\x41\x5e\xc3 (1 found)
0x140008919: mov rdi, qword [rsp+0x58] ; add rsp, 0x30 ; pop r14 ; ret ; \x48\x8b\x7c\x24\x58\x48\x83\xc4\x30\x41\x5e\xc3 (1 found)
0x140008beb: mov rdi, qword [rsp+0x58] ; add rsp, 0x30 ; pop r14 ; ret ; \x48\x8b\x7c\x24\x58\x48\x83\xc4\x30\x41\x5e\xc3 (1 found)
0x140008ec2: mov rdi, qword [rsp+0x58] ; add rsp, 0x30 ; pop r14 ; ret ; \x48\x8b\x7c\x24\x58\x48\x83\xc4\x30\x41\x5e\xc3 (1 found)
0x14000be5a: mov rdi, qword [rsp+0x58] ; add rsp, 0x30 ; pop r14 ; ret ; \x48\x8b\x7c\x24\x58\x48\x83\xc4\x30\x41\x5e\xc3 (1 found)
0x14000fc20: mov rdi, qword [rsp+0x58] ; add rsp, 0x30 ; pop r14 ; ret ; \x48\x8b\x7c\x24\x58\x48\x83\xc4\x30\x41\x5e\xc3 (1 found)
0x1400148c0: mov rdi, qword [rsp+0x58] ; add rsp, 0x30 ; pop r14 ; ret ; \x48\x8b\x7c\x24\x58\x48\x83\xc4\x30\x41\x5e\xc3 (1 found)
0x140014d62: mov rdi, qword [rsp+0x60] ; add rsp, 0x30 ; pop r15 ; pop r14 ; pop r12 ; ret ; \x48\x8b\x7c\x24\x60\x48\x83\xc4\x30\x41\x5f\x41\x5e\x41\x5c\xc3 (1 found)
0x140003faa: mov rdi, qword [rsp+0x60] ; add rsp, 0x30 ; pop r15 ; pop r14 ; pop r13 ; ret ; \x48\x8b\x7c\x24\x60\x48\x83\xc4\x30\x41\x5f\x41\x5e\x41\x5d\xc3 (1 found)
0x14000f014: mov rdi, qword [rsp+0x68] ; add rsp, 0x30 ; pop r15 ; pop r14 ; pop r13 ; ret ; \x48\x8b\x7c\x24\x68\x48\x83\xc4\x30\x41\x5f\x41\x5e\x41\x5d\xc3 (1 found)
0x14000f4f1: mov rdi, qword [rsp+0x70] ; mov r14, qword [rsp+0x78] ; add rsp, 0x50 ; pop r15 ; ret ; \x48\x8b\x7c\x24\x70\x4c\x8b\x74\x24\x78\x48\x83\xc4\x50\x41\x5f\xc3 (1 found)
0x140018365: mov rdi, qword [rsp+0x78] ; add rsp, 0x40 ; pop r15 ; pop r14 ; pop r12 ; ret ; \x48\x8b\x7c\x24\x78\x48\x83\xc4\x40\x41\x5f\x41\x5e\x41\x5c\xc3 (1 found)
0x14000ef90: mov rdi, qword [rsp+0x78] ; add rsp, 0x50 ; pop r14 ; ret ; \x48\x8b\x7c\x24\x78\x48\x83\xc4\x50\x41\x5e\xc3 (1 found)
0x14001a4ad: mov rdi, qword [rsp+0x78] ; add rsp, 0x50 ; pop r14 ; ret ; \x48\x8b\x7c\x24\x78\x48\x83\xc4\x50\x41\x5e\xc3 (1 found)
0x14000be03: mov rdi, qword [rsp+0x78] ; add rsp, 0x60 ; pop rbp ; ret ; \x48\x8b\x7c\x24\x78\x48\x83\xc4\x60\x5d\xc3 (1 found)
0x14000c0ed: mov rdi, qword [rsp+0x78] ; add rsp, 0x60 ; pop rbp ; ret ; \x48\x8b\x7c\x24\x78\x48\x83\xc4\x60\x5d\xc3 (1 found)
0x140011a0d: mov rdi, qword [rsp+0x78] ; add rsp, 0x60 ; pop rbp ; ret ; \x48\x8b\x7c\x24\x78\x48\x83\xc4\x60\x5d\xc3 (1 found)
0x140012509: mov rdi, qword [rsp+0x78] ; add rsp, 0x60 ; pop rbp ; ret ; \x48\x8b\x7c\x24\x78\x48\x83\xc4\x60\x5d\xc3 (1 found)
0x1400180a3: mov rdi, qword [rsp+0x78] ; add rsp, 0x60 ; pop rbp ; ret ; \x48\x8b\x7c\x24\x78\x48\x83\xc4\x60\x5d\xc3 (1 found)
0x14001813f: mov rdi, qword [rsp+0x78] ; add rsp, 0x60 ; pop rbp ; ret ; \x48\x8b\x7c\x24\x78\x48\x83\xc4\x60\x5d\xc3 (1 found)
0x14001a245: mov rdi, qword [rsp+0x78] ; add rsp, 0x60 ; pop rbp ; ret ; \x48\x8b\x7c\x24\x78\x48\x83\xc4\x60\x5d\xc3 (1 found)
0x14001b463: mov rdi, rcx ; mov rcx, r8 ; rep stosb ; mov rax, r9 ; pop rdi ; ret ; \x48\x8b\xf9\x49\x8b\xc8\xf3\xaa\x49\x8b\xc1\x5f\xc3 (1 found)
0x14000e742: mov rdx, 0x480474C085480001 ; lea ecx,  [rax+0x20] ; mov  [rcx], ebx ; add rsp, 0x20 ; pop rbx ; ret ; \x4a\xba\x01\x00\x48\x85\xc0\x74\x04\x48\x8d\x48\x20\x89\x19\x48\x83\xc4\x20\x5b\xc3 (1 found)
0x140015c31: mov rdx, qword [0x000000014001D308] ; call rdx ; \x48\x8b\x15\xd0\x76\x00\x00\xff\xd2 (1 found)
0x140002e3e: mov rdx, r13 ; add rax, r12 ; lea rcx, qword [rsp+0x30] ; call rax ; \x49\x8b\xd5\x49\x03\xc4\x48\x8d\x4c\x24\x30\xff\xd0 (1 found)
0x140002f7e: mov rdx, r13 ; mov  [r15+0x48], eax ; mov r8d,  [rbx+rcx*8+0x0C] ; mov cl, 0x01 ; add r8, r12 ; call r8 ; \x49\x8b\xd5\x41\x89\x47\x48\x44\x8b\x44\xcb\x0c\xb1\x01\x4d\x03\xc4\x41\xff\xd0 (1 found)
0x14000536b: mov rdx, r8 ; jmp rax ; \x49\x8b\xd0\x48\xff\xe0 (1 found)
0x14000537a: mov rdx, rax ; mov r8d, r9d ; jmp r10 ; \x48\x8b\xd0\x45\x8b\xc1\x49\xff\xe2 (1 found)
0x140013247: mov rsi, qword [r11+0x18] ; mov rdi, qword [r11+0x20] ; mov rsp, r11 ; pop rbp ; ret ; \x49\x8b\x73\x18\x49\x8b\x7b\x20\x49\x8b\xe3\x5d\xc3 (1 found)
0x1400191d9: mov rsi, qword [r11+0x18] ; mov rsp, r11 ; pop rdi ; ret ; \x49\x8b\x73\x18\x49\x8b\xe3\x5f\xc3 (1 found)
0x140004c13: mov rsi, qword [r11+0x20] ; mov rdi, qword [r11+0x28] ; mov rsp, r11 ; pop r14 ; ret ; \x49\x8b\x73\x20\x49\x8b\x7b\x28\x49\x8b\xe3\x41\x5e\xc3 (1 found)
0x14001071b: mov rsi, qword [r11+0x20] ; mov rdi, qword [r11+0x28] ; mov rsp, r11 ; pop r14 ; ret ; \x49\x8b\x73\x20\x49\x8b\x7b\x28\x49\x8b\xe3\x41\x5e\xc3 (1 found)
0x140013f1b: mov rsi, qword [r11+0x28] ; mov rsp, r11 ; pop r14 ; pop rdi ; pop rbp ; ret ; \x49\x8b\x73\x28\x49\x8b\xe3\x41\x5e\x5f\x5d\xc3 (1 found)
0x14000e4e3: mov rsi, qword [r11+0x30] ; mov rsp, r11 ; pop r14 ; pop rdi ; pop rbp ; ret ; \x49\x8b\x73\x30\x49\x8b\xe3\x41\x5e\x5f\x5d\xc3 (1 found)
0x14000d168: mov rsi, qword [rsp+0x18] ; mov rdi, qword [rsp+0x20] ; mov r14, qword [rsp+0x28] ; pop r15 ; ret ; \x48\x8b\x74\x24\x18\x48\x8b\x7c\x24\x20\x4c\x8b\x74\x24\x28\x41\x5f\xc3 (1 found)
0x14001301f: mov rsi, qword [rsp+0x38] ; add rsp, 0x20 ; pop r14 ; ret ; \x40\x48\x8b\x74\x24\x38\x48\x83\xc4\x20\x41\x5e\xc3 (1 found)
0x140013020: mov rsi, qword [rsp+0x38] ; add rsp, 0x20 ; pop r14 ; ret ; \x48\x8b\x74\x24\x38\x48\x83\xc4\x20\x41\x5e\xc3 (1 found)
0x14000332c: mov rsi, qword [rsp+0x38] ; add rsp, 0x20 ; pop rdi ; ret ; \x48\x8b\x74\x24\x38\x48\x83\xc4\x20\x5f\xc3 (1 found)
0x1400036f6: mov rsi, qword [rsp+0x38] ; add rsp, 0x20 ; pop rdi ; ret ; \x48\x8b\x74\x24\x38\x48\x83\xc4\x20\x5f\xc3 (1 found)
0x140003841: mov rsi, qword [rsp+0x38] ; add rsp, 0x20 ; pop rdi ; ret ; \x48\x8b\x74\x24\x38\x48\x83\xc4\x20\x5f\xc3 (1 found)
0x14000a26e: mov rsi, qword [rsp+0x38] ; add rsp, 0x20 ; pop rdi ; ret ; \x48\x8b\x74\x24\x38\x48\x83\xc4\x20\x5f\xc3 (1 found)
0x14000a2ee: mov rsi, qword [rsp+0x38] ; add rsp, 0x20 ; pop rdi ; ret ; \x48\x8b\x74\x24\x38\x48\x83\xc4\x20\x5f\xc3 (1 found)
0x14000a36e: mov rsi, qword [rsp+0x38] ; add rsp, 0x20 ; pop rdi ; ret ; \x48\x8b\x74\x24\x38\x48\x83\xc4\x20\x5f\xc3 (1 found)
0x14000afb9: mov rsi, qword [rsp+0x38] ; add rsp, 0x20 ; pop rdi ; ret ; \x48\x8b\x74\x24\x38\x48\x83\xc4\x20\x5f\xc3 (1 found)
0x14000b055: mov rsi, qword [rsp+0x38] ; add rsp, 0x20 ; pop rdi ; ret ; \x48\x8b\x74\x24\x38\x48\x83\xc4\x20\x5f\xc3 (1 found)
0x14000b0f1: mov rsi, qword [rsp+0x38] ; add rsp, 0x20 ; pop rdi ; ret ; \x48\x8b\x74\x24\x38\x48\x83\xc4\x20\x5f\xc3 (1 found)
0x14000b164: mov rsi, qword [rsp+0x38] ; add rsp, 0x20 ; pop rdi ; ret ; \x48\x8b\x74\x24\x38\x48\x83\xc4\x20\x5f\xc3 (1 found)
0x14000b1d8: mov rsi, qword [rsp+0x38] ; add rsp, 0x20 ; pop rdi ; ret ; \x48\x8b\x74\x24\x38\x48\x83\xc4\x20\x5f\xc3 (1 found)
0x14000b24c: mov rsi, qword [rsp+0x38] ; add rsp, 0x20 ; pop rdi ; ret ; \x48\x8b\x74\x24\x38\x48\x83\xc4\x20\x5f\xc3 (1 found)
0x14000b2cb: mov rsi, qword [rsp+0x38] ; add rsp, 0x20 ; pop rdi ; ret ; \x48\x8b\x74\x24\x38\x48\x83\xc4\x20\x5f\xc3 (1 found)
0x14000bac4: mov rsi, qword [rsp+0x38] ; add rsp, 0x20 ; pop rdi ; ret ; \x48\x8b\x74\x24\x38\x48\x83\xc4\x20\x5f\xc3 (1 found)
0x14000ca84: mov rsi, qword [rsp+0x38] ; add rsp, 0x20 ; pop rdi ; ret ; \x48\x8b\x74\x24\x38\x48\x83\xc4\x20\x5f\xc3 (1 found)
0x14000ccff: mov rsi, qword [rsp+0x38] ; add rsp, 0x20 ; pop rdi ; ret ; \x48\x8b\x74\x24\x38\x48\x83\xc4\x20\x5f\xc3 (1 found)
0x14000e389: mov rsi, qword [rsp+0x38] ; add rsp, 0x20 ; pop rdi ; ret ; \x48\x8b\x74\x24\x38\x48\x83\xc4\x20\x5f\xc3 (1 found)
0x14001039e: mov rsi, qword [rsp+0x38] ; add rsp, 0x20 ; pop rdi ; ret ; \x48\x8b\x74\x24\x38\x48\x83\xc4\x20\x5f\xc3 (1 found)
0x140010511: mov rsi, qword [rsp+0x38] ; add rsp, 0x20 ; pop rdi ; ret ; \x48\x8b\x74\x24\x38\x48\x83\xc4\x20\x5f\xc3 (1 found)
0x140010cad: mov rsi, qword [rsp+0x38] ; add rsp, 0x20 ; pop rdi ; ret ; \x48\x8b\x74\x24\x38\x48\x83\xc4\x20\x5f\xc3 (1 found)
0x1400125d6: mov rsi, qword [rsp+0x38] ; add rsp, 0x20 ; pop rdi ; ret ; \x48\x8b\x74\x24\x38\x48\x83\xc4\x20\x5f\xc3 (1 found)
0x140014a71: mov rsi, qword [rsp+0x38] ; add rsp, 0x20 ; pop rdi ; ret ; \x48\x8b\x74\x24\x38\x48\x83\xc4\x20\x5f\xc3 (1 found)
0x140015891: mov rsi, qword [rsp+0x38] ; add rsp, 0x20 ; pop rdi ; ret ; \x48\x8b\x74\x24\x38\x48\x83\xc4\x20\x5f\xc3 (1 found)
0x140017608: mov rsi, qword [rsp+0x38] ; add rsp, 0x20 ; pop rdi ; ret ; \x48\x8b\x74\x24\x38\x48\x83\xc4\x20\x5f\xc3 (1 found)
0x140017be4: mov rsi, qword [rsp+0x38] ; add rsp, 0x20 ; pop rdi ; ret ; \x48\x8b\x74\x24\x38\x48\x83\xc4\x20\x5f\xc3 (1 found)
0x140017cb1: mov rsi, qword [rsp+0x38] ; add rsp, 0x20 ; pop rdi ; ret ; \x48\x8b\x74\x24\x38\x48\x83\xc4\x20\x5f\xc3 (1 found)
0x14000117f: mov rsi, qword [rsp+0x38] ; add rsp, 0x40 ; pop rbx ; ret ; \x48\x8b\x74\x24\x38\x48\x83\xc4\x40\x5b\xc3 (1 found)
0x1400105c7: mov rsi, qword [rsp+0x38] ; mov rax, rbx ; mov rbx, qword [rsp+0x30] ; add rsp, 0x20 ; pop rdi ; ret ; \x48\x8b\x74\x24\x38\x48\x8b\xc3\x48\x8b\x5c\x24\x30\x48\x83\xc4\x20\x5f\xc3 (1 found)
0x140004085: mov rsi, qword [rsp+0x38] ; mov rdi, qword [rsp+0x40] ; add rsp, 0x20 ; pop r14 ; ret ; \x48\x8b\x74\x24\x38\x48\x8b\x7c\x24\x40\x48\x83\xc4\x20\x41\x5e\xc3 (1 found)
0x14000549c: mov rsi, qword [rsp+0x38] ; mov rdi, qword [rsp+0x40] ; add rsp, 0x20 ; pop r14 ; ret ; \x48\x8b\x74\x24\x38\x48\x8b\x7c\x24\x40\x48\x83\xc4\x20\x41\x5e\xc3 (1 found)
0x140014e1d: mov rsi, qword [rsp+0x38] ; mov rdi, qword [rsp+0x40] ; add rsp, 0x20 ; pop r14 ; ret ; \x48\x8b\x74\x24\x38\x48\x8b\x7c\x24\x40\x48\x83\xc4\x20\x41\x5e\xc3 (1 found)
0x140002a00: mov rsi, qword [rsp+0x40] ; add rsp, 0x10 ; pop r14 ; pop rdi ; pop rbp ; ret ; \x48\x8b\x74\x24\x40\x48\x83\xc4\x10\x41\x5e\x5f\x5d\xc3 (1 found)
0x1400037af: mov rsi, qword [rsp+0x40] ; add rsp, 0x20 ; pop rdi ; ret ; \x48\x8b\x74\x24\x40\x48\x83\xc4\x20\x5f\xc3 (1 found)
0x1400051e3: mov rsi, qword [rsp+0x40] ; add rsp, 0x20 ; pop rdi ; ret ; \x48\x8b\x74\x24\x40\x48\x83\xc4\x20\x5f\xc3 (1 found)
0x140005359: mov rsi, qword [rsp+0x40] ; add rsp, 0x20 ; pop rdi ; ret ; \x48\x8b\x74\x24\x40\x48\x83\xc4\x20\x5f\xc3 (1 found)
0x140005b69: mov rsi, qword [rsp+0x40] ; add rsp, 0x20 ; pop rdi ; ret ; \x48\x8b\x74\x24\x40\x48\x83\xc4\x20\x5f\xc3 (1 found)
0x140005c15: mov rsi, qword [rsp+0x40] ; add rsp, 0x20 ; pop rdi ; ret ; \x48\x8b\x74\x24\x40\x48\x83\xc4\x20\x5f\xc3 (1 found)
0x14000bd31: mov rsi, qword [rsp+0x40] ; add rsp, 0x20 ; pop rdi ; ret ; \x48\x8b\x74\x24\x40\x48\x83\xc4\x20\x5f\xc3 (1 found)
0x14000ce0c: mov rsi, qword [rsp+0x40] ; add rsp, 0x20 ; pop rdi ; ret ; \x48\x8b\x74\x24\x40\x48\x83\xc4\x20\x5f\xc3 (1 found)
0x14000e33b: mov rsi, qword [rsp+0x40] ; add rsp, 0x20 ; pop rdi ; ret ; \x48\x8b\x74\x24\x40\x48\x83\xc4\x20\x5f\xc3 (1 found)
0x140013fcf: mov rsi, qword [rsp+0x40] ; add rsp, 0x20 ; pop rdi ; ret ; \x48\x8b\x74\x24\x40\x48\x83\xc4\x20\x5f\xc3 (1 found)
0x14001451d: mov rsi, qword [rsp+0x40] ; add rsp, 0x20 ; pop rdi ; ret ; \x48\x8b\x74\x24\x40\x48\x83\xc4\x20\x5f\xc3 (1 found)
0x1400157d2: mov rsi, qword [rsp+0x40] ; add rsp, 0x20 ; pop rdi ; ret ; \x48\x8b\x74\x24\x40\x48\x83\xc4\x20\x5f\xc3 (1 found)
0x140015d3d: mov rsi, qword [rsp+0x40] ; add rsp, 0x20 ; pop rdi ; ret ; \x48\x8b\x74\x24\x40\x48\x83\xc4\x20\x5f\xc3 (1 found)
0x140014a19: mov rsi, qword [rsp+0x40] ; mov rbp, qword [rsp+0x38] ; add rsp, 0x20 ; pop rdi ; ret ; \x48\x8b\x74\x24\x40\x48\x8b\x6c\x24\x38\x48\x83\xc4\x20\x5f\xc3 (1 found)
0x1400049dc: mov rsi, qword [rsp+0x40] ; mov rdi, qword [rsp+0x48] ; add rsp, 0x20 ; pop r14 ; ret ; \x48\x8b\x74\x24\x40\x48\x8b\x7c\x24\x48\x48\x83\xc4\x20\x41\x5e\xc3 (1 found)
0x14000b99a: mov rsi, qword [rsp+0x40] ; mov rdi, qword [rsp+0x48] ; add rsp, 0x20 ; pop r14 ; ret ; \x48\x8b\x74\x24\x40\x48\x8b\x7c\x24\x48\x48\x83\xc4\x20\x41\x5e\xc3 (1 found)
0x140010823: mov rsi, qword [rsp+0x40] ; mov rdi, qword [rsp+0x48] ; add rsp, 0x20 ; pop r14 ; ret ; \x48\x8b\x74\x24\x40\x48\x8b\x7c\x24\x48\x48\x83\xc4\x20\x41\x5e\xc3 (1 found)
0x140012291: mov rsi, qword [rsp+0x40] ; mov rdi, qword [rsp+0x48] ; add rsp, 0x20 ; pop r14 ; ret ; \x48\x8b\x74\x24\x40\x48\x8b\x7c\x24\x48\x48\x83\xc4\x20\x41\x5e\xc3 (1 found)
0x140014bfa: mov rsi, qword [rsp+0x40] ; mov rdi, qword [rsp+0x48] ; add rsp, 0x20 ; pop r14 ; ret ; \x48\x8b\x74\x24\x40\x48\x8b\x7c\x24\x48\x48\x83\xc4\x20\x41\x5e\xc3 (1 found)
0x14001b1ea: mov rsi, qword [rsp+0x40] ; mov rdi, qword [rsp+0x48] ; add rsp, 0x20 ; pop r14 ; ret ; \x48\x8b\x74\x24\x40\x48\x8b\x7c\x24\x48\x48\x83\xc4\x20\x41\x5e\xc3 (1 found)
0x14001aef0: mov rsi, qword [rsp+0x40] ; mov rdi, qword [rsp+0x48] ; add rsp, 0x20 ; pop rbp ; ret ; \x48\x8b\x74\x24\x40\x48\x8b\x7c\x24\x48\x48\x83\xc4\x20\x5d\xc3 (1 found)
0x14001799f: mov rsi, qword [rsp+0x48] ; add rsp, 0x20 ; pop rdi ; ret ; \x40\x48\x8b\x74\x24\x48\x48\x83\xc4\x20\x5f\xc3 (1 found)
0x1400179a0: mov rsi, qword [rsp+0x48] ; add rsp, 0x20 ; pop rdi ; ret ; \x48\x8b\x74\x24\x48\x48\x83\xc4\x20\x5f\xc3 (1 found)
0x140017a9b: mov rsi, qword [rsp+0x48] ; add rsp, 0x20 ; pop rdi ; ret ; \x40\x48\x8b\x74\x24\x48\x48\x83\xc4\x20\x5f\xc3 (1 found)
0x140017a9c: mov rsi, qword [rsp+0x48] ; add rsp, 0x20 ; pop rdi ; ret ; \x48\x8b\x74\x24\x48\x48\x83\xc4\x20\x5f\xc3 (1 found)
0x14001afc0: mov rsi, qword [rsp+0x48] ; add rsp, 0x20 ; pop rdi ; ret ; \x40\x48\x8b\x74\x24\x48\x48\x83\xc4\x20\x5f\xc3 (1 found)
0x14001afc1: mov rsi, qword [rsp+0x48] ; add rsp, 0x20 ; pop rdi ; ret ; \x48\x8b\x74\x24\x48\x48\x83\xc4\x20\x5f\xc3 (1 found)
0x140001f7f: mov rsi, qword [rsp+0x48] ; add rsp, 0x30 ; pop rdi ; ret ; \x40\x48\x8b\x74\x24\x48\x48\x83\xc4\x30\x5f\xc3 (1 found)
0x140001f80: mov rsi, qword [rsp+0x48] ; add rsp, 0x30 ; pop rdi ; ret ; \x48\x8b\x74\x24\x48\x48\x83\xc4\x30\x5f\xc3 (1 found)
0x14000c051: mov rsi, qword [rsp+0x48] ; add rsp, 0x30 ; pop rdi ; ret ; \x40\x48\x8b\x74\x24\x48\x48\x83\xc4\x30\x5f\xc3 (1 found)
0x14000c052: mov rsi, qword [rsp+0x48] ; add rsp, 0x30 ; pop rdi ; ret ; \x48\x8b\x74\x24\x48\x48\x83\xc4\x30\x5f\xc3 (1 found)
0x14000d9be: mov rsi, qword [rsp+0x48] ; add rsp, 0x30 ; pop rdi ; ret ; \x40\x48\x8b\x74\x24\x48\x48\x83\xc4\x30\x5f\xc3 (1 found)
0x14000d9bf: mov rsi, qword [rsp+0x48] ; add rsp, 0x30 ; pop rdi ; ret ; \x48\x8b\x74\x24\x48\x48\x83\xc4\x30\x5f\xc3 (1 found)
0x140011f8f: mov rsi, qword [rsp+0x48] ; mov rbp, qword [rsp+0x40] ; add rsp, 0x20 ; pop rdi ; ret ; \x48\x8b\x74\x24\x48\x48\x8b\x6c\x24\x40\x48\x83\xc4\x20\x5f\xc3 (1 found)
0x140014ab2: mov rsi, qword [rsp+0x48] ; mov rdi, qword [rsp+0x50] ; add rsp, 0x30 ; pop r15 ; ret ; \x40\x48\x8b\x74\x24\x48\x48\x8b\x7c\x24\x50\x48\x83\xc4\x30\x41\x5f\xc3 (1 found)
0x140014ab3: mov rsi, qword [rsp+0x48] ; mov rdi, qword [rsp+0x50] ; add rsp, 0x30 ; pop r15 ; ret ; \x48\x8b\x74\x24\x48\x48\x8b\x7c\x24\x50\x48\x83\xc4\x30\x41\x5f\xc3 (1 found)
0x14000c91f: mov rsi, qword [rsp+0x48] ; mov rdi, qword [rsp+0x50] ; mov r14, qword [rsp+0x58] ; add rsp, 0x30 ; pop r15 ; ret ; \x40\x48\x8b\x74\x24\x48\x48\x8b\x7c\x24\x50\x4c\x8b\x74\x24\x58\x48\x83\xc4\x30\x41\x5f\xc3 (1 found)
0x14000c920: mov rsi, qword [rsp+0x48] ; mov rdi, qword [rsp+0x50] ; mov r14, qword [rsp+0x58] ; add rsp, 0x30 ; pop r15 ; ret ; \x48\x8b\x74\x24\x48\x48\x8b\x7c\x24\x50\x4c\x8b\x74\x24\x58\x48\x83\xc4\x30\x41\x5f\xc3 (1 found)
0x14001a3d2: mov rsi, qword [rsp+0x50] ; add rsp, 0x20 ; pop r15 ; pop r14 ; pop r12 ; ret ; \x48\x48\x8b\x74\x24\x50\x48\x83\xc4\x20\x41\x5f\x41\x5e\x41\x5c\xc3 (1 found)
0x14001a3d3: mov rsi, qword [rsp+0x50] ; add rsp, 0x20 ; pop r15 ; pop r14 ; pop r12 ; ret ; \x48\x8b\x74\x24\x50\x48\x83\xc4\x20\x41\x5f\x41\x5e\x41\x5c\xc3 (1 found)
0x14001a7b9: mov rsi, qword [rsp+0x50] ; add rsp, 0x20 ; pop r15 ; pop r14 ; pop r12 ; ret ; \x48\x48\x8b\x74\x24\x50\x48\x83\xc4\x20\x41\x5f\x41\x5e\x41\x5c\xc3 (1 found)
0x14001a7ba: mov rsi, qword [rsp+0x50] ; add rsp, 0x20 ; pop r15 ; pop r14 ; pop r12 ; ret ; \x48\x8b\x74\x24\x50\x48\x83\xc4\x20\x41\x5f\x41\x5e\x41\x5c\xc3 (1 found)
0x14000b36d: mov rsi, qword [rsp+0x50] ; add rsp, 0x20 ; pop r15 ; pop r14 ; pop rdi ; ret ; \x48\x48\x8b\x74\x24\x50\x48\x83\xc4\x20\x41\x5f\x41\x5e\x5f\xc3 (1 found)
0x14000b36e: mov rsi, qword [rsp+0x50] ; add rsp, 0x20 ; pop r15 ; pop r14 ; pop rdi ; ret ; \x48\x8b\x74\x24\x50\x48\x83\xc4\x20\x41\x5f\x41\x5e\x5f\xc3 (1 found)
0x14000b44d: mov rsi, qword [rsp+0x50] ; add rsp, 0x20 ; pop r15 ; pop r14 ; pop rdi ; ret ; \x40\x48\x8b\x74\x24\x50\x48\x83\xc4\x20\x41\x5f\x41\x5e\x5f\xc3 (1 found)
0x14000b44e: mov rsi, qword [rsp+0x50] ; add rsp, 0x20 ; pop r15 ; pop r14 ; pop rdi ; ret ; \x48\x8b\x74\x24\x50\x48\x83\xc4\x20\x41\x5f\x41\x5e\x5f\xc3 (1 found)
0x14000dcc8: mov rsi, qword [rsp+0x50] ; add rsp, 0x20 ; pop r15 ; pop r14 ; pop rdi ; ret ; \x48\x48\x8b\x74\x24\x50\x48\x83\xc4\x20\x41\x5f\x41\x5e\x5f\xc3 (1 found)
0x14000dcc9: mov rsi, qword [rsp+0x50] ; add rsp, 0x20 ; pop r15 ; pop r14 ; pop rdi ; ret ; \x48\x8b\x74\x24\x50\x48\x83\xc4\x20\x41\x5f\x41\x5e\x5f\xc3 (1 found)
0x14000dde8: mov rsi, qword [rsp+0x50] ; add rsp, 0x20 ; pop r15 ; pop r14 ; pop rdi ; ret ; \x48\x48\x8b\x74\x24\x50\x48\x83\xc4\x20\x41\x5f\x41\x5e\x5f\xc3 (1 found)
0x14000dde9: mov rsi, qword [rsp+0x50] ; add rsp, 0x20 ; pop r15 ; pop r14 ; pop rdi ; ret ; \x48\x8b\x74\x24\x50\x48\x83\xc4\x20\x41\x5f\x41\x5e\x5f\xc3 (1 found)
0x14000f39e: mov rsi, qword [rsp+0x50] ; add rsp, 0x20 ; pop r15 ; pop r14 ; pop rdi ; ret ; \x48\x48\x8b\x74\x24\x50\x48\x83\xc4\x20\x41\x5f\x41\x5e\x5f\xc3 (1 found)
0x14000f39f: mov rsi, qword [rsp+0x50] ; add rsp, 0x20 ; pop r15 ; pop r14 ; pop rdi ; ret ; \x48\x8b\x74\x24\x50\x48\x83\xc4\x20\x41\x5f\x41\x5e\x5f\xc3 (1 found)
0x140017d8e: mov rsi, qword [rsp+0x50] ; add rsp, 0x20 ; pop r15 ; pop r14 ; pop rdi ; ret ; \x48\x48\x8b\x74\x24\x50\x48\x83\xc4\x20\x41\x5f\x41\x5e\x5f\xc3 (1 found)
0x140017d8f: mov rsi, qword [rsp+0x50] ; add rsp, 0x20 ; pop r15 ; pop r14 ; pop rdi ; ret ; \x48\x8b\x74\x24\x50\x48\x83\xc4\x20\x41\x5f\x41\x5e\x5f\xc3 (1 found)
0x14000d5a2: mov rsi, qword [rsp+0x50] ; add rsp, 0x30 ; pop rdi ; ret ; \x48\x48\x8b\x74\x24\x50\x48\x83\xc4\x30\x5f\xc3 (1 found)
0x14000d5a3: mov rsi, qword [rsp+0x50] ; add rsp, 0x30 ; pop rdi ; ret ; \x48\x8b\x74\x24\x50\x48\x83\xc4\x30\x5f\xc3 (1 found)
0x14000e5fe: mov rsi, qword [rsp+0x50] ; add rsp, 0x30 ; pop rdi ; ret ; \x48\x48\x8b\x74\x24\x50\x48\x83\xc4\x30\x5f\xc3 (1 found)
0x14000e5ff: mov rsi, qword [rsp+0x50] ; add rsp, 0x30 ; pop rdi ; ret ; \x48\x8b\x74\x24\x50\x48\x83\xc4\x30\x5f\xc3 (1 found)
0x140015e4c: mov rsi, qword [rsp+0x50] ; add rsp, 0x30 ; pop rdi ; ret ; \x48\x48\x8b\x74\x24\x50\x48\x83\xc4\x30\x5f\xc3 (1 found)
0x140015e4d: mov rsi, qword [rsp+0x50] ; add rsp, 0x30 ; pop rdi ; ret ; \x48\x8b\x74\x24\x50\x48\x83\xc4\x30\x5f\xc3 (1 found)
0x140018005: mov rsi, qword [rsp+0x50] ; add rsp, 0x30 ; pop rdi ; ret ; \x48\x48\x8b\x74\x24\x50\x48\x83\xc4\x30\x5f\xc3 (1 found)
0x140018006: mov rsi, qword [rsp+0x50] ; add rsp, 0x30 ; pop rdi ; ret ; \x48\x8b\x74\x24\x50\x48\x83\xc4\x30\x5f\xc3 (1 found)
0x1400065cf: mov rsi, qword [rsp+0x50] ; mov rdi, qword [rsp+0x58] ; add rsp, 0x30 ; pop r14 ; ret ; \x48\x48\x8b\x74\x24\x50\x48\x8b\x7c\x24\x58\x48\x83\xc4\x30\x41\x5e\xc3 (1 found)
0x1400065d0: mov rsi, qword [rsp+0x50] ; mov rdi, qword [rsp+0x58] ; add rsp, 0x30 ; pop r14 ; ret ; \x48\x8b\x74\x24\x50\x48\x8b\x7c\x24\x58\x48\x83\xc4\x30\x41\x5e\xc3 (1 found)
0x1400067db: mov rsi, qword [rsp+0x50] ; mov rdi, qword [rsp+0x58] ; add rsp, 0x30 ; pop r14 ; ret ; \x48\x48\x8b\x74\x24\x50\x48\x8b\x7c\x24\x58\x48\x83\xc4\x30\x41\x5e\xc3 (1 found)
0x1400067dc: mov rsi, qword [rsp+0x50] ; mov rdi, qword [rsp+0x58] ; add rsp, 0x30 ; pop r14 ; ret ; \x48\x8b\x74\x24\x50\x48\x8b\x7c\x24\x58\x48\x83\xc4\x30\x41\x5e\xc3 (1 found)
0x1400069e7: mov rsi, qword [rsp+0x50] ; mov rdi, qword [rsp+0x58] ; add rsp, 0x30 ; pop r14 ; ret ; \x48\x48\x8b\x74\x24\x50\x48\x8b\x7c\x24\x58\x48\x83\xc4\x30\x41\x5e\xc3 (1 found)
0x1400069e8: mov rsi, qword [rsp+0x50] ; mov rdi, qword [rsp+0x58] ; add rsp, 0x30 ; pop r14 ; ret ; \x48\x8b\x74\x24\x50\x48\x8b\x7c\x24\x58\x48\x83\xc4\x30\x41\x5e\xc3 (1 found)
0x140006bf3: mov rsi, qword [rsp+0x50] ; mov rdi, qword [rsp+0x58] ; add rsp, 0x30 ; pop r14 ; ret ; \x48\x48\x8b\x74\x24\x50\x48\x8b\x7c\x24\x58\x48\x83\xc4\x30\x41\x5e\xc3 (1 found)
0x140006bf4: mov rsi, qword [rsp+0x50] ; mov rdi, qword [rsp+0x58] ; add rsp, 0x30 ; pop r14 ; ret ; \x48\x8b\x74\x24\x50\x48\x8b\x7c\x24\x58\x48\x83\xc4\x30\x41\x5e\xc3 (1 found)
0x140006dff: mov rsi, qword [rsp+0x50] ; mov rdi, qword [rsp+0x58] ; add rsp, 0x30 ; pop r14 ; ret ; \x48\x48\x8b\x74\x24\x50\x48\x8b\x7c\x24\x58\x48\x83\xc4\x30\x41\x5e\xc3 (1 found)
0x140006e00: mov rsi, qword [rsp+0x50] ; mov rdi, qword [rsp+0x58] ; add rsp, 0x30 ; pop r14 ; ret ; \x48\x8b\x74\x24\x50\x48\x8b\x7c\x24\x58\x48\x83\xc4\x30\x41\x5e\xc3 (1 found)
0x14000700b: mov rsi, qword [rsp+0x50] ; mov rdi, qword [rsp+0x58] ; add rsp, 0x30 ; pop r14 ; ret ; \x48\x48\x8b\x74\x24\x50\x48\x8b\x7c\x24\x58\x48\x83\xc4\x30\x41\x5e\xc3 (1 found)
0x14000700c: mov rsi, qword [rsp+0x50] ; mov rdi, qword [rsp+0x58] ; add rsp, 0x30 ; pop r14 ; ret ; \x48\x8b\x74\x24\x50\x48\x8b\x7c\x24\x58\x48\x83\xc4\x30\x41\x5e\xc3 (1 found)
0x140007217: mov rsi, qword [rsp+0x50] ; mov rdi, qword [rsp+0x58] ; add rsp, 0x30 ; pop r14 ; ret ; \x48\x48\x8b\x74\x24\x50\x48\x8b\x7c\x24\x58\x48\x83\xc4\x30\x41\x5e\xc3 (1 found)
0x140007218: mov rsi, qword [rsp+0x50] ; mov rdi, qword [rsp+0x58] ; add rsp, 0x30 ; pop r14 ; ret ; \x48\x8b\x74\x24\x50\x48\x8b\x7c\x24\x58\x48\x83\xc4\x30\x41\x5e\xc3 (1 found)
0x140007423: mov rsi, qword [rsp+0x50] ; mov rdi, qword [rsp+0x58] ; add rsp, 0x30 ; pop r14 ; ret ; \x48\x48\x8b\x74\x24\x50\x48\x8b\x7c\x24\x58\x48\x83\xc4\x30\x41\x5e\xc3 (1 found)
0x140007424: mov rsi, qword [rsp+0x50] ; mov rdi, qword [rsp+0x58] ; add rsp, 0x30 ; pop r14 ; ret ; \x48\x8b\x74\x24\x50\x48\x8b\x7c\x24\x58\x48\x83\xc4\x30\x41\x5e\xc3 (1 found)
0x14000762f: mov rsi, qword [rsp+0x50] ; mov rdi, qword [rsp+0x58] ; add rsp, 0x30 ; pop r14 ; ret ; \x48\x48\x8b\x74\x24\x50\x48\x8b\x7c\x24\x58\x48\x83\xc4\x30\x41\x5e\xc3 (1 found)
0x140007630: mov rsi, qword [rsp+0x50] ; mov rdi, qword [rsp+0x58] ; add rsp, 0x30 ; pop r14 ; ret ; \x48\x8b\x74\x24\x50\x48\x8b\x7c\x24\x58\x48\x83\xc4\x30\x41\x5e\xc3 (1 found)
0x140008913: mov rsi, qword [rsp+0x50] ; mov rdi, qword [rsp+0x58] ; add rsp, 0x30 ; pop r14 ; ret ; \x48\x48\x8b\x74\x24\x50\x48\x8b\x7c\x24\x58\x48\x83\xc4\x30\x41\x5e\xc3 (1 found)
0x140008914: mov rsi, qword [rsp+0x50] ; mov rdi, qword [rsp+0x58] ; add rsp, 0x30 ; pop r14 ; ret ; \x48\x8b\x74\x24\x50\x48\x8b\x7c\x24\x58\x48\x83\xc4\x30\x41\x5e\xc3 (1 found)
0x140008be5: mov rsi, qword [rsp+0x50] ; mov rdi, qword [rsp+0x58] ; add rsp, 0x30 ; pop r14 ; ret ; \x48\x48\x8b\x74\x24\x50\x48\x8b\x7c\x24\x58\x48\x83\xc4\x30\x41\x5e\xc3 (1 found)
0x140008be6: mov rsi, qword [rsp+0x50] ; mov rdi, qword [rsp+0x58] ; add rsp, 0x30 ; pop r14 ; ret ; \x48\x8b\x74\x24\x50\x48\x8b\x7c\x24\x58\x48\x83\xc4\x30\x41\x5e\xc3 (1 found)
0x140008ebc: mov rsi, qword [rsp+0x50] ; mov rdi, qword [rsp+0x58] ; add rsp, 0x30 ; pop r14 ; ret ; \x48\x48\x8b\x74\x24\x50\x48\x8b\x7c\x24\x58\x48\x83\xc4\x30\x41\x5e\xc3 (1 found)
0x140008ebd: mov rsi, qword [rsp+0x50] ; mov rdi, qword [rsp+0x58] ; add rsp, 0x30 ; pop r14 ; ret ; \x48\x8b\x74\x24\x50\x48\x8b\x7c\x24\x58\x48\x83\xc4\x30\x41\x5e\xc3 (1 found)
0x14000be54: mov rsi, qword [rsp+0x50] ; mov rdi, qword [rsp+0x58] ; add rsp, 0x30 ; pop r14 ; ret ; \x48\x48\x8b\x74\x24\x50\x48\x8b\x7c\x24\x58\x48\x83\xc4\x30\x41\x5e\xc3 (1 found)
0x14000be55: mov rsi, qword [rsp+0x50] ; mov rdi, qword [rsp+0x58] ; add rsp, 0x30 ; pop r14 ; ret ; \x48\x8b\x74\x24\x50\x48\x8b\x7c\x24\x58\x48\x83\xc4\x30\x41\x5e\xc3 (1 found)
0x14000fc1a: mov rsi, qword [rsp+0x50] ; mov rdi, qword [rsp+0x58] ; add rsp, 0x30 ; pop r14 ; ret ; \x48\x48\x8b\x74\x24\x50\x48\x8b\x7c\x24\x58\x48\x83\xc4\x30\x41\x5e\xc3 (1 found)
0x14000fc1b: mov rsi, qword [rsp+0x50] ; mov rdi, qword [rsp+0x58] ; add rsp, 0x30 ; pop r14 ; ret ; \x48\x8b\x74\x24\x50\x48\x8b\x7c\x24\x58\x48\x83\xc4\x30\x41\x5e\xc3 (1 found)
0x1400148ba: mov rsi, qword [rsp+0x50] ; mov rdi, qword [rsp+0x58] ; add rsp, 0x30 ; pop r14 ; ret ; \x48\x48\x8b\x74\x24\x50\x48\x8b\x7c\x24\x58\x48\x83\xc4\x30\x41\x5e\xc3 (1 found)
0x1400148bb: mov rsi, qword [rsp+0x50] ; mov rdi, qword [rsp+0x58] ; add rsp, 0x30 ; pop r14 ; ret ; \x48\x8b\x74\x24\x50\x48\x8b\x7c\x24\x58\x48\x83\xc4\x30\x41\x5e\xc3 (1 found)
0x14000d4c9: mov rsi, qword [rsp+0x60] ; add rsp, 0x30 ; pop r15 ; pop r14 ; pop rdi ; ret ; \x48\x8b\x74\x24\x60\x48\x83\xc4\x30\x41\x5f\x41\x5e\x5f\xc3 (1 found)
0x14001a1ab: mov rsi, qword [rsp+0x60] ; add rsp, 0x40 ; pop rdi ; ret ; \x48\x8b\x74\x24\x60\x48\x83\xc4\x40\x5f\xc3 (1 found)
0x140018698: mov rsi, qword [rsp+0x68] ; add rsp, 0x30 ; pop r15 ; pop r14 ; pop rdi ; ret ; \x48\x8b\x74\x24\x68\x48\x83\xc4\x30\x41\x5f\x41\x5e\x5f\xc3 (1 found)
0x140003cb7: mov rsi, qword [rsp+0x68] ; add rsp, 0x40 ; pop rdi ; ret ; \x48\x8b\x74\x24\x68\x48\x83\xc4\x40\x5f\xc3 (1 found)
0x14000f8e0: mov rsi, qword [rsp+0x68] ; add rsp, 0x50 ; pop rdi ; ret ; \x48\x8b\x74\x24\x68\x48\x83\xc4\x50\x5f\xc3 (1 found)
0x14000f24a: mov rsi, qword [rsp+0x70] ; add rsp, 0x50 ; pop rdi ; ret ; \x48\x8b\x74\x24\x70\x48\x83\xc4\x50\x5f\xc3 (1 found)
0x140010c1d: mov rsi, qword [rsp+0x70] ; add rsp, 0x50 ; pop rdi ; ret ; \x48\x8b\x74\x24\x70\x48\x83\xc4\x50\x5f\xc3 (1 found)
0x140010d99: mov rsi, qword [rsp+0x70] ; add rsp, 0x50 ; pop rdi ; ret ; \x48\x8b\x74\x24\x70\x48\x83\xc4\x50\x5f\xc3 (1 found)
0x140017e3c: mov rsi, qword [rsp+0x70] ; add rsp, 0x50 ; pop rdi ; ret ; \x48\x8b\x74\x24\x70\x48\x83\xc4\x50\x5f\xc3 (1 found)
0x140019331: mov rsi, qword [rsp+0x70] ; add rsp, 0x50 ; pop rdi ; ret ; \x48\x8b\x74\x24\x70\x48\x83\xc4\x50\x5f\xc3 (1 found)
0x14000ef8b: mov rsi, qword [rsp+0x70] ; mov rdi, qword [rsp+0x78] ; add rsp, 0x50 ; pop r14 ; ret ; \x48\x8b\x74\x24\x70\x48\x8b\x7c\x24\x78\x48\x83\xc4\x50\x41\x5e\xc3 (1 found)
0x14001a4a8: mov rsi, qword [rsp+0x70] ; mov rdi, qword [rsp+0x78] ; add rsp, 0x50 ; pop r14 ; ret ; \x48\x8b\x74\x24\x70\x48\x8b\x7c\x24\x78\x48\x83\xc4\x50\x41\x5e\xc3 (1 found)
0x140005574: mov rsi, qword [rsp+0x78] ; add rsp, 0x50 ; pop rdi ; ret ; \x48\x8b\x74\x24\x78\x48\x83\xc4\x50\x5f\xc3 (1 found)
0x140012335: mov rsi, qword [rsp+0x78] ; add rsp, 0x50 ; pop rdi ; ret ; \x48\x8b\x74\x24\x78\x48\x83\xc4\x50\x5f\xc3 (1 found)
0x14001b825: mov rsi, rdx ; mov rcx, r8 ; rep movsb ; pop rsi ; pop rdi ; ret ; \x48\x8b\xf2\x49\x8b\xc8\xf3\xa4\x5e\x5f\xc3 (1 found)
0x14000a5db: mov rsp, r11 ; pop r12 ; pop rdi ; pop rsi ; ret ; \x49\x8b\xe3\x41\x5c\x5f\x5e\xc3 (1 found)
0x14000a843: mov rsp, r11 ; pop r12 ; pop rdi ; pop rsi ; ret ; \x49\x8b\xe3\x41\x5c\x5f\x5e\xc3 (1 found)
0x14000aaab: mov rsp, r11 ; pop r12 ; pop rdi ; pop rsi ; ret ; \x49\x8b\xe3\x41\x5c\x5f\x5e\xc3 (1 found)
0x14000e4e7: mov rsp, r11 ; pop r14 ; pop rdi ; pop rbp ; ret ; \x49\x8b\xe3\x41\x5e\x5f\x5d\xc3 (1 found)
0x140013f1f: mov rsp, r11 ; pop r14 ; pop rdi ; pop rbp ; ret ; \x49\x8b\xe3\x41\x5e\x5f\x5d\xc3 (1 found)
0x1400116ea: mov rsp, r11 ; pop r14 ; pop rdi ; pop rsi ; ret ; \x49\x8b\xe3\x41\x5e\x5f\x5e\xc3 (1 found)
0x140011805: mov rsp, r11 ; pop r14 ; pop rdi ; pop rsi ; ret ; \x49\x8b\xe3\x41\x5e\x5f\x5e\xc3 (1 found)
0x140004c1b: mov rsp, r11 ; pop r14 ; ret ; \x49\x8b\xe3\x41\x5e\xc3 (1 found)
0x140010723: mov rsp, r11 ; pop r14 ; ret ; \x49\x8b\xe3\x41\x5e\xc3 (1 found)
0x14000b878: mov rsp, r11 ; pop r15 ; pop r14 ; pop rbp ; ret ; \x49\x8b\xe3\x41\x5f\x41\x5e\x5d\xc3 (1 found)
0x14001324f: mov rsp, r11 ; pop rbp ; ret ; \x49\x8b\xe3\x5d\xc3 (1 found)
0x140013cb2: mov rsp, r11 ; pop rbp ; ret ; \x49\x8b\xe3\x5d\xc3 (1 found)
0x1400191dd: mov rsp, r11 ; pop rdi ; ret ; \x49\x8b\xe3\x5f\xc3 (1 found)
0x14001b8ae: mov word [rax+0x04], r8w ; mov byte [rax+0x06], r9L ; ret ; \x66\x44\x89\x40\x04\x44\x88\x48\x06\xc3 (1 found)
0x14001b929: mov word [rax+0x04], r8w ; ret ; \x66\x44\x89\x40\x04\xc3 (1 found)
0x14001b88f: mov word [rax+0x08], cx ; mov byte [rax+0x0A], r9L ; ret ; \x66\x89\x48\x08\x44\x88\x48\x0a\xc3 (1 found)
0x14001b900: mov word [rax+0x08], cx ; ret ; \x66\x89\x48\x08\xc3 (1 found)
0x14001b876: mov word [rax+0x0C], r9w ; mov byte [rax+0x0E], r10L ; ret ; \x66\x44\x89\x48\x0c\x44\x88\x50\x0e\xc3 (1 found)
0x14001b8c9: mov word [rax+0x0C], r9w ; ret ; \x66\x44\x89\x48\x0c\xc3 (1 found)
0x14001b8d7: mov word [rax], cx ; mov byte [rax+0x02], r8L ; ret ; \x66\x89\x08\x44\x88\x40\x02\xc3 (1 found)
0x14001b89b: mov word [rax], cx ; ret ; \x66\x89\x08\xc3 (1 found)
0x140017706: mov word [rbx], dx ; add rsp, 0x40 ; pop rbx ; ret ; \x66\x89\x13\x48\x83\xc4\x40\x5b\xc3 (1 found)
0x14001b4cb: mov word [rcx-0x02], r11w ; ret ; \x66\x44\x89\x59\xfe\xc3 (1 found)
0x14001b514: mov word [rcx-0x02], r11w ; ret ; \x66\x44\x89\x59\xfe\xc3 (1 found)
0x14001b4b9: mov word [rcx-0x03], r11w ; mov byte [rcx-0x01], r11L ; ret ; \x66\x44\x89\x59\xfd\x44\x88\x59\xff\xc3 (1 found)
0x14001b4fd: mov word [rcx-0x03], r11w ; mov byte [rcx-0x01], r11L ; ret ; \x66\x44\x89\x59\xfd\x44\x88\x59\xff\xc3 (1 found)
0x14001b4a5: mov word [rdx+0x00026360], es ; add r9, r10 ; jmp r9 ; \x8c\x82\x60\x63\x02\x00\x4d\x03\xca\x41\xff\xe1 (1 found)
0x14001b852: mov word [rdx+0x00026410], es ; add r9, r10 ; jmp r9 ; \x8c\x82\x10\x64\x02\x00\x4d\x03\xca\x41\xff\xe1 (1 found)
0x1400024ab: mov word [rdx], es ; add byte [rax], al ; ret ; \x8c\x02\x00\x00\xc3 (1 found)
0x14001ab59: movaps xmm0, xmm6 ; movaps xmm6,  [rsp+0x50] ; add rsp, 0x68 ; ret ; \x0f\x28\xc6\x0f\x28\x74\x24\x50\x48\x83\xc4\x68\xc3 (1 found)
0x14001ab5c: movaps xmm6,  [rsp+0x50] ; add rsp, 0x68 ; ret ; \x0f\x28\x74\x24\x50\x48\x83\xc4\x68\xc3 (1 found)
0x1400198db: movd mm0, mm0 ; nop ; movdqa xmm6,  [rsp+0x20] ; add rsp, 0x58 ; ret ; \x0f\x6e\xc0\x66\x90\x66\x0f\x6f\x74\x24\x20\x48\x83\xc4\x58\xc3 (1 found)
0x140019767: movdqa xmm6,  [rsp+0x20] ; add rsp, 0x58 ; ret ; \x66\x0f\x6f\x74\x24\x20\x48\x83\xc4\x58\xc3 (1 found)
0x14001983c: movdqa xmm6,  [rsp+0x20] ; add rsp, 0x58 ; ret ; \x66\x0f\x6f\x74\x24\x20\x48\x83\xc4\x58\xc3 (1 found)
0x1400198e0: movdqa xmm6,  [rsp+0x20] ; add rsp, 0x58 ; ret ; \x66\x0f\x6f\x74\x24\x20\x48\x83\xc4\x58\xc3 (1 found)
0x14001b7f3: movdqu  [rax], xmm0 ; ret ; \xf3\x0f\x7f\x00\xc3 (1 found)
0x14001bdb2: movdqu  [rax], xmm0 ; ret ; \xf3\x0f\x7f\x00\xc3 (1 found)
0x14001b7ec: movdqu  [rcx+r8-0x10], xmm0 ; movdqu  [rax], xmm0 ; ret ; \xf3\x42\x0f\x7f\x44\x01\xf0\xf3\x0f\x7f\x00\xc3 (1 found)
0x14001b52e: movdqu  [rcx+r8-0x10], xmm0 ; ret ; \xf3\x42\x0f\x7f\x44\x01\xf0\xc3 (1 found)
0x14001b965: movdqu  [rcx+r8-0x10], xmm2 ; ret ; \xf3\x42\x0f\x7f\x54\x01\xf0\xc3 (1 found)
0x14001bdab: movdqu  [rcx+r8-0x10], xmm5 ; movdqu  [rax], xmm0 ; ret ; \xf3\x42\x0f\x7f\x6c\x01\xf0\xf3\x0f\x7f\x00\xc3 (1 found)
0x14001b7e5: movdqu  [rcx+r9-0x20], xmm0 ; movdqu  [rcx+r8-0x10], xmm0 ; movdqu  [rax], xmm0 ; ret ; \xf3\x42\x0f\x7f\x44\x09\xe0\xf3\x42\x0f\x7f\x44\x01\xf0\xf3\x0f\x7f\x00\xc3 (1 found)
0x14001bda4: movdqu  [rcx+r9-0x20], xmm1 ; movdqu  [rcx+r8-0x10], xmm5 ; movdqu  [rax], xmm0 ; ret ; \xf3\x42\x0f\x7f\x4c\x09\xe0\xf3\x42\x0f\x7f\x6c\x01\xf0\xf3\x0f\x7f\x00\xc3 (1 found)
0x14001b7de: movdqu  [rcx+r9-0x30], xmm0 ; movdqu  [rcx+r9-0x20], xmm0 ; movdqu  [rcx+r8-0x10], xmm0 ; movdqu  [rax], xmm0 ; ret ; \xf3\x42\x0f\x7f\x44\x09\xd0\xf3\x42\x0f\x7f\x44\x09\xe0\xf3\x42\x0f\x7f\x44\x01\xf0\xf3\x0f\x7f\x00\xc3 (1 found)
0x14001bd96: movdqu  [rcx+r9-0x30], xmm1 ; movdqu xmm1,  [rdx+r9-0x20] ; movdqu  [rcx+r9-0x20], xmm1 ; movdqu  [rcx+r8-0x10], xmm5 ; movdqu  [rax], xmm0 ; ret ; \xf3\x42\x0f\x7f\x4c\x09\xd0\xf3\x42\x0f\x6f\x4c\x0a\xe0\xf3\x42\x0f\x7f\x4c\x09\xe0\xf3\x42\x0f\x7f\x6c\x01\xf0\xf3\x0f\x7f\x00\xc3 (1 found)
0x14001b7d7: movdqu  [rcx+r9-0x40], xmm0 ; movdqu  [rcx+r9-0x30], xmm0 ; movdqu  [rcx+r9-0x20], xmm0 ; movdqu  [rcx+r8-0x10], xmm0 ; movdqu  [rax], xmm0 ; ret ; \xf3\x42\x0f\x7f\x44\x09\xc0\xf3\x42\x0f\x7f\x44\x09\xd0\xf3\x42\x0f\x7f\x44\x09\xe0\xf3\x42\x0f\x7f\x44\x01\xf0\xf3\x0f\x7f\x00\xc3 (1 found)
0x14001b52a: movdqu  [rcx], xmm0 ; movdqu  [rcx+r8-0x10], xmm0 ; ret ; \xf3\x0f\x7f\x01\xf3\x42\x0f\x7f\x44\x01\xf0\xc3 (1 found)
0x14001b961: movdqu  [rcx], xmm1 ; movdqu  [rcx+r8-0x10], xmm2 ; ret ; \xf3\x0f\x7f\x09\xf3\x42\x0f\x7f\x54\x01\xf0\xc3 (1 found)
0x14001bd9d: movdqu xmm1,  [rdx+r9-0x20] ; movdqu  [rcx+r9-0x20], xmm1 ; movdqu  [rcx+r8-0x10], xmm5 ; movdqu  [rax], xmm0 ; ret ; \xf3\x42\x0f\x6f\x4c\x0a\xe0\xf3\x42\x0f\x7f\x4c\x09\xe0\xf3\x42\x0f\x7f\x6c\x01\xf0\xf3\x0f\x7f\x00\xc3 (1 found)
0x14001b956: movdqu xmm1,  [rdx] ; movdqu xmm2,  [rdx+r8-0x10] ; movdqu  [rcx], xmm1 ; movdqu  [rcx+r8-0x10], xmm2 ; ret ; \xf3\x0f\x6f\x0a\xf3\x42\x0f\x6f\x54\x02\xf0\xf3\x0f\x7f\x09\xf3\x42\x0f\x7f\x54\x01\xf0\xc3 (1 found)
0x14001b95a: movdqu xmm2,  [rdx+r8-0x10] ; movdqu  [rcx], xmm1 ; movdqu  [rcx+r8-0x10], xmm2 ; ret ; \xf3\x42\x0f\x6f\x54\x02\xf0\xf3\x0f\x7f\x09\xf3\x42\x0f\x7f\x54\x01\xf0\xc3 (1 found)
0x1400198da: movq mm0, mm0 ; nop ; movdqa xmm6,  [rsp+0x20] ; add rsp, 0x58 ; ret ; \x48\x0f\x6e\xc0\x66\x90\x66\x0f\x6f\x74\x24\x20\x48\x83\xc4\x58\xc3 (1 found)
0x14001bd9e: movq mm1, qword [rdx+r9-0x20] ; movdqu  [rcx+r9-0x20], xmm1 ; movdqu  [rcx+r8-0x10], xmm5 ; movdqu  [rax], xmm0 ; ret ; \x42\x0f\x6f\x4c\x0a\xe0\xf3\x42\x0f\x7f\x4c\x09\xe0\xf3\x42\x0f\x7f\x6c\x01\xf0\xf3\x0f\x7f\x00\xc3 (1 found)
0x14001bd9f: movq mm1, qword [rdx+rcx-0x20] ; movdqu  [rcx+r9-0x20], xmm1 ; movdqu  [rcx+r8-0x10], xmm5 ; movdqu  [rax], xmm0 ; ret ; \x0f\x6f\x4c\x0a\xe0\xf3\x42\x0f\x7f\x4c\x09\xe0\xf3\x42\x0f\x7f\x6c\x01\xf0\xf3\x0f\x7f\x00\xc3 (1 found)
0x14001b957: movq mm1, qword [rdx] ; movdqu xmm2,  [rdx+r8-0x10] ; movdqu  [rcx], xmm1 ; movdqu  [rcx+r8-0x10], xmm2 ; ret ; \x0f\x6f\x0a\xf3\x42\x0f\x6f\x54\x02\xf0\xf3\x0f\x7f\x09\xf3\x42\x0f\x7f\x54\x01\xf0\xc3 (1 found)
0x14001b95b: movq mm2, qword [rdx+r8-0x10] ; movdqu  [rcx], xmm1 ; movdqu  [rcx+r8-0x10], xmm2 ; ret ; \x42\x0f\x6f\x54\x02\xf0\xf3\x0f\x7f\x09\xf3\x42\x0f\x7f\x54\x01\xf0\xc3 (1 found)
0x14001b95c: movq mm2, qword [rdx+rax-0x10] ; movdqu  [rcx], xmm1 ; movdqu  [rcx+r8-0x10], xmm2 ; ret ; \x0f\x6f\x54\x02\xf0\xf3\x0f\x7f\x09\xf3\x42\x0f\x7f\x54\x01\xf0\xc3 (1 found)
0x140019768: movq mm6, qword [rsp+0x20] ; add rsp, 0x58 ; ret ; \x0f\x6f\x74\x24\x20\x48\x83\xc4\x58\xc3 (1 found)
0x14001983d: movq mm6, qword [rsp+0x20] ; add rsp, 0x58 ; ret ; \x0f\x6f\x74\x24\x20\x48\x83\xc4\x58\xc3 (1 found)
0x1400198e1: movq mm6, qword [rsp+0x20] ; add rsp, 0x58 ; ret ; \x0f\x6f\x74\x24\x20\x48\x83\xc4\x58\xc3 (1 found)
0x14001b7f4: movq qword [rax], mm0 ; ret ; \x0f\x7f\x00\xc3 (1 found)
0x14001bdb3: movq qword [rax], mm0 ; ret ; \x0f\x7f\x00\xc3 (1 found)
0x14001b7ed: movq qword [rcx+r8-0x10], mm0 ; movdqu  [rax], xmm0 ; ret ; \x42\x0f\x7f\x44\x01\xf0\xf3\x0f\x7f\x00\xc3 (1 found)
0x14001b52f: movq qword [rcx+r8-0x10], mm0 ; ret ; \x42\x0f\x7f\x44\x01\xf0\xc3 (1 found)
0x14001b966: movq qword [rcx+r8-0x10], mm2 ; ret ; \x42\x0f\x7f\x54\x01\xf0\xc3 (1 found)
0x14001bdac: movq qword [rcx+r8-0x10], mm5 ; movdqu  [rax], xmm0 ; ret ; \x42\x0f\x7f\x6c\x01\xf0\xf3\x0f\x7f\x00\xc3 (1 found)
0x14001b7e6: movq qword [rcx+r9-0x20], mm0 ; movdqu  [rcx+r8-0x10], xmm0 ; movdqu  [rax], xmm0 ; ret ; \x42\x0f\x7f\x44\x09\xe0\xf3\x42\x0f\x7f\x44\x01\xf0\xf3\x0f\x7f\x00\xc3 (1 found)
0x14001bda5: movq qword [rcx+r9-0x20], mm1 ; movdqu  [rcx+r8-0x10], xmm5 ; movdqu  [rax], xmm0 ; ret ; \x42\x0f\x7f\x4c\x09\xe0\xf3\x42\x0f\x7f\x6c\x01\xf0\xf3\x0f\x7f\x00\xc3 (1 found)
0x14001b7df: movq qword [rcx+r9-0x30], mm0 ; movdqu  [rcx+r9-0x20], xmm0 ; movdqu  [rcx+r8-0x10], xmm0 ; movdqu  [rax], xmm0 ; ret ; \x42\x0f\x7f\x44\x09\xd0\xf3\x42\x0f\x7f\x44\x09\xe0\xf3\x42\x0f\x7f\x44\x01\xf0\xf3\x0f\x7f\x00\xc3 (1 found)
0x14001bd97: movq qword [rcx+r9-0x30], mm1 ; movdqu xmm1,  [rdx+r9-0x20] ; movdqu  [rcx+r9-0x20], xmm1 ; movdqu  [rcx+r8-0x10], xmm5 ; movdqu  [rax], xmm0 ; ret ; \x42\x0f\x7f\x4c\x09\xd0\xf3\x42\x0f\x6f\x4c\x0a\xe0\xf3\x42\x0f\x7f\x4c\x09\xe0\xf3\x42\x0f\x7f\x6c\x01\xf0\xf3\x0f\x7f\x00\xc3 (1 found)
0x14001b7d8: movq qword [rcx+r9-0x40], mm0 ; movdqu  [rcx+r9-0x30], xmm0 ; movdqu  [rcx+r9-0x20], xmm0 ; movdqu  [rcx+r8-0x10], xmm0 ; movdqu  [rax], xmm0 ; ret ; \x42\x0f\x7f\x44\x09\xc0\xf3\x42\x0f\x7f\x44\x09\xd0\xf3\x42\x0f\x7f\x44\x09\xe0\xf3\x42\x0f\x7f\x44\x01\xf0\xf3\x0f\x7f\x00\xc3 (1 found)
0x14001b7ee: movq qword [rcx+rax-0x10], mm0 ; movdqu  [rax], xmm0 ; ret ; \x0f\x7f\x44\x01\xf0\xf3\x0f\x7f\x00\xc3 (1 found)
0x14001b530: movq qword [rcx+rax-0x10], mm0 ; ret ; \x0f\x7f\x44\x01\xf0\xc3 (1 found)
0x14001b967: movq qword [rcx+rax-0x10], mm2 ; ret ; \x0f\x7f\x54\x01\xf0\xc3 (1 found)
0x14001bdad: movq qword [rcx+rax-0x10], mm5 ; movdqu  [rax], xmm0 ; ret ; \x0f\x7f\x6c\x01\xf0\xf3\x0f\x7f\x00\xc3 (1 found)
0x14001b7e7: movq qword [rcx+rcx-0x20], mm0 ; movdqu  [rcx+r8-0x10], xmm0 ; movdqu  [rax], xmm0 ; ret ; \x0f\x7f\x44\x09\xe0\xf3\x42\x0f\x7f\x44\x01\xf0\xf3\x0f\x7f\x00\xc3 (1 found)
0x14001bda6: movq qword [rcx+rcx-0x20], mm1 ; movdqu  [rcx+r8-0x10], xmm5 ; movdqu  [rax], xmm0 ; ret ; \x0f\x7f\x4c\x09\xe0\xf3\x42\x0f\x7f\x6c\x01\xf0\xf3\x0f\x7f\x00\xc3 (1 found)
0x14001b7e0: movq qword [rcx+rcx-0x30], mm0 ; movdqu  [rcx+r9-0x20], xmm0 ; movdqu  [rcx+r8-0x10], xmm0 ; movdqu  [rax], xmm0 ; ret ; \x0f\x7f\x44\x09\xd0\xf3\x42\x0f\x7f\x44\x09\xe0\xf3\x42\x0f\x7f\x44\x01\xf0\xf3\x0f\x7f\x00\xc3 (1 found)
0x14001bd98: movq qword [rcx+rcx-0x30], mm1 ; movdqu xmm1,  [rdx+r9-0x20] ; movdqu  [rcx+r9-0x20], xmm1 ; movdqu  [rcx+r8-0x10], xmm5 ; movdqu  [rax], xmm0 ; ret ; \x0f\x7f\x4c\x09\xd0\xf3\x42\x0f\x6f\x4c\x0a\xe0\xf3\x42\x0f\x7f\x4c\x09\xe0\xf3\x42\x0f\x7f\x6c\x01\xf0\xf3\x0f\x7f\x00\xc3 (1 found)
0x14001b7d9: movq qword [rcx+rcx-0x40], mm0 ; movdqu  [rcx+r9-0x30], xmm0 ; movdqu  [rcx+r9-0x20], xmm0 ; movdqu  [rcx+r8-0x10], xmm0 ; movdqu  [rax], xmm0 ; ret ; \x0f\x7f\x44\x09\xc0\xf3\x42\x0f\x7f\x44\x09\xd0\xf3\x42\x0f\x7f\x44\x09\xe0\xf3\x42\x0f\x7f\x44\x01\xf0\xf3\x0f\x7f\x00\xc3 (1 found)
0x14001b52b: movq qword [rcx], mm0 ; movdqu  [rcx+r8-0x10], xmm0 ; ret ; \x0f\x7f\x01\xf3\x42\x0f\x7f\x44\x01\xf0\xc3 (1 found)
0x14001b962: movq qword [rcx], mm1 ; movdqu  [rcx+r8-0x10], xmm2 ; ret ; \x0f\x7f\x09\xf3\x42\x0f\x7f\x54\x01\xf0\xc3 (1 found)
0x1400198d9: movq xmm0, xmm0 ; nop ; movdqa xmm6,  [rsp+0x20] ; add rsp, 0x58 ; ret ; \x66\x48\x0f\x6e\xc0\x66\x90\x66\x0f\x6f\x74\x24\x20\x48\x83\xc4\x58\xc3 (1 found)
0x14000117c: movsb ; add byte [rax], al ; mov rsi, qword [rsp+0x38] ; add rsp, 0x40 ; pop rbx ; ret ; \xa4\x00\x00\x48\x8b\x74\x24\x38\x48\x83\xc4\x40\x5b\xc3 (1 found)
0x140010ef8: movsb ; mov  [0xFF00F82483480001], eax ; ret ; \xa4\xa3\x01\x00\x48\x83\x24\xf8\x00\xff\xc3 (1 found)
0x14001b82c: movsb ; pop rsi ; pop rdi ; ret ; \xa4\x5e\x5f\xc3 (1 found)
0x140016ca9: movsd ; adc byte [0x0000000124EA6CB0], al ; add byte [rax], al ; add byte [rbp+0x33], al ; fild  [rbp-0x75] ; retn 0x8545 ; \xa5\x10\x05\x00\x00\xe9\xe4\x00\x00\x00\x45\x33\xdb\x45\x8b\xc2\x45\x85 (1 found)
0x14000d94f: movsd ; fild  [rcx] ; add bl, al ; lea rax, qword [0x000000014002B508] ; ret ; \xa5\xdb\x01\x00\xc3\x48\x8d\x05\xad\xdb\x01\x00\xc3 (1 found)
0x14000fc57: movsd ; mov  [0x01C98348C0330001], eax ; cmp qword [0x000000014002B7A8], rcx ; sete al ; ret ; \xa5\xa3\x01\x00\x33\xc0\x48\x83\xc9\x01\x48\x39\x0d\x40\xbb\x01\x00\x0f\x94\xc0\xc3 (1 found)
0x14001aa2a: movsd xmm0, qword [rsp+0x08] ; ret ; \xf2\x0f\x10\x44\x24\x08\xc3 (1 found)
0x14001a825: movsd xmm0, qword [rsp+0x40] ; add rsp, 0x50 ; pop rbx ; ret ; \xf2\x0f\x10\x44\x24\x40\x48\x83\xc4\x50\x5b\xc3 (1 found)
0x140003d0f: movsxd eax,  [rbx+0x1C] ; mov qword [rsp+0x40], rcx ; mov eax,  [rax+rcx+0x04] ; add rsp, 0x20 ; pop rbx ; ret ; \x63\x43\x1c\x48\x89\x4c\x24\x40\x8b\x44\x08\x04\x48\x83\xc4\x20\x5b\xc3 (1 found)
0x1400159e0: movsxd eax,  [rcx] ; add byte [rax-0x77], cl ; or eax, 0x000163E6 ; mov qword [0x000000014002BDD8], rcx ; mov qword [0x000000014002BDE0], rcx ; ret ; \x63\x01\x00\x48\x89\x0d\xe6\x63\x01\x00\x48\x89\x0d\xe7\x63\x01\x00\x48\x89\x0d\xe8\x63\x01\x00\xc3 (1 found)
0x1400159e7: movsxd eax,  [rcx] ; add byte [rax-0x77], cl ; or eax, 0x000163E7 ; mov qword [0x000000014002BDE0], rcx ; ret ; \x63\x01\x00\x48\x89\x0d\xe7\x63\x01\x00\x48\x89\x0d\xe8\x63\x01\x00\xc3 (1 found)
0x1400159ee: movsxd eax,  [rcx] ; add byte [rax-0x77], cl ; or eax, 0x000163E8 ; ret ; \x63\x01\x00\x48\x89\x0d\xe8\x63\x01\x00\xc3 (1 found)
0x1400030ed: movsxd eax,  [rdx+rcx] ; add r8, r9 ; add rax, r8 ; ret ; \x63\x04\x0a\x4d\x03\xc1\x49\x03\xc0\xc3 (1 found)
0x140002d7f: movsxd eax, ecx ; lea rax, qword [r8+rax*2] ; ret ; \x63\xc1\x49\x8d\x04\x40\xc3 (1 found)
0x140014b76: movsxd ecx,  [rax-0x75] ; ret ; \x63\x48\x8b\xc3 (1 found)
0x14000ff54: movsxd ecx,  [rax] ; add byte [rax-0x7D], cl ; and eax,  [rax] ; add rsp, 0x20 ; pop rbx ; ret ; \x63\x08\x00\x48\x83\x23\x00\x48\x83\xc4\x20\x5b\xc3 (1 found)
0x140002d79: movsxd ecx, eax ; adc eax, 0x6348EF75 ; ror  [rcx-0x73], 0x04 ; ret ; \x63\xc8\x15\x75\xef\x48\x63\xc1\x49\x8d\x04\x40\xc3 (1 found)
0x14000b876: movsxd edi,  [rax] ; mov rsp, r11 ; pop r15 ; pop r14 ; pop rbp ; ret ; \x63\x38\x49\x8b\xe3\x41\x5f\x41\x5e\x5d\xc3 (1 found)
0x1400030e5: movsxd edx,  [rdx+0x08] ; mov rcx, qword [r9+rcx] ; movsxd r8, qword [rdx+rcx] ; add r8, r9 ; add rax, r8 ; ret ; \x63\x52\x08\x49\x8b\x0c\x09\x4c\x63\x04\x0a\x4d\x03\xc1\x49\x03\xc0\xc3 (1 found)
0x140003d25: movsxd edx,  [rdx+0x1C] ; mov rax, qword [rcx] ; mov  [rdx+rax], r8d ; ret ; \x63\x52\x1c\x48\x8b\x01\x44\x89\x04\x02\xc3 (1 found)
0x1400030ec: movsxd r8, qword [rdx+rcx] ; add r8, r9 ; add rax, r8 ; ret ; \x4c\x63\x04\x0a\x4d\x03\xc1\x49\x03\xc0\xc3 (1 found)
0x140003d0e: movsxd rax, qword [rbx+0x1C] ; mov qword [rsp+0x40], rcx ; mov eax,  [rax+rcx+0x04] ; add rsp, 0x20 ; pop rbx ; ret ; \x48\x63\x43\x1c\x48\x89\x4c\x24\x40\x8b\x44\x08\x04\x48\x83\xc4\x20\x5b\xc3 (1 found)
0x140002d7e: movsxd rax, rcx ; lea rax, qword [r8+rax*2] ; ret ; \x48\x63\xc1\x49\x8d\x04\x40\xc3 (1 found)
0x1400030e4: movsxd rdx, qword [rdx+0x08] ; mov rcx, qword [r9+rcx] ; movsxd r8, qword [rdx+rcx] ; add r8, r9 ; add rax, r8 ; ret ; \x48\x63\x52\x08\x49\x8b\x0c\x09\x4c\x63\x04\x0a\x4d\x03\xc1\x49\x03\xc0\xc3 (1 found)
0x140003d24: movsxd rdx, qword [rdx+0x1C] ; mov rax, qword [rcx] ; mov  [rdx+rax], r8d ; ret ; \x48\x63\x52\x1c\x48\x8b\x01\x44\x89\x04\x02\xc3 (1 found)
0x14001be96: movups  [rax], xmm2 ; movups  [rcx], xmm0 ; ret ; \x0f\x11\x10\x0f\x11\x01\xc3 (1 found)
0x14001be99: movups  [rcx], xmm0 ; ret ; \x0f\x11\x01\xc3 (1 found)
0x14001aa2b: movups xmm0,  [rsp+0x08] ; ret ; \x0f\x10\x44\x24\x08\xc3 (1 found)
0x14001a826: movups xmm0,  [rsp+0x40] ; add rsp, 0x50 ; pop rbx ; ret ; \x0f\x10\x44\x24\x40\x48\x83\xc4\x50\x5b\xc3 (1 found)
0x14001b8d3: movzx eax, byte [rdx+0x02] ; mov word [rax], cx ; mov byte [rax+0x02], r8L ; ret ; \x0f\xb6\x42\x02\x66\x89\x08\x44\x88\x40\x02\xc3 (1 found)
0x14001b932: movzx eax, byte [rdx+0x04] ; mov  [rax], ecx ; mov byte [rax+0x04], r8L ; ret ; \x0f\xb6\x42\x04\x89\x08\x44\x88\x40\x04\xc3 (1 found)
0x14000fe0a: movzx eax, cl ; ret ; \x0f\xb6\xc1\xc3 (1 found)
0x140017bdc: movzx eax, dh ; mov rbx, qword [rsp+0x30] ; mov rsi, qword [rsp+0x38] ; add rsp, 0x20 ; pop rdi ; ret ; \x0f\xb6\xc6\x48\x8b\x5c\x24\x30\x48\x8b\x74\x24\x38\x48\x83\xc4\x20\x5f\xc3 (1 found)
0x14001104d: movzx eax, dx ; add rsp, 0x58 ; ret ; \x0f\xb7\xc2\x48\x83\xc4\x58\xc3 (1 found)
0x140017ca9: movzx eax, si ; mov rbx, qword [rsp+0x30] ; mov rsi, qword [rsp+0x38] ; add rsp, 0x20 ; pop rdi ; ret ; \x0f\xb7\xc6\x48\x8b\x5c\x24\x30\x48\x8b\x74\x24\x38\x48\x83\xc4\x20\x5f\xc3 (1 found)
0x140017bdb: movzx eax, sil ; mov rbx, qword [rsp+0x30] ; mov rsi, qword [rsp+0x38] ; add rsp, 0x20 ; pop rdi ; ret ; \x40\x0f\xb6\xc6\x48\x8b\x5c\x24\x30\x48\x8b\x74\x24\x38\x48\x83\xc4\x20\x5f\xc3 (1 found)
0x14000cc08: movzx eax, word [rax+rbx*2] ; and eax, 0x08 ; mov rbx, qword [rsp+0x30] ; add rsp, 0x20 ; pop rdi ; ret ; \x0f\xb7\x04\x58\x83\xe0\x08\x48\x8b\x5c\x24\x30\x48\x83\xc4\x20\x5f\xc3 (1 found)
0x14000cc48: movzx eax, word [rcx+rbx*2] ; and eax, 0x08 ; mov rbx, qword [rsp+0x30] ; add rsp, 0x20 ; pop rdi ; ret ; \x0f\xb7\x04\x59\x83\xe0\x08\x48\x8b\x5c\x24\x30\x48\x83\xc4\x20\x5f\xc3 (1 found)
0x14000ccab: movzx eax, word [rcx] ; movzx ecx, word [rdx] ; sub eax, ecx ; ret ; \x0f\xb7\x01\x0f\xb7\x0a\x2b\xc1\xc3 (1 found)
0x14001b923: movzx eax, word [rdx+0x04] ; mov  [rax], ecx ; mov word [rax+0x04], r8w ; ret ; \x0f\xb7\x42\x04\x89\x08\x66\x44\x89\x40\x04\xc3 (1 found)
0x14001b8a3: movzx eax, word [rdx+0x04] ; movzx r9d, byte [rdx+0x06] ; mov  [rax], ecx ; mov word [rax+0x04], r8w ; mov byte [rax+0x06], r9L ; ret ; \x0f\xb7\x42\x04\x44\x0f\xb6\x4a\x06\x89\x08\x66\x44\x89\x40\x04\x44\x88\x48\x06\xc3 (1 found)
0x140019e0a: movzx ecx, ax ; or eax, ecx ; mov  [rsp+0x08], eax ; ldmxcsr  [rsp+0x08] ; ret ; \x0f\xb7\xc8\x0b\xc1\x89\x44\x24\x08\x0f\xae\x54\x24\x08\xc3 (1 found)
0x14001b8a8: movzx ecx, byte [rdx+0x06] ; mov  [rax], ecx ; mov word [rax+0x04], r8w ; mov byte [rax+0x06], r9L ; ret ; \x0f\xb6\x4a\x06\x89\x08\x66\x44\x89\x40\x04\x44\x88\x48\x06\xc3 (1 found)
0x14001b908: movzx ecx, byte [rdx+0x08] ; mov qword [rax], r8 ; mov byte [rax+0x08], cl ; ret ; \x0f\xb6\x4a\x08\x4c\x89\x00\x88\x48\x08\xc3 (1 found)
0x14001b888: movzx ecx, byte [rdx+0x0A] ; mov qword [rax], r8 ; mov word [rax+0x08], cx ; mov byte [rax+0x0A], r9L ; ret ; \x0f\xb6\x4a\x0a\x4c\x89\x00\x66\x89\x48\x08\x44\x88\x48\x0a\xc3 (1 found)
0x14001b8e7: movzx ecx, byte [rdx+0x0C] ; mov qword [rax], r8 ; mov  [rax+0x08], ecx ; mov byte [rax+0x0C], r9L ; ret ; \x0f\xb6\x4a\x0c\x4c\x89\x00\x89\x48\x08\x44\x88\x48\x0c\xc3 (1 found)
0x14001b944: movzx ecx, byte [rdx] ; mov byte [rax], cl ; ret ; \x0f\xb6\x0a\x88\x08\xc3 (1 found)
0x140019e09: movzx ecx, r8w ; or eax, ecx ; mov  [rsp+0x08], eax ; ldmxcsr  [rsp+0x08] ; ret ; \x41\x0f\xb7\xc8\x0b\xc1\x89\x44\x24\x08\x0f\xae\x54\x24\x08\xc3 (1 found)
0x14001b8f9: movzx ecx, word [rdx+0x08] ; mov qword [rax], r8 ; mov word [rax+0x08], cx ; ret ; \x0f\xb7\x4a\x08\x4c\x89\x00\x66\x89\x48\x08\xc3 (1 found)
0x14001b883: movzx ecx, word [rdx+0x08] ; movzx r9d, byte [rdx+0x0A] ; mov qword [rax], r8 ; mov word [rax+0x08], cx ; mov byte [rax+0x0A], r9L ; ret ; \x0f\xb7\x4a\x08\x44\x0f\xb6\x4a\x0a\x4c\x89\x00\x66\x89\x48\x08\x44\x88\x48\x0a\xc3 (1 found)
0x14001b8bf: movzx ecx, word [rdx+0x0C] ; mov qword [rax], r8 ; mov  [rax+0x08], ecx ; mov word [rax+0x0C], r9w ; ret ; \x0f\xb7\x4a\x0c\x4c\x89\x00\x89\x48\x08\x66\x44\x89\x48\x0c\xc3 (1 found)
0x14001b898: movzx ecx, word [rdx] ; mov word [rax], cx ; ret ; \x0f\xb7\x0a\x66\x89\x08\xc3 (1 found)
0x14001b8cf: movzx ecx, word [rdx] ; movzx r8d, byte [rdx+0x02] ; mov word [rax], cx ; mov byte [rax+0x02], r8L ; ret ; \x0f\xb7\x0a\x44\x0f\xb6\x42\x02\x66\x89\x08\x44\x88\x40\x02\xc3 (1 found)
0x14000ccae: movzx ecx, word [rdx] ; sub eax, ecx ; ret ; \x0f\xb7\x0a\x2b\xc1\xc3 (1 found)
0x14001b86c: movzx edx, byte [rdx+0x0E] ; mov qword [rax], r8 ; mov  [rax+0x08], ecx ; mov word [rax+0x0C], r9w ; mov byte [rax+0x0E], r10L ; ret ; \x0f\xb6\x52\x0e\x4c\x89\x00\x89\x48\x08\x66\x44\x89\x48\x0c\x44\x88\x50\x0e\xc3 (1 found)
0x14001b86b: movzx r10d, byte [rdx+0x0E] ; mov qword [rax], r8 ; mov  [rax+0x08], ecx ; mov word [rax+0x0C], r9w ; mov byte [rax+0x0E], r10L ; ret ; \x44\x0f\xb6\x52\x0e\x4c\x89\x00\x89\x48\x08\x66\x44\x89\x48\x0c\x44\x88\x50\x0e\xc3 (1 found)
0x14001b8d2: movzx r8d, byte [rdx+0x02] ; mov word [rax], cx ; mov byte [rax+0x02], r8L ; ret ; \x44\x0f\xb6\x42\x02\x66\x89\x08\x44\x88\x40\x02\xc3 (1 found)
0x14001b931: movzx r8d, byte [rdx+0x04] ; mov  [rax], ecx ; mov byte [rax+0x04], r8L ; ret ; \x44\x0f\xb6\x42\x04\x89\x08\x44\x88\x40\x04\xc3 (1 found)
0x14001b922: movzx r8d, word [rdx+0x04] ; mov  [rax], ecx ; mov word [rax+0x04], r8w ; ret ; \x44\x0f\xb7\x42\x04\x89\x08\x66\x44\x89\x40\x04\xc3 (1 found)
0x14001b8a2: movzx r8d, word [rdx+0x04] ; movzx r9d, byte [rdx+0x06] ; mov  [rax], ecx ; mov word [rax+0x04], r8w ; mov byte [rax+0x06], r9L ; ret ; \x44\x0f\xb7\x42\x04\x44\x0f\xb6\x4a\x06\x89\x08\x66\x44\x89\x40\x04\x44\x88\x48\x06\xc3 (1 found)
0x14001b8a7: movzx r9d, byte [rdx+0x06] ; mov  [rax], ecx ; mov word [rax+0x04], r8w ; mov byte [rax+0x06], r9L ; ret ; \x44\x0f\xb6\x4a\x06\x89\x08\x66\x44\x89\x40\x04\x44\x88\x48\x06\xc3 (1 found)
0x14001b887: movzx r9d, byte [rdx+0x0A] ; mov qword [rax], r8 ; mov word [rax+0x08], cx ; mov byte [rax+0x0A], r9L ; ret ; \x44\x0f\xb6\x4a\x0a\x4c\x89\x00\x66\x89\x48\x08\x44\x88\x48\x0a\xc3 (1 found)
0x14001b8e6: movzx r9d, byte [rdx+0x0C] ; mov qword [rax], r8 ; mov  [rax+0x08], ecx ; mov byte [rax+0x0C], r9L ; ret ; \x44\x0f\xb6\x4a\x0c\x4c\x89\x00\x89\x48\x08\x44\x88\x48\x0c\xc3 (1 found)
0x14001b8be: movzx r9d, word [rdx+0x0C] ; mov qword [rax], r8 ; mov  [rax+0x08], ecx ; mov word [rax+0x0C], r9w ; ret ; \x44\x0f\xb7\x4a\x0c\x4c\x89\x00\x89\x48\x08\x66\x44\x89\x48\x0c\xc3 (1 found)
0x14001b513: mul byte [rsi+0x44] ; mov  [rcx-0x02], ebx ; ret ; \xf6\x66\x44\x89\x59\xfe\xc3 (1 found)
0x14000dec6: neg al ; add  [rax], eax ; mov al, 0x01 ; ret ; \xf6\xd8\x01\x00\xb0\x01\xc3 (1 found)
0x140002376: neg eax ; dec eax ; add rsp, 0x28 ; ret ; \xf7\xd8\xff\xc8\x48\x83\xc4\x28\xc3 (1 found)
0x140002372: neg eax ; sbb eax, eax ; neg eax ; dec eax ; add rsp, 0x28 ; ret ; \xf7\xd8\x1b\xc0\xf7\xd8\xff\xc8\x48\x83\xc4\x28\xc3 (1 found)
0x140002371: neg rax ; sbb eax, eax ; neg eax ; dec eax ; add rsp, 0x28 ; ret ; \x48\xf7\xd8\x1b\xc0\xf7\xd8\xff\xc8\x48\x83\xc4\x28\xc3 (1 found)
0x14000538d: nop ; add  [rax], eax ; cmovne rax, qword [rcx+0x08] ; ret ; \x90\x01\x00\x48\x0f\x45\x41\x08\xc3 (1 found)
0x1400134d7: nop ; add byte [rax], al ; add byte [rax-0x75], cl ; or ebp, eax ; fstenv  [rdx-0x7CB70001] ; ret ; \x90\x00\x00\x00\x48\x8b\x0b\xe8\xd9\xb2\xff\xff\x48\x83\xc3 (1 found)
0x14001bec6: nop ; add rsp, 0x20 ; pop rbp ; ret ; \x90\x48\x83\xc4\x20\x5d\xc3 (1 found)
0x14001c041: nop ; add rsp, 0x20 ; pop rbp ; ret ; \x90\x48\x83\xc4\x20\x5d\xc3 (1 found)
0x14001c0dd: nop ; add rsp, 0x20 ; pop rbp ; ret ; \x90\x48\x83\xc4\x20\x5d\xc3 (1 found)
0x14001c1e0: nop ; add rsp, 0x20 ; pop rbp ; ret ; \x90\x48\x83\xc4\x20\x5d\xc3 (1 found)
0x14001c45d: nop ; add rsp, 0x20 ; pop rbp ; ret ; \x90\x48\x83\xc4\x20\x5d\xc3 (1 found)
0x14000fc4d: nop ; add rsp, 0x28 ; ret ; \x90\x48\x83\xc4\x28\xc3 (1 found)
0x14000580c: nop ; add rsp, 0x30 ; pop rbx ; ret ; \x90\x48\x83\xc4\x30\x5b\xc3 (1 found)
0x1400020c5: nop ; add rsp, 0x38 ; ret ; \x90\x48\x83\xc4\x38\xc3 (1 found)
0x14000de45: nop ; add rsp, 0x38 ; ret ; \x90\x48\x83\xc4\x38\xc3 (1 found)
0x14001c4ec: nop ; add rsp, 0x40 ; pop rbp ; ret ; \x90\x48\x83\xc4\x40\x5d\xc3 (1 found)
0x14000d7f2: nop ; mov  [rcx], eax ; xor eax, eax ; add rsp, 0x28 ; ret ; \x90\x89\x01\x33\xc0\x48\x83\xc4\x28\xc3 (1 found)
0x1400198de: nop ; movdqa xmm6,  [rsp+0x20] ; add rsp, 0x58 ; ret ; \x66\x90\x66\x0f\x6f\x74\x24\x20\x48\x83\xc4\x58\xc3 (1 found)
0x1400198df: nop ; movdqa xmm6,  [rsp+0x20] ; add rsp, 0x58 ; ret ; \x90\x66\x0f\x6f\x74\x24\x20\x48\x83\xc4\x58\xc3 (1 found)
0x14000da7a: nop ; ret ; \x90\xc3 (1 found)
0x140019b8c: nop  [rax+0x00] ; vmovdqa xmm6,  [rsp+0x20] ; add rsp, 0x58 ; ret ; \x0f\x1f\x40\x00\xc5\xf9\x6f\x74\x24\x20\x48\x83\xc4\x58\xc3 (1 found)
0x14001b408: nop  [rax+rax+0x00000000] ; jmp rax ; \x0f\x1f\x84\x00\x00\x00\x00\x00\xff\xe0 (1 found)
0x14001b4d8: nop  [rax+rax+0x00000000] ; mov qword [rcx-0x0D], r11 ; mov  [rcx-0x05], r11d ; mov byte [rcx-0x01], r11L ; ret ; \x0f\x1f\x84\x00\x00\x00\x00\x00\x4c\x89\x59\xf3\x44\x89\x59\xfb\x44\x88\x59\xff\xc3 (1 found)
0x14001b848: nop  [rax+rax+0x00000000] ; mov r9d,  [r10+r8*4+0x00026410] ; add r9, r10 ; jmp r9 ; \x0f\x1f\x84\x00\x00\x00\x00\x00\x47\x8b\x8c\x82\x10\x64\x02\x00\x4d\x03\xca\x41\xff\xe1 (1 found)
0x14001ab78: nop  [rax+rax+0x00000000] ; sub rsp, 0x08 ; stmxcsr  [rsp+0x00] ; mov eax,  [rsp+0x00] ; add rsp, 0x08 ; ret ; \x0f\x1f\x84\x00\x00\x00\x00\x00\x48\x83\xec\x08\x0f\xae\x1c\x24\x8b\x04\x24\x48\x83\xc4\x08\xc3 (1 found)
0x14001b49d: nop  [rax] ; add rcx, r8 ; mov r9d,  [r10+r8*4+0x00026360] ; add r9, r10 ; jmp r9 ; \x0f\x1f\x00\x49\x03\xc8\x47\x8b\x8c\x82\x60\x63\x02\x00\x4d\x03\xca\x41\xff\xe1 (1 found)
0x14001b4ed: nop  [rax] ; mov qword [rcx-0x0C], r11 ; mov  [rcx-0x04], r11d ; ret ; \x0f\x1f\x00\x4c\x89\x59\xf4\x44\x89\x59\xfc\xc3 (1 found)
0x14001b406: nop word [rax+rax+0x00000000] ; jmp rax ; \x66\x66\x0f\x1f\x84\x00\x00\x00\x00\x00\xff\xe0 (1 found)
0x14001b407: nop word [rax+rax+0x00000000] ; jmp rax ; \x66\x0f\x1f\x84\x00\x00\x00\x00\x00\xff\xe0 (1 found)
0x14001b4d1: nop word [rax+rax+0x00000000] ; mov qword [rcx-0x0D], r11 ; mov  [rcx-0x05], r11d ; mov byte [rcx-0x01], r11L ; ret ; \x66\x66\x66\x66\x66\x66\x66\x0f\x1f\x84\x00\x00\x00\x00\x00\x4c\x89\x59\xf3\x44\x89\x59\xfb\x44\x88\x59\xff\xc3 (1 found)
0x14001b4d2: nop word [rax+rax+0x00000000] ; mov qword [rcx-0x0D], r11 ; mov  [rcx-0x05], r11d ; mov byte [rcx-0x01], r11L ; ret ; \x66\x66\x66\x66\x66\x66\x0f\x1f\x84\x00\x00\x00\x00\x00\x4c\x89\x59\xf3\x44\x89\x59\xfb\x44\x88\x59\xff\xc3 (1 found)
0x14001b4d3: nop word [rax+rax+0x00000000] ; mov qword [rcx-0x0D], r11 ; mov  [rcx-0x05], r11d ; mov byte [rcx-0x01], r11L ; ret ; \x66\x66\x66\x66\x66\x0f\x1f\x84\x00\x00\x00\x00\x00\x4c\x89\x59\xf3\x44\x89\x59\xfb\x44\x88\x59\xff\xc3 (1 found)
0x14001b4d4: nop word [rax+rax+0x00000000] ; mov qword [rcx-0x0D], r11 ; mov  [rcx-0x05], r11d ; mov byte [rcx-0x01], r11L ; ret ; \x66\x66\x66\x66\x0f\x1f\x84\x00\x00\x00\x00\x00\x4c\x89\x59\xf3\x44\x89\x59\xfb\x44\x88\x59\xff\xc3 (1 found)
0x14001b4d5: nop word [rax+rax+0x00000000] ; mov qword [rcx-0x0D], r11 ; mov  [rcx-0x05], r11d ; mov byte [rcx-0x01], r11L ; ret ; \x66\x66\x66\x0f\x1f\x84\x00\x00\x00\x00\x00\x4c\x89\x59\xf3\x44\x89\x59\xfb\x44\x88\x59\xff\xc3 (1 found)
0x14001b4d6: nop word [rax+rax+0x00000000] ; mov qword [rcx-0x0D], r11 ; mov  [rcx-0x05], r11d ; mov byte [rcx-0x01], r11L ; ret ; \x66\x66\x0f\x1f\x84\x00\x00\x00\x00\x00\x4c\x89\x59\xf3\x44\x89\x59\xfb\x44\x88\x59\xff\xc3 (1 found)
0x14001b4d7: nop word [rax+rax+0x00000000] ; mov qword [rcx-0x0D], r11 ; mov  [rcx-0x05], r11d ; mov byte [rcx-0x01], r11L ; ret ; \x66\x0f\x1f\x84\x00\x00\x00\x00\x00\x4c\x89\x59\xf3\x44\x89\x59\xfb\x44\x88\x59\xff\xc3 (1 found)
0x14001b844: nop word [rax+rax+0x00000000] ; mov r9d,  [r10+r8*4+0x00026410] ; add r9, r10 ; jmp r9 ; \x66\x66\x66\x66\x0f\x1f\x84\x00\x00\x00\x00\x00\x47\x8b\x8c\x82\x10\x64\x02\x00\x4d\x03\xca\x41\xff\xe1 (1 found)
0x14001b845: nop word [rax+rax+0x00000000] ; mov r9d,  [r10+r8*4+0x00026410] ; add r9, r10 ; jmp r9 ; \x66\x66\x66\x0f\x1f\x84\x00\x00\x00\x00\x00\x47\x8b\x8c\x82\x10\x64\x02\x00\x4d\x03\xca\x41\xff\xe1 (1 found)
0x14001b846: nop word [rax+rax+0x00000000] ; mov r9d,  [r10+r8*4+0x00026410] ; add r9, r10 ; jmp r9 ; \x66\x66\x0f\x1f\x84\x00\x00\x00\x00\x00\x47\x8b\x8c\x82\x10\x64\x02\x00\x4d\x03\xca\x41\xff\xe1 (1 found)
0x14001b847: nop word [rax+rax+0x00000000] ; mov r9d,  [r10+r8*4+0x00026410] ; add r9, r10 ; jmp r9 ; \x66\x0f\x1f\x84\x00\x00\x00\x00\x00\x47\x8b\x8c\x82\x10\x64\x02\x00\x4d\x03\xca\x41\xff\xe1 (1 found)
0x14001ab76: nop word [rax+rax+0x00000000] ; sub rsp, 0x08 ; stmxcsr  [rsp+0x00] ; mov eax,  [rsp+0x00] ; add rsp, 0x08 ; ret ; \x66\x66\x0f\x1f\x84\x00\x00\x00\x00\x00\x48\x83\xec\x08\x0f\xae\x1c\x24\x8b\x04\x24\x48\x83\xc4\x08\xc3 (1 found)
0x14001ab77: nop word [rax+rax+0x00000000] ; sub rsp, 0x08 ; stmxcsr  [rsp+0x00] ; mov eax,  [rsp+0x00] ; add rsp, 0x08 ; ret ; \x66\x0f\x1f\x84\x00\x00\x00\x00\x00\x48\x83\xec\x08\x0f\xae\x1c\x24\x8b\x04\x24\x48\x83\xc4\x08\xc3 (1 found)
0x14000241d: not eax ; mov qword [0x000000014002A040], rax ; add rsp, 0x30 ; pop rbp ; ret ; \xf7\xd0\x48\x89\x05\x1a\x7c\x02\x00\x48\x83\xc4\x30\x5d\xc3 (1 found)
0x14000241c: not rax ; mov qword [0x000000014002A040], rax ; add rsp, 0x30 ; pop rbp ; ret ; \x48\xf7\xd0\x48\x89\x05\x1a\x7c\x02\x00\x48\x83\xc4\x30\x5d\xc3 (1 found)
0x140003394: or  [0x000000014002A070], 0xFFFFFFFF ; mov al, 0x01 ; add rsp, 0x28 ; ret ; \x83\x0d\xd5\x6c\x02\x00\xff\xb0\x01\x48\x83\xc4\x28\xc3 (1 found)
0x14001062c: or  [0x000000014002A198], 0xFFFFFFFF ; mov al, 0x01 ; add rsp, 0x28 ; ret ; \x83\x0d\x65\x9b\x01\x00\xff\xb0\x01\x48\x83\xc4\x28\xc3 (1 found)
0x14000da61: or  [0x000000014002AA40], 0xFFFFFFFF ; lea eax,  [rcx+0x02] ; add rsp, 0x20 ; pop rbx ; ret ; \x83\x0d\xd8\xcf\x01\x00\xff\x8d\x41\x02\x48\x83\xc4\x20\x5b\xc3 (1 found)
0x14001b63b: or  [rax+0x7F7EA1C4], esp ; or eax, r8d ; vmovdqu  [rcx+r8-0x20], ymm0 ; vmovdqu  [rax], ymm0 ; vzeroupper ; ret ; \x09\xa0\xc4\xa1\x7e\x7f\x44\x09\xc0\xc4\xa1\x7e\x7f\x44\x01\xe0\xc5\xfe\x7f\x00\xc5\xf8\x77\xc3 (1 found)
0x14001b63a: or  [rax+0x7F7EA1C4], r12d ; or eax, r8d ; vmovdqu  [rcx+r8-0x20], ymm0 ; vmovdqu  [rax], ymm0 ; vzeroupper ; ret ; \x44\x09\xa0\xc4\xa1\x7e\x7f\x44\x09\xc0\xc4\xa1\x7e\x7f\x44\x01\xe0\xc5\xfe\x7f\x00\xc5\xf8\x77\xc3 (1 found)
0x140002fdf: or  [rax+rax], eax ; add bl, ch ; in al, dx ; mov al, 0x01 ; add rsp, 0x28 ; ret ; \x09\x04\x00\x00\xeb\xec\xb0\x01\x48\x83\xc4\x28\xc3 (1 found)
0x14001a3ee: or  [rax-0x01], ecx ; rol byte [rax+0x7500083C], 0xF2 ; ret ; \x09\x48\xff\xc0\x80\x3c\x08\x00\x75\xf2\xc3 (1 found)
0x1400146bc: or  [rax-0x7D], ecx ; ret ; \x09\x48\x83\xc3 (1 found)
0x140015840: or  [rax-0x7D], ecx ; ret ; \x09\x48\x83\xc3 (1 found)
0x14000e8cc: or  [rax-0x7D], ecx ; retn 0x4802 ; \x09\x48\x83\xc2\x02\x48 (1 found)
0x14000e9a1: or  [rax-0x7D], ecx ; retn 0x4802 ; \x09\x48\x83\xc2\x02\x48 (1 found)
0x14000ea1a: or  [rax-0x7D], ecx ; retn 0x4802 ; \x09\x48\x83\xc2\x02\x48 (1 found)
0x140002483: or  [rax], 0x02 ; add rsp, 0x28 ; ret ; \x83\x08\x02\x48\x83\xc4\x28\xc3 (1 found)
0x1400090a2: or  [rax], eax ; add byte [rax], al ; mov al, 0x01 ; add rsp, 0x38 ; ret ; \x09\x00\x00\x00\xb0\x01\x48\x83\xc4\x38\xc3 (1 found)
0x140009252: or  [rax], eax ; add byte [rax], al ; mov al, 0x01 ; add rsp, 0x38 ; ret ; \x09\x00\x00\x00\xb0\x01\x48\x83\xc4\x38\xc3 (1 found)
0x140009402: or  [rax], eax ; add byte [rax], al ; mov al, 0x01 ; add rsp, 0x38 ; ret ; \x09\x00\x00\x00\xb0\x01\x48\x83\xc4\x38\xc3 (1 found)
0x1400030eb: or  [rbx+0x04], ecx ; or cl, byte [rbp+0x03] ; ror  [rcx+0x03], 0xFFFFFFC0 ; ret ; \x09\x4c\x63\x04\x0a\x4d\x03\xc1\x49\x03\xc0\xc3 (1 found)
0x140017631: or  [rcx-0x77], ecx ; add byte [rax+0x00000001], bh ; ret ; \x09\x49\x89\x00\xb8\x01\x00\x00\x00\xc3 (1 found)
0x14001a0c8: or  [rcx], eax ; add byte [rax-0x7D], cl ; clc ; dec  [rdi] ; xchg eax, ebp ; ret ; \x09\x01\x00\x48\x83\xf8\xff\x0f\x95\xc3 (1 found)
0x14001bda2: or ah, al ; movdqu  [rcx+r9-0x20], xmm1 ; movdqu  [rcx+r8-0x10], xmm5 ; movdqu  [rax], xmm0 ; ret ; \x0a\xe0\xf3\x42\x0f\x7f\x4c\x09\xe0\xf3\x42\x0f\x7f\x6c\x01\xf0\xf3\x0f\x7f\x00\xc3 (1 found)
0x14000e84a: or al, 0x00 ; add byte [rax], al ; xor eax, eax ; add rsp, 0x20 ; pop rbx ; ret ; \x0c\x00\x00\x00\x33\xc0\x48\x83\xc4\x20\x5b\xc3 (1 found)
0x140010919: or al, 0x00 ; add byte [rax], al ; xor eax, eax ; add rsp, 0x20 ; pop rbx ; ret ; \x0c\x00\x00\x00\x33\xc0\x48\x83\xc4\x20\x5b\xc3 (1 found)
0x14001b840: or al, 0x01 ; add byte [rax], al ; nop word [rax+rax+0x00000000] ; mov r9d,  [r10+r8*4+0x00026410] ; add r9, r10 ; jmp r9 ; \x0c\x01\x00\x00\x66\x66\x66\x66\x0f\x1f\x84\x00\x00\x00\x00\x00\x47\x8b\x8c\x82\x10\x64\x02\x00\x4d\x03\xca\x41\xff\xe1 (1 found)
0x1400030ea: or al, 0x09 ; movsxd r8, qword [rdx+rcx] ; add r8, r9 ; add rax, r8 ; ret ; \x0c\x09\x4c\x63\x04\x0a\x4d\x03\xc1\x49\x03\xc0\xc3 (1 found)
0x14001b879: or al, 0x44 ; mov byte [rax+0x0E], dl ; ret ; \x48\x0c\x44\x88\x50\x0e\xc3 (1 found)
0x14001b87a: or al, 0x44 ; mov byte [rax+0x0E], dl ; ret ; \x0c\x44\x88\x50\x0e\xc3 (1 found)
0x140011040: or al, 0x48 ; mov ecx,  [rsp+0x30] ; and  [rcx+0x000003A8], 0xFFFFFFFD ; movzx eax, dx ; add rsp, 0x58 ; ret ; \x0c\x48\x8b\x4c\x24\x30\x83\xa1\xa8\x03\x00\x00\xfd\x0f\xb7\xc2\x48\x83\xc4\x58\xc3 (1 found)
0x140005c50: or al, 0x48 ; test ecx, ecx ; sete al ; ret ; \x0c\x48\x85\xc9\x0f\x94\xc0\xc3 (1 found)
0x140002e3d: or al, 0x49 ; mov edx, ebp ; add rax, r12 ; lea rcx, qword [rsp+0x30] ; call rax ; \x0c\x49\x8b\xd5\x49\x03\xc4\x48\x8d\x4c\x24\x30\xff\xd0 (1 found)
0x14001b8e9: or al, 0x4C ; mov  [rax], eax ; mov  [rax+0x08], ecx ; mov byte [rax+0x0C], r9L ; ret ; \x4a\x0c\x4c\x89\x00\x89\x48\x08\x44\x88\x48\x0c\xc3 (1 found)
0x14001b8ea: or al, 0x4C ; mov  [rax], eax ; mov  [rax+0x08], ecx ; mov byte [rax+0x0C], r9L ; ret ; \x0c\x4c\x89\x00\x89\x48\x08\x44\x88\x48\x0c\xc3 (1 found)
0x14001b8c1: or al, 0x4C ; mov  [rax], eax ; mov  [rax+0x08], ecx ; mov word [rax+0x0C], r9w ; ret ; \x4a\x0c\x4c\x89\x00\x89\x48\x08\x66\x44\x89\x48\x0c\xc3 (1 found)
0x14001b8c2: or al, 0x4C ; mov  [rax], eax ; mov  [rax+0x08], ecx ; mov word [rax+0x0C], r9w ; ret ; \x0c\x4c\x89\x00\x89\x48\x08\x66\x44\x89\x48\x0c\xc3 (1 found)
0x14000f47c: or al, 0x8A ; add ecx,  [rax-0x01] ; ret ; \x0c\x8a\x03\x48\xff\xc3 (1 found)
0x14001b8f3: or al, 0xC3 ; mov r8, qword [rdx] ; movzx ecx, word [rdx+0x08] ; mov qword [rax], r8 ; mov word [rax+0x08], cx ; ret ; \x48\x0c\xc3\x4c\x8b\x02\x0f\xb7\x4a\x08\x4c\x89\x00\x66\x89\x48\x08\xc3 (1 found)
0x14001b8f4: or al, 0xC3 ; mov r8, qword [rdx] ; movzx ecx, word [rdx+0x08] ; mov qword [rax], r8 ; mov word [rax+0x08], cx ; ret ; \x0c\xc3\x4c\x8b\x02\x0f\xb7\x4a\x08\x4c\x89\x00\x66\x89\x48\x08\xc3 (1 found)
0x14001b8cc: or al, 0xC3 ; movzx ecx, word [rdx] ; movzx r8d, byte [rdx+0x02] ; mov word [rax], cx ; mov byte [rax+0x02], r8L ; ret ; \x48\x0c\xc3\x0f\xb7\x0a\x44\x0f\xb6\x42\x02\x66\x89\x08\x44\x88\x40\x02\xc3 (1 found)
0x14001b8cd: or al, 0xC3 ; movzx ecx, word [rdx] ; movzx r8d, byte [rdx+0x02] ; mov word [rax], cx ; mov byte [rax+0x02], r8L ; ret ; \x0c\xc3\x0f\xb7\x0a\x44\x0f\xb6\x42\x02\x66\x89\x08\x44\x88\x40\x02\xc3 (1 found)
0x14001b529: or al, 0xF3 ; movq qword [rcx], mm0 ; movdqu  [rcx+r8-0x10], xmm0 ; ret ; \x0c\xf3\x0f\x7f\x01\xf3\x42\x0f\x7f\x44\x01\xf0\xc3 (1 found)
0x140008895: or al, 0xF6 ; retn 0x7401 ; \x0c\xf6\xc2\x01\x74 (1 found)
0x140008b72: or al, 0xF6 ; retn 0x7401 ; \x0c\xf6\xc2\x01\x74 (1 found)
0x1400097a7: or al, 0xF6 ; retn 0x7401 ; \x0c\xf6\xc2\x01\x74 (1 found)
0x140009c6b: or al, 0xF6 ; retn 0x7401 ; \x0c\xf6\xc2\x01\x74 (1 found)
0x14000b3c7: or al, 0xF6 ; retn 0x7401 ; \x0c\xf6\xc2\x01\x74 (1 found)
0x14001bb16: or al, al ; vmovdqu  [rcx+r9-0x40], ymm1 ; vmovdqu  [rcx+r8-0x20], ymm5 ; vmovdqu  [rax], ymm0 ; vzeroupper ; ret ; \x0a\xc0\xc4\xa1\x7e\x7f\x4c\x09\xc0\xc4\xa1\x7e\x7f\x6c\x01\xe0\xc5\xfe\x7f\x00\xc5\xf8\x77\xc3 (1 found)
0x140015291: or al, bh ; add ch, bl ; fld qword [rax] ; add byte [rax-0x7D], cl ; ret ; \x0a\xc7\x00\xdd\xdd\x00\x00\x48\x83\xc3 (1 found)
0x140018f1d: or al, bh ; add ch, bl ; fld qword [rax] ; add byte [rax-0x7D], cl ; ret ; \x0a\xc7\x00\xdd\xdd\x00\x00\x48\x83\xc3 (1 found)
0x14001b895: or al, bl ; movzx ecx, word [rdx] ; mov word [rax], cx ; ret ; \x48\x0a\xc3\x0f\xb7\x0a\x66\x89\x08\xc3 (1 found)
0x14001b896: or al, bl ; movzx ecx, word [rdx] ; mov word [rax], cx ; ret ; \x0a\xc3\x0f\xb7\x0a\x66\x89\x08\xc3 (1 found)
0x1400033de: or al, byte [rax] ; add byte [rax], al ; xor al, al ; add rsp, 0x20 ; pop rbx ; ret ; \x0a\x00\x00\x00\x32\xc0\x48\x83\xc4\x20\x5b\xc3 (1 found)
0x14000ddb6: or al, byte [rax] ; add byte [rbx+rcx*4+0x05], cl ; retn 0x0001 ; \x0a\x00\x00\x4c\x8b\x05\x40\xc2\x01\x00 (1 found)
0x14001b921: or al, byte [rdi+rcx-0x49] ; add al, 0x89 ; or byte [rsi+0x44], ah ; mov  [rax+0x04], eax ; ret ; \x0a\x44\x0f\xb7\x42\x04\x89\x08\x66\x44\x89\x40\x04\xc3 (1 found)
0x140001179: or al, ch ; add eax, 0x480000A4 ; mov esi,  [rsp+0x38] ; add rsp, 0x40 ; pop rbx ; ret ; \x08\xe8\x05\xa4\x00\x00\x48\x8b\x74\x24\x38\x48\x83\xc4\x40\x5b\xc3 (1 found)
0x14001c4e6: or al, ch ; and byte [rdi+0x4890FFFF], al ; add esp, 0x40 ; pop rbp ; ret ; \x08\xe8\x20\x87\xff\xff\x90\x48\x83\xc4\x40\x5d\xc3 (1 found)
0x14000cc68: or al, ch ; fisub word [rax+rax+0x00] ; mov rbx, qword [rsp+0x30] ; add rsp, 0x20 ; pop rdi ; ret ; \x08\xe8\xde\x64\x00\x00\x48\x8b\x5c\x24\x30\x48\x83\xc4\x20\x5f\xc3 (1 found)
0x140004cf0: or al, ch ; mov edx, 0xF6000007 ; ret ; \x08\xe8\xba\x07\x00\x00\xf6\xc3 (1 found)
0x14000ea52: or al, ch ; sbb byte [rax+rax+0x00], ch ; mov qword [rbx], rax ; add rsp, 0x20 ; pop rbx ; ret ; \x08\xe8\x18\x6c\x00\x00\x48\x89\x03\x48\x83\xc4\x20\x5b\xc3 (1 found)
0x14000bbdb: or bh, bh ; add cl, byte [rax-0x7D] ; ret ; \x08\xff\x02\x48\x83\xc3 (1 found)
0x140018e9b: or bh, bh ; retn 0x79E8 ; \x08\xff\xc2\xe8\x79 (1 found)
0x14001521c: or bh, bh ; retn 0xF8E8 ; \x08\xff\xc2\xe8\xf8 (1 found)
0x140019e8d: or bl, al ; int3 ; and qword [rdx], 0x0000000000000000 ; mov rax, rcx ; ret ; \x08\xc3\xcc\x48\x83\x22\x00\x48\x8b\xc1\xc3 (1 found)
0x14001ab8e: or bl, al ; mov  [rsp+0x08], ecx ; ldmxcsr  [rsp+0x08] ; ret ; \x08\xc3\x89\x4c\x24\x08\x0f\xae\x54\x24\x08\xc3 (1 found)
0x14001b948: or bl, al ; mov ecx,  [rdx] ; mov  [rax], ecx ; ret ; \x08\xc3\x8b\x0a\x89\x08\xc3 (1 found)
0x14001b91d: or bl, al ; mov ecx,  [rdx] ; movzx r8d, word [rdx+0x04] ; mov  [rax], ecx ; mov word [rax+0x04], r8w ; ret ; \x48\x08\xc3\x8b\x0a\x44\x0f\xb7\x42\x04\x89\x08\x66\x44\x89\x40\x04\xc3 (1 found)
0x14001b91e: or bl, al ; mov ecx,  [rdx] ; movzx r8d, word [rdx+0x04] ; mov  [rax], ecx ; mov word [rax+0x04], r8w ; ret ; \x08\xc3\x8b\x0a\x44\x0f\xb7\x42\x04\x89\x08\x66\x44\x89\x40\x04\xc3 (1 found)
0x14001b910: or bl, al ; mov r8, qword [rdx] ; mov ecx,  [rdx+0x08] ; mov qword [rax], r8 ; mov  [rax+0x08], ecx ; ret ; \x48\x08\xc3\x4c\x8b\x02\x8b\x4a\x08\x4c\x89\x00\x89\x48\x08\xc3 (1 found)
0x14001b911: or bl, al ; mov r8, qword [rdx] ; mov ecx,  [rdx+0x08] ; mov qword [rax], r8 ; mov  [rax+0x08], ecx ; ret ; \x08\xc3\x4c\x8b\x02\x8b\x4a\x08\x4c\x89\x00\x89\x48\x08\xc3 (1 found)
0x14001b902: or bl, al ; mov r8, qword [rdx] ; movzx ecx, byte [rdx+0x08] ; mov qword [rax], r8 ; mov byte [rax+0x08], cl ; ret ; \x48\x08\xc3\x4c\x8b\x02\x0f\xb6\x4a\x08\x4c\x89\x00\x88\x48\x08\xc3 (1 found)
0x14001b903: or bl, al ; mov r8, qword [rdx] ; movzx ecx, byte [rdx+0x08] ; mov qword [rax], r8 ; mov byte [rax+0x08], cl ; ret ; \x08\xc3\x4c\x8b\x02\x0f\xb6\x4a\x08\x4c\x89\x00\x88\x48\x08\xc3 (1 found)
0x14001b942: or bl, al ; movzx ecx, byte [rdx] ; mov byte [rax], cl ; ret ; \x08\xc3\x0f\xb6\x0a\x88\x08\xc3 (1 found)
0x14001ab98: or bl, al ; stmxcsr  [rsp+0x08] ; mov ecx, 0xFFFFFFC0 ; and  [rsp+0x08], ecx ; ldmxcsr  [rsp+0x08] ; ret ; \x08\xc3\x0f\xae\x5c\x24\x08\xb9\xc0\xff\xff\xff\x21\x4c\x24\x08\x0f\xae\x54\x24\x08\xc3 (1 found)
0x140019e03: or byte [0x0000000140009E48], ah ; movzx ecx, r8w ; or eax, ecx ; mov  [rsp+0x08], eax ; ldmxcsr  [rsp+0x08] ; ret ; \x08\x25\x3f\x00\xff\xff\x41\x0f\xb7\xc8\x0b\xc1\x89\x44\x24\x08\x0f\xae\x54\x24\x08\xc3 (1 found)
0x140018e03: or byte [r11+0x48001063], al ; mov  [rbx], eax ; mov rbx, qword [rsp+0x30] ; add rsp, 0x20 ; pop rdi ; ret ; \x43\x08\x83\x63\x10\x00\x48\x89\x03\x48\x8b\x5c\x24\x30\x48\x83\xc4\x20\x5f\xc3 (1 found)
0x140004c7a: or byte [r8-0x73], cl ; add eax, 0x0001975D ; mov qword [rcx], rax ; mov rax, rcx ; ret ; \x41\x08\x48\x8d\x05\x5d\x97\x01\x00\x48\x89\x01\x48\x8b\xc1\xc3 (1 found)
0x1400054cc: or byte [r8], al ; add rsp, 0x20 ; pop rbx ; ret ; \x43\x08\x00\x48\x83\xc4\x20\x5b\xc3 (1 found)
0x140011ea3: or byte [r9-0x76B7EFBF], cl ; sbb al, 0x48 ; mov  [rcx+0x28], eax ; xchg  [rcx+0x14], eax ; ret ; \x41\x08\x89\x41\x10\x48\x89\x41\x1c\x48\x89\x41\x28\x87\x41\x14\xc3 (1 found)
0x14001505d: or byte [rax+0x3B], cl ; fbstp  [rbp-0x11] ; mov rbx, qword [rsp+0x30] ; add rsp, 0x20 ; pop rdi ; ret ; \x08\x48\x3b\xdf\x75\xef\x48\x8b\x5c\x24\x30\x48\x83\xc4\x20\x5f\xc3 (1 found)
0x14000d770: or byte [rax+0x3B], cl ; fbstp  [rbp-0x21] ; mov rbx, qword [rsp+0x30] ; add rsp, 0x20 ; pop rdi ; ret ; \x08\x48\x3b\xdf\x75\xdf\x48\x8b\x5c\x24\x30\x48\x83\xc4\x20\x5f\xc3 (1 found)
0x1400026f3: or byte [rax+0x3B], cl ; fbstp  [rdx-0x17] ; mov rbx, qword [rsp+0x30] ; add rsp, 0x20 ; pop rdi ; ret ; \x08\x48\x3b\xdf\x72\xe9\x48\x8b\x5c\x24\x30\x48\x83\xc4\x20\x5f\xc3 (1 found)
0x14000272f: or byte [rax+0x3B], cl ; fbstp  [rdx-0x17] ; mov rbx, qword [rsp+0x30] ; add rsp, 0x20 ; pop rdi ; ret ; \x08\x48\x3b\xdf\x72\xe9\x48\x8b\x5c\x24\x30\x48\x83\xc4\x20\x5f\xc3 (1 found)
0x140003d19: or byte [rax+rcx*2], al ; add esp, 0x20 ; pop rbx ; ret ; \x08\x04\x48\x83\xc4\x20\x5b\xc3 (1 found)
0x140003d5e: or byte [rax+rcx*2], al ; mov ebx,  [rsp+0x30] ; add rsp, 0x20 ; pop rdi ; ret ; \x08\x04\x48\x8b\x5c\x24\x30\x48\x83\xc4\x20\x5f\xc3 (1 found)
0x140003d18: or byte [rax+rcx*2], r8L ; add esp, 0x20 ; pop rbx ; ret ; \x44\x08\x04\x48\x83\xc4\x20\x5b\xc3 (1 found)
0x14001b937: or byte [rax+rcx*4+0x40], al ; add al, 0xC3 ; mov rcx, qword [rdx] ; mov qword [rax], rcx ; ret ; \x08\x44\x88\x40\x04\xc3\x48\x8b\x0a\x48\x89\x08\xc3 (1 found)
0x14001b891: or byte [rax+rcx*4+0x48], al ; or al, bl ; movzx ecx, word [rdx] ; mov word [rax], cx ; ret ; \x48\x08\x44\x88\x48\x0a\xc3\x0f\xb7\x0a\x66\x89\x08\xc3 (1 found)
0x14001b892: or byte [rax+rcx*4+0x48], al ; or al, bl ; movzx ecx, word [rdx] ; mov word [rax], cx ; ret ; \x08\x44\x88\x48\x0a\xc3\x0f\xb7\x0a\x66\x89\x08\xc3 (1 found)
0x14000fe06: or byte [rax-0x01], cl ; add cl, byte [rdi] ; mov dh, 0xC1 ; ret ; \x08\x48\xff\x02\x0f\xb6\xc1\xc3 (1 found)
0x140001b03: or byte [rax-0x01], cl ; ret ; \x08\x48\xff\xc3 (1 found)
0x140002b81: or byte [rax-0x01], cl ; retn 0xFF49 ; \x08\x48\xff\xc2\x49\xff (1 found)
0x140004c7b: or byte [rax-0x73], cl ; add eax, 0x0001975D ; mov qword [rcx], rax ; mov rax, rcx ; ret ; \x08\x48\x8d\x05\x5d\x97\x01\x00\x48\x89\x01\x48\x8b\xc1\xc3 (1 found)
0x14001ad13: or byte [rax-0x75], cl ; adc byte [r11-0x09EFF3B7], r8L ; retn 0x7404 ; \x08\x48\x8b\x4d\x10\x83\x49\x0c\x10\xf6\xc2\x04\x74 (1 found)
0x14001ad20: or byte [rax-0x75], cl ; adc byte [r11-0x09F7F3B7], r8L ; retn 0x7408 ; \x08\x48\x8b\x4d\x10\x83\x49\x0c\x08\xf6\xc2\x08\x74 (1 found)
0x14001ad2d: or byte [rax-0x75], cl ; adc byte [r11-0x09FBF3B8], r8L ; retn 0x7410 ; \x08\x48\x8b\x45\x10\x83\x48\x0c\x04\xf6\xc2\x10\x74 (1 found)
0x14001ad3a: or byte [rax-0x75], cl ; adc byte [r11-0x09FDF3B8], r8L ; retn 0x7420 ; \x08\x48\x8b\x45\x10\x83\x48\x0c\x02\xf6\xc2\x20\x74 (1 found)
0x14000cc0e: or byte [rax-0x75], cl ; pop rsp ; and al, 0x30 ; add rsp, 0x20 ; pop rdi ; ret ; \x08\x48\x8b\x5c\x24\x30\x48\x83\xc4\x20\x5f\xc3 (1 found)
0x14000cc4e: or byte [rax-0x75], cl ; pop rsp ; and al, 0x30 ; add rsp, 0x20 ; pop rdi ; ret ; \x08\x48\x8b\x5c\x24\x30\x48\x83\xc4\x20\x5f\xc3 (1 found)
0x14000ae83: or byte [rax-0x77], cl ; sbb byte [r8-0x75], cl ; cmp ch, al ; ret ; \x42\x08\x48\x89\x41\x18\x48\x8b\x3a\xe8\xc3 (1 found)
0x14000ae84: or byte [rax-0x77], cl ; sbb byte [r8-0x75], cl ; cmp ch, al ; ret ; \x08\x48\x89\x41\x18\x48\x8b\x3a\xe8\xc3 (1 found)
0x1400030c0: or byte [rax-0x7B], cl ; sal byte [rbp-0x0E], cl ; lea eax,  [rdx+0x01] ; add rsp, 0x20 ; pop rbx ; ret ; \x08\x48\x85\xd2\x75\xf2\x8d\x42\x01\x48\x83\xc4\x20\x5b\xc3 (1 found)
0x1400047c2: or byte [rax-0x7D], cl ; ret ; \x08\x48\x83\xc3 (1 found)
0x1400022b1: or byte [rax-0x7D], cl ; retn 0xEB28 ; \x08\x48\x83\xc2\x28\xeb (1 found)
0x140003374: or byte [rax], al ; add byte [rax], al ; xor al, al ; add rsp, 0x28 ; ret ; \x08\x00\x00\x00\x32\xc0\x48\x83\xc4\x28\xc3 (1 found)
0x140001dee: or byte [rax], al ; add byte [rbp+0x480675C0], al ; add esp, 0x20 ; pop rbx ; ret ; \x08\x00\x00\x85\xc0\x75\x06\x48\x83\xc4\x20\x5b\xc3 (1 found)
0x14001946a: or byte [rax], al ; add byte [rcx-0x3FCCFBBD], cl ; add rsp, 0x20 ; pop rbx ; ret ; \x08\x00\x00\x89\x43\x04\x33\xc0\x48\x83\xc4\x20\x5b\xc3 (1 found)
0x1400054cd: or byte [rax], al ; add rsp, 0x20 ; pop rbx ; ret ; \x08\x00\x48\x83\xc4\x20\x5b\xc3 (1 found)
0x14000ff55: or byte [rax], al ; and qword [rbx], 0x0000000000000000 ; add rsp, 0x20 ; pop rbx ; ret ; \x08\x00\x48\x83\x23\x00\x48\x83\xc4\x20\x5b\xc3 (1 found)
0x140005387: or byte [rax], al ; lea rax, qword [0x000000014001E3C0] ; cmovne rax, qword [rcx+0x08] ; ret ; \x08\x00\x48\x8d\x05\x30\x90\x01\x00\x48\x0f\x45\x41\x08\xc3 (1 found)
0x14001aa20: or byte [rax], al ; or rcx, rax ; mov qword [rsp+0x08], rcx ; movsd xmm0, qword [rsp+0x08] ; ret ; \x08\x00\x48\x0b\xc8\x48\x89\x4c\x24\x08\xf2\x0f\x10\x44\x24\x08\xc3 (1 found)
0x140002d2a: or byte [rbp-0x0F], dh ; mov rax, r8 ; ret ; \x08\x75\xf1\x49\x8b\xc0\xc3 (1 found)
0x140018e04: or byte [rbx+0x48001063], al ; mov  [rbx], eax ; mov rbx, qword [rsp+0x30] ; add rsp, 0x20 ; pop rdi ; ret ; \x08\x83\x63\x10\x00\x48\x89\x03\x48\x8b\x5c\x24\x30\x48\x83\xc4\x20\x5f\xc3 (1 found)
0x140007879: or byte [rbx+rbp-0x40], cl ; sar r8, 1 ; add rax, 0x02 ; mov  [r9+0x48], r8d ; mov qword [r9+0x40], rax ; ret ; \x08\x4c\x2b\xc0\x49\xd1\xf8\x48\x83\xc0\x02\x45\x89\x41\x48\x49\x89\x41\x40\xc3 (1 found)
0x140007939: or byte [rbx+rbp-0x40], cl ; sar r8, 1 ; add rax, 0x02 ; mov  [r9+0x48], r8d ; mov qword [r9+0x40], rax ; ret ; \x08\x4c\x2b\xc0\x49\xd1\xf8\x48\x83\xc0\x02\x45\x89\x41\x48\x49\x89\x41\x40\xc3 (1 found)
0x1400079f9: or byte [rbx+rbp-0x40], cl ; sar r8, 1 ; add rax, 0x02 ; mov  [r9+0x48], r8d ; mov qword [r9+0x40], rax ; ret ; \x08\x4c\x2b\xc0\x49\xd1\xf8\x48\x83\xc0\x02\x45\x89\x41\x48\x49\x89\x41\x40\xc3 (1 found)
0x140007e37: or byte [rbx+rbp-0x40], cl ; sar r8, 1 ; add rax, 0x02 ; mov  [r9+0x48], r8d ; mov qword [r9+0x40], rax ; ret ; \x08\x4c\x2b\xc0\x49\xd1\xf8\x48\x83\xc0\x02\x45\x89\x41\x48\x49\x89\x41\x40\xc3 (1 found)
0x140007efb: or byte [rbx+rbp-0x40], cl ; sar r8, 1 ; add rax, 0x02 ; mov  [r9+0x48], r8d ; mov qword [r9+0x40], rax ; ret ; \x08\x4c\x2b\xc0\x49\xd1\xf8\x48\x83\xc0\x02\x45\x89\x41\x48\x49\x89\x41\x40\xc3 (1 found)
0x140007fbf: or byte [rbx+rbp-0x40], cl ; sar r8, 1 ; add rax, 0x02 ; mov  [r9+0x48], r8d ; mov qword [r9+0x40], rax ; ret ; \x08\x4c\x2b\xc0\x49\xd1\xf8\x48\x83\xc0\x02\x45\x89\x41\x48\x49\x89\x41\x40\xc3 (1 found)
0x140019e7c: or byte [rbx-0x1E7C3F20], al ; aas ; or eax, ecx ; mov  [rsp+0x08], eax ; ldmxcsr  [rsp+0x08] ; ret ; \x08\x83\xe0\xc0\x83\xe1\x3f\x0b\xc1\x89\x44\x24\x08\x0f\xae\x54\x24\x08\xc3 (1 found)
0x14000dcfd: or byte [rbx-0x26160038], al ; add byte [rax], al ; add byte [rbx+rcx*4+0x05], cl ; retn 0x0001 ; \x08\x83\xc8\xff\xe9\xd9\x00\x00\x00\x4c\x8b\x05\xf3\xc2\x01\x00 (1 found)
0x140019c94: or byte [rbx-0x74BBC01E], al ; retn 0xC28B ; \x08\x83\xe2\x3f\x44\x8b\xc2\x8b\xc2 (1 found)
0x1400022a9: or byte [rbx], al ; ror  [rbx+rdi-0x40], 0x72 ; or byte [rax-0x7D], cl ; retn 0xEB28 ; \x42\x08\x03\xc1\x4c\x3b\xc0\x72\x08\x48\x83\xc2\x28\xeb (1 found)
0x1400022aa: or byte [rbx], al ; ror  [rbx+rdi-0x40], 0x72 ; or byte [rax-0x7D], cl ; retn 0xEB28 ; \x08\x03\xc1\x4c\x3b\xc0\x72\x08\x48\x83\xc2\x28\xeb (1 found)
0x140019e3b: or byte [rbx], bl ; rol byte [rbx-0x37F4EF20], 0x8B ; retn 0xE083 ; \x08\x1b\xc0\x83\xe0\x10\x0b\xc8\x8b\xc2\x83\xe0 (1 found)
0x140002d34: or byte [rcx+0x0F], cl ; enter 0x8B48, 0xC1 ; ret ; \x08\x49\x0f\x44\xc8\x48\x8b\xc1\xc3 (1 found)
0x14001b917: or byte [rcx+r9*4+0x00], cl ; mov  [rax+0x08], ecx ; ret ; \x4a\x08\x4c\x89\x00\x89\x48\x08\xc3 (1 found)
0x14001b90a: or byte [rcx+r9*4+0x00], cl ; mov byte [rax+0x08], cl ; ret ; \x4a\x08\x4c\x89\x00\x88\x48\x08\xc3 (1 found)
0x14001b8fb: or byte [rcx+r9*4+0x00], cl ; mov word [rax+0x08], cx ; ret ; \x4a\x08\x4c\x89\x00\x66\x89\x48\x08\xc3 (1 found)
0x14000e28d: or byte [rcx+rax], ah ; ret ; \x08\x24\x01\xc3 (1 found)
0x14001b918: or byte [rcx+rcx*4+0x00], cl ; mov  [rax+0x08], ecx ; ret ; \x08\x4c\x89\x00\x89\x48\x08\xc3 (1 found)
0x14001b90b: or byte [rcx+rcx*4+0x00], cl ; mov byte [rax+0x08], cl ; ret ; \x08\x4c\x89\x00\x88\x48\x08\xc3 (1 found)
0x14001b8fc: or byte [rcx+rcx*4+0x00], cl ; mov word [rax+0x08], cx ; ret ; \x08\x4c\x89\x00\x66\x89\x48\x08\xc3 (1 found)
0x14001ab9e: or byte [rcx-0x00000040], bh ; and  [rsp+0x08], ecx ; ldmxcsr  [rsp+0x08] ; ret ; \x08\xb9\xc0\xff\xff\xff\x21\x4c\x24\x08\x0f\xae\x54\x24\x08\xc3 (1 found)
0x1400030e7: or byte [rcx-0x75], cl ; or al, 0x09 ; movsxd r8, qword [rdx+rcx] ; add r8, r9 ; add rax, r8 ; ret ; \x08\x49\x8b\x0c\x09\x4c\x63\x04\x0a\x4d\x03\xc1\x49\x03\xc0\xc3 (1 found)
0x140010984: or byte [rcx-0x75], cl ; retn 0xE0E9 ; \x08\x49\x8b\xc2\xe9\xe0 (1 found)
0x140011ea4: or byte [rcx-0x76B7EFBF], cl ; sbb al, 0x48 ; mov  [rcx+0x28], eax ; xchg  [rcx+0x14], eax ; ret ; \x08\x89\x41\x10\x48\x89\x41\x1c\x48\x89\x41\x28\x87\x41\x14\xc3 (1 found)
0x14000da99: or byte [rdi+0x01DA840D], al ; add byte [rbx-0x3B7CB73F], cl ; sub bl, al ; int3 ; lea rax, qword [0x000000014002B528] ; ret ; \x08\x87\x0d\x84\xda\x01\x00\x8b\xc1\x48\x83\xc4\x28\xc3\xcc\x48\x8d\x05\x79\xda\x01\x00\xc3 (1 found)
0x14001b8bc: or byte [rdi+r9-0x49], al ; or al, 0x4C ; mov  [rax], eax ; mov  [rax+0x08], ecx ; mov word [rax+0x0C], r9w ; ret ; \x4a\x08\x44\x0f\xb7\x4a\x0c\x4c\x89\x00\x89\x48\x08\x66\x44\x89\x48\x0c\xc3 (1 found)
0x14001b8e4: or byte [rdi+r9-0x4A], al ; or al, 0x4C ; mov  [rax], eax ; mov  [rax+0x08], ecx ; mov byte [rax+0x0C], r9L ; ret ; \x4a\x08\x44\x0f\xb6\x4a\x0c\x4c\x89\x00\x89\x48\x08\x44\x88\x48\x0c\xc3 (1 found)
0x14001b885: or byte [rdi+r9-0x4A], al ; or cl, byte [rcx+r9*4+0x00] ; mov word [rax+0x08], cx ; mov byte [rax+0x0A], r9L ; ret ; \x4a\x08\x44\x0f\xb6\x4a\x0a\x4c\x89\x00\x66\x89\x48\x08\x44\x88\x48\x0a\xc3 (1 found)
0x14001b8bd: or byte [rdi+rcx-0x49], al ; or al, 0x4C ; mov  [rax], eax ; mov  [rax+0x08], ecx ; mov word [rax+0x0C], r9w ; ret ; \x08\x44\x0f\xb7\x4a\x0c\x4c\x89\x00\x89\x48\x08\x66\x44\x89\x48\x0c\xc3 (1 found)
0x14001b8e5: or byte [rdi+rcx-0x4A], al ; or al, 0x4C ; mov  [rax], eax ; mov  [rax+0x08], ecx ; mov byte [rax+0x0C], r9L ; ret ; \x08\x44\x0f\xb6\x4a\x0c\x4c\x89\x00\x89\x48\x08\x44\x88\x48\x0c\xc3 (1 found)
0x14001b886: or byte [rdi+rcx-0x4A], al ; or cl, byte [rcx+r9*4+0x00] ; mov word [rax+0x08], cx ; mov byte [rax+0x0A], r9L ; ret ; \x08\x44\x0f\xb6\x4a\x0a\x4c\x89\x00\x66\x89\x48\x08\x44\x88\x48\x0a\xc3 (1 found)
0x140019e12: or byte [rdi], cl ; scasb ; push rsp ; and al, 0x08 ; ret ; \x08\x0f\xae\x54\x24\x08\xc3 (1 found)
0x140019e88: or byte [rdi], cl ; scasb ; push rsp ; and al, 0x08 ; ret ; \x08\x0f\xae\x54\x24\x08\xc3 (1 found)
0x14001ab93: or byte [rdi], cl ; scasb ; push rsp ; and al, 0x08 ; ret ; \x08\x0f\xae\x54\x24\x08\xc3 (1 found)
0x14001aba7: or byte [rdi], cl ; scasb ; push rsp ; and al, 0x08 ; ret ; \x08\x0f\xae\x54\x24\x08\xc3 (1 found)
0x14001ab83: or byte [rdi], cl ; scasb ; sbb al, 0x24 ; mov eax,  [rsp+0x00] ; add rsp, 0x08 ; ret ; \x08\x0f\xae\x1c\x24\x8b\x04\x24\x48\x83\xc4\x08\xc3 (1 found)
0x140002484: or byte [rdx], al ; add rsp, 0x28 ; ret ; \x08\x02\x48\x83\xc4\x28\xc3 (1 found)
0x140003230: or byte [rsi+0x07], dh ; mov ecx, 0x0000000D ; int 0x29 ; ret ; \x08\x76\x07\xb9\x0d\x00\x00\x00\xcd\x29\xc3 (1 found)
0x14000322f: or byte [rsi+0x07], sil ; mov ecx, 0x0000000D ; int 0x29 ; ret ; \x48\x08\x76\x07\xb9\x0d\x00\x00\x00\xcd\x29\xc3 (1 found)
0x14001b8ad: or byte [rsi+0x44], ah ; mov  [rax+0x04], eax ; mov byte [rax+0x06], r9L ; ret ; \x08\x66\x44\x89\x40\x04\x44\x88\x48\x06\xc3 (1 found)
0x14001b928: or byte [rsi+0x44], ah ; mov  [rax+0x04], eax ; ret ; \x08\x66\x44\x89\x40\x04\xc3 (1 found)
0x14001b875: or byte [rsi+0x44], ah ; mov  [rax+0x0C], ecx ; mov byte [rax+0x0E], r10L ; ret ; \x08\x66\x44\x89\x48\x0c\x44\x88\x50\x0e\xc3 (1 found)
0x14001b8c8: or byte [rsi+0x44], ah ; mov  [rax+0x0C], ecx ; ret ; \x08\x66\x44\x89\x48\x0c\xc3 (1 found)
0x14001b874: or byte [rsi+0x44], spl ; mov  [rax+0x0C], ecx ; mov byte [rax+0x0E], r10L ; ret ; \x48\x08\x66\x44\x89\x48\x0c\x44\x88\x50\x0e\xc3 (1 found)
0x14001b8c7: or byte [rsi+0x44], spl ; mov  [rax+0x0C], ecx ; ret ; \x48\x08\x66\x44\x89\x48\x0c\xc3 (1 found)
0x140010042: or ch, al ; shl cl, 0xFF ; call qword [rax+0x48078B48] ; \x0a\xe8\xc0\xe1\xff\xff\x90\x48\x8b\x07\x48 (1 found)
0x14001b946: or cl, byte [rax+0x0A8BC308] ; mov  [rax], ecx ; ret ; \x0a\x88\x08\xc3\x8b\x0a\x89\x08\xc3 (1 found)
0x140013aab: or cl, byte [rax-0x01] ; retn 0x818A ; \x0a\x48\xff\xc2\x8a\x81 (1 found)
0x14000301e: or cl, byte [rax-0x01] ; rol byte [rcx+rcx*8-0x3FCC0D8B], 0xC3 ; sbb eax, eax ; or eax, 0x01 ; ret ; \x0a\x48\xff\xc0\x84\xc9\x75\xf2\x33\xc0\xc3\x1b\xc0\x83\xc8\x01\xc3 (1 found)
0x14001b93f: or cl, byte [rax-0x77] ; or bl, al ; movzx ecx, byte [rdx] ; mov byte [rax], cl ; ret ; \x0a\x48\x89\x08\xc3\x0f\xb6\x0a\x88\x08\xc3 (1 found)
0x140002b63: or cl, byte [rax-0x7D] ; retn 0x4910 ; \x0a\x48\x83\xc2\x10\x49 (1 found)
0x1400030ef: or cl, byte [rbp+0x03] ; ror  [rcx+0x03], 0xFFFFFFC0 ; ret ; \x0a\x4d\x03\xc1\x49\x03\xc0\xc3 (1 found)
0x14001b88a: or cl, byte [rcx+r9*4+0x00] ; mov word [rax+0x08], cx ; mov byte [rax+0x0A], r9L ; ret ; \x4a\x0a\x4c\x89\x00\x66\x89\x48\x08\x44\x88\x48\x0a\xc3 (1 found)
0x14001b88b: or cl, byte [rcx+rcx*4+0x00] ; mov word [rax+0x08], cx ; mov byte [rax+0x0A], r9L ; ret ; \x0a\x4c\x89\x00\x66\x89\x48\x08\x44\x88\x48\x0a\xc3 (1 found)
0x14000e95c: or cl, byte [rdi] ; test cl, al ; add byte [rax], al ; add byte [rax-0x7D], cl ; retn 0x4802 ; \x0a\x0f\x84\xc1\x00\x00\x00\x48\x83\xc2\x02\x48 (1 found)
0x14001166d: or dh, al ; add ecx,  [0x00000000C8C515BD] ; add ecx,  [rax-0x01] ; ret ; \x08\xc6\x03\x0d\x48\xff\xc3\x88\x03\x48\xff\xc3 (1 found)
0x14001b959: or dh, bl ; movq mm2, qword [rdx+r8-0x10] ; movdqu  [rcx], xmm1 ; movdqu  [rcx+r8-0x10], xmm2 ; ret ; \x0a\xf3\x42\x0f\x6f\x54\x02\xf0\xf3\x0f\x7f\x09\xf3\x42\x0f\x7f\x54\x01\xf0\xc3 (1 found)
0x1400022cc: or dh, byte [rax+0x3206EB01] ; shr bl, 0x02 ; xor al, al ; add rsp, 0x18 ; ret ; \x0a\xb0\x01\xeb\x06\x32\xc0\xeb\x02\x32\xc0\x48\x83\xc4\x18\xc3 (1 found)
0x14001a4e4: or dh, dh ; ret ; \x08\xf6\xc3 (1 found)
0x14001ad28: or dh, dh ; retn 0x7408 ; \x08\xf6\xc2\x08\x74 (1 found)
0x14001abc1: or dh, dl ; cvtps2pi mm1, xmm0 ; cvtsi2sd xmm0, rcx ; ret ; \x0a\xf2\x48\x0f\x2d\xc8\xf2\x48\x0f\x2a\xc1\xc3 (1 found)
0x1400195d8: or dl, dh ; addps xmm0,  [0x0000000140023D28] ; ret ; \x08\xf2\x0f\x58\x05\x47\xa7\x00\x00\xc3 (1 found)
0x14001aa29: or dl, dh ; movups xmm0,  [rsp+0x08] ; ret ; \x08\xf2\x0f\x10\x44\x24\x08\xc3 (1 found)
0x1400198d3: or eax,  [0x0000000140023D60] ; movq xmm0, xmm0 ; nop ; movdqa xmm6,  [rsp+0x20] ; add rsp, 0x58 ; ret ; \x0b\x05\x87\xa4\x00\x00\x66\x48\x0f\x6e\xc0\x66\x90\x66\x0f\x6f\x74\x24\x20\x48\x83\xc4\x58\xc3 (1 found)
0x14000da92: or eax,  [rax] ; add byte [rbx+0x08EBFFC8], al ; xchg  [0x000000014002B524], ecx ; mov eax, ecx ; add rsp, 0x28 ; ret ; \x0b\x00\x00\x83\xc8\xff\xeb\x08\x87\x0d\x84\xda\x01\x00\x8b\xc1\x48\x83\xc4\x28\xc3 (1 found)
0x1400022ee: or eax,  [rbx+rbx*8-0x78B7F88B] ; adc eax, 0x00028DAE ; add rsp, 0x20 ; pop rbx ; ret ; \x0b\x84\xdb\x75\x07\x48\x87\x15\xae\x8d\x02\x00\x48\x83\xc4\x20\x5b\xc3 (1 found)
0x14001b0bc: or eax,  [rdx] ; add byte [rax], al ; cmp word [rdx+0x18], cx ; sete al ; ret ; \x0b\x02\x00\x00\x66\x39\x4a\x18\x0f\x94\xc0\xc3 (1 found)
0x1400159de: or eax, 0x000163E5 ; mov qword [0x000000014002BDD0], rcx ; mov qword [0x000000014002BDD8], rcx ; mov qword [0x000000014002BDE0], rcx ; ret ; \x0d\xe5\x63\x01\x00\x48\x89\x0d\xe6\x63\x01\x00\x48\x89\x0d\xe7\x63\x01\x00\x48\x89\x0d\xe8\x63\x01\x00\xc3 (1 found)
0x1400159e5: or eax, 0x000163E6 ; mov qword [0x000000014002BDD8], rcx ; mov qword [0x000000014002BDE0], rcx ; ret ; \x0d\xe6\x63\x01\x00\x48\x89\x0d\xe7\x63\x01\x00\x48\x89\x0d\xe8\x63\x01\x00\xc3 (1 found)
0x1400159ec: or eax, 0x000163E7 ; mov qword [0x000000014002BDE0], rcx ; ret ; \x0d\xe7\x63\x01\x00\x48\x89\x0d\xe8\x63\x01\x00\xc3 (1 found)
0x1400159f3: or eax, 0x000163E8 ; ret ; \x0d\xe8\x63\x01\x00\xc3 (1 found)
0x1400158e6: or eax, 0x000164D5 ; ret ; \x0d\xd5\x64\x01\x00\xc3 (1 found)
0x14000fc56: or eax, 0x0001A3A5 ; xor eax, eax ; or rcx, 0x01 ; cmp qword [0x000000014002B7A8], rcx ; sete al ; ret ; \x0d\xa5\xa3\x01\x00\x33\xc0\x48\x83\xc9\x01\x48\x39\x0d\x40\xbb\x01\x00\x0f\x94\xc0\xc3 (1 found)
0x14000fc63: or eax, 0x0001BB40 ; sete al ; ret ; \x0d\x40\xbb\x01\x00\x0f\x94\xc0\xc3 (1 found)
0x14000e4f2: or eax, 0x0001D2A1 ; ret ; \x0d\xa1\xd2\x01\x00\xc3 (1 found)
0x14000da9b: or eax, 0x0001DA84 ; mov eax, ecx ; add rsp, 0x28 ; ret ; \x0d\x84\xda\x01\x00\x8b\xc1\x48\x83\xc4\x28\xc3 (1 found)
0x14000cfcf: or eax, 0x0001E2DC ; ret ; \x0d\xdc\xe2\x01\x00\xc3 (1 found)
0x14000cf6e: or eax, 0x0001E33D ; ret ; \x0d\x3d\xe3\x01\x00\xc3 (1 found)
0x14000cf45: or eax, 0x0001E362 ; ret ; \x0d\x62\xe3\x01\x00\xc3 (1 found)
0x14000b9b0: or eax, 0x0001E6CB ; imul rax, rax, 0x58 ; add rax, rcx ; ret ; \x0d\xcb\xe6\x01\x00\x48\x6b\xc0\x58\x48\x03\xc1\xc3 (1 found)
0x140005816: or eax, 0x00025A6D ; ret ; \x0d\x6d\x5a\x02\x00\xc3 (1 found)
0x14000302b: or eax, 0x01 ; ret ; \x83\xc8\x01\xc3 (1 found)
0x14000e1b9: or eax, 0x01 ; ret ; \x83\xc8\x01\xc3 (1 found)
0x140005877: or eax, 0x4800025A ; add esp, 0x28 ; ret ; \x0d\x5a\x02\x00\x48\x83\xc4\x28\xc3 (1 found)
0x1400195d3: or eax, 0x74C23B48 ; or dl, dh ; addps xmm0,  [0x0000000140023D28] ; ret ; \x0d\x48\x3b\xc2\x74\x08\xf2\x0f\x58\x05\x47\xa7\x00\x00\xc3 (1 found)
0x140011670: or eax, 0x88C3FF48 ; add ecx,  [rax-0x01] ; ret ; \x0d\x48\xff\xc3\x88\x03\x48\xff\xc3 (1 found)
0x140012830: or eax, 0x8B480774 ; retn 0x0B88 ; \x0d\x74\x07\x48\x8b\xc2\x88\x0b (1 found)
0x14001b107: or eax, 0xB8000000 ; add  [rax], eax ; add byte [rax], al ; add rsp, 0x28 ; ret ; \x0d\x00\x00\x00\xb8\x01\x00\x00\x00\x48\x83\xc4\x28\xc3 (1 found)
0x14000e6ef: or eax, 0xC3000000 ; add ecx, 0xFFFFFF44 ; mov eax, 0x00000016 ; cmp ecx, 0x0E ; cmovbe eax, r8d ; ret ; \x0d\x00\x00\x00\xc3\x81\xc1\x44\xff\xff\xff\xb8\x16\x00\x00\x00\x83\xf9\x0e\x41\x0f\x46\xc0\xc3 (1 found)
0x140014e9d: or eax, 0xFFFFFFFF ; add rsp, 0x28 ; ret ; \x83\xc8\xff\x48\x83\xc4\x28\xc3 (1 found)
0x140019356: or eax, 0xFFFFFFFF ; add rsp, 0x28 ; ret ; \x83\xc8\xff\x48\x83\xc4\x28\xc3 (1 found)
0x14001116d: or eax, 0xFFFFFFFF ; add rsp, 0x38 ; ret ; \x83\xc8\xff\x48\x83\xc4\x38\xc3 (1 found)
0x140012471: or eax, 0xFFFFFFFF ; add rsp, 0x58 ; ret ; \x83\xc8\xff\x48\x83\xc4\x58\xc3 (1 found)
0x1400155b1: or eax, 0xFFFFFFFF ; lock xadd  [rcx+0x0000015C], eax ; dec eax ; ret ; \x83\xc8\xff\xf0\x0f\xc1\x81\x5c\x01\x00\x00\xff\xc8\xc3 (1 found)
0x140019e9d: or eax, 0xFFFFFFFF ; mov byte [rdx+0x30], 0x01 ; mov  [rdx+0x2C], 0x0000002A ; ret ; \x83\xc8\xff\xc6\x42\x30\x01\xc7\x42\x2c\x2a\x00\x00\x00\xc3 (1 found)
0x14000bf77: or eax, 0xFFFFFFFF ; mov rbx, qword [rsp+0x48] ; add rsp, 0x30 ; pop rdi ; ret ; \x83\xc8\xff\x48\x8b\x5c\x24\x48\x48\x83\xc4\x30\x5f\xc3 (1 found)
0x14000de51: or eax, 0xFFFFFFFF ; ret ; \x83\xc8\xff\xc3 (1 found)
0x140013259: or eax, 0xFFFFFFFF ; ret ; \x83\xc8\xff\xc3 (1 found)
0x14001b7dc: or eax, eax ; movdqu  [rcx+r9-0x30], xmm0 ; movdqu  [rcx+r9-0x20], xmm0 ; movdqu  [rcx+r8-0x10], xmm0 ; movdqu  [rax], xmm0 ; ret ; \x09\xc0\xf3\x42\x0f\x7f\x44\x09\xd0\xf3\x42\x0f\x7f\x44\x09\xe0\xf3\x42\x0f\x7f\x44\x01\xf0\xf3\x0f\x7f\x00\xc3 (1 found)
0x140019cde: or eax, eax ; ret ; \x0b\xc0\xc3 (1 found)
0x14001b702: or eax, eax ; vmovdqu  [rcx+r8-0x20], ymm0 ; vmovdqu  [rax], ymm0 ; sfence ; vzeroupper ; ret ; \x09\xc0\xc4\xa1\x7e\x7f\x44\x01\xe0\xc5\xfe\x7f\x00\x0f\xae\xf8\xc5\xf8\x77\xc3 (1 found)
0x14001b642: or eax, eax ; vmovdqu  [rcx+r8-0x20], ymm0 ; vmovdqu  [rax], ymm0 ; vzeroupper ; ret ; \x09\xc0\xc4\xa1\x7e\x7f\x44\x01\xe0\xc5\xfe\x7f\x00\xc5\xf8\x77\xc3 (1 found)
0x14001bc4d: or eax, eax ; vmovdqu  [rcx+r8-0x20], ymm5 ; vmovdqu  [rax], ymm0 ; sfence ; vzeroupper ; ret ; \x09\xc0\xc4\xa1\x7e\x7f\x6c\x01\xe0\xc5\xfe\x7f\x00\x0f\xae\xf8\xc5\xf8\x77\xc3 (1 found)
0x14001bb1d: or eax, eax ; vmovdqu  [rcx+r8-0x20], ymm5 ; vmovdqu  [rax], ymm0 ; vzeroupper ; ret ; \x09\xc0\xc4\xa1\x7e\x7f\x6c\x01\xe0\xc5\xfe\x7f\x00\xc5\xf8\x77\xc3 (1 found)
0x140019e0d: or eax, ecx ; mov  [rsp+0x08], eax ; ldmxcsr  [rsp+0x08] ; ret ; \x0b\xc1\x89\x44\x24\x08\x0f\xae\x54\x24\x08\xc3 (1 found)
0x140019e83: or eax, ecx ; mov  [rsp+0x08], eax ; ldmxcsr  [rsp+0x08] ; ret ; \x0b\xc1\x89\x44\x24\x08\x0f\xae\x54\x24\x08\xc3 (1 found)
0x140019cd2: or eax, ecx ; or r8d, edx ; mov eax, r8d ; shl eax, 0x18 ; or eax, r8d ; ret ; \x0b\xc1\x44\x0b\xc2\x41\x8b\xc0\xc1\xe0\x18\x41\x0b\xc0\xc3 (1 found)
0x140019c82: or eax, ecx ; shl eax, 0x16 ; or eax, edx ; ret ; \x0b\xc1\xc1\xe0\x16\x0b\xc2\xc3 (1 found)
0x140019cd5: or eax, edx ; mov eax, r8d ; shl eax, 0x18 ; or eax, r8d ; ret ; \x0b\xc2\x41\x8b\xc0\xc1\xe0\x18\x41\x0b\xc0\xc3 (1 found)
0x14001b7e3: or eax, edx ; movdqu  [rcx+r9-0x20], xmm0 ; movdqu  [rcx+r8-0x10], xmm0 ; movdqu  [rax], xmm0 ; ret ; \x09\xd0\xf3\x42\x0f\x7f\x44\x09\xe0\xf3\x42\x0f\x7f\x44\x01\xf0\xf3\x0f\x7f\x00\xc3 (1 found)
0x14001bd9b: or eax, edx ; movdqu xmm1,  [rdx+r9-0x20] ; movdqu  [rcx+r9-0x20], xmm1 ; movdqu  [rcx+r8-0x10], xmm5 ; movdqu  [rax], xmm0 ; ret ; \x09\xd0\xf3\x42\x0f\x6f\x4c\x0a\xe0\xf3\x42\x0f\x7f\x4c\x09\xe0\xf3\x42\x0f\x7f\x6c\x01\xf0\xf3\x0f\x7f\x00\xc3 (1 found)
0x140019c87: or eax, edx ; ret ; \x0b\xc2\xc3 (1 found)
0x14001b7ea: or eax, esp ; movdqu  [rcx+r8-0x10], xmm0 ; movdqu  [rax], xmm0 ; ret ; \x09\xe0\xf3\x42\x0f\x7f\x44\x01\xf0\xf3\x0f\x7f\x00\xc3 (1 found)
0x14001bda9: or eax, esp ; movdqu  [rcx+r8-0x10], xmm5 ; movdqu  [rax], xmm0 ; ret ; \x09\xe0\xf3\x42\x0f\x7f\x6c\x01\xf0\xf3\x0f\x7f\x00\xc3 (1 found)
0x14001b7e2: or eax, r10d ; movdqu  [rcx+r9-0x20], xmm0 ; movdqu  [rcx+r8-0x10], xmm0 ; movdqu  [rax], xmm0 ; ret ; \x44\x09\xd0\xf3\x42\x0f\x7f\x44\x09\xe0\xf3\x42\x0f\x7f\x44\x01\xf0\xf3\x0f\x7f\x00\xc3 (1 found)
0x14001b7e9: or eax, r12d ; movdqu  [rcx+r8-0x10], xmm0 ; movdqu  [rax], xmm0 ; ret ; \x44\x09\xe0\xf3\x42\x0f\x7f\x44\x01\xf0\xf3\x0f\x7f\x00\xc3 (1 found)
0x14001b7db: or eax, r8d ; movdqu  [rcx+r9-0x30], xmm0 ; movdqu  [rcx+r9-0x20], xmm0 ; movdqu  [rcx+r8-0x10], xmm0 ; movdqu  [rax], xmm0 ; ret ; \x44\x09\xc0\xf3\x42\x0f\x7f\x44\x09\xd0\xf3\x42\x0f\x7f\x44\x09\xe0\xf3\x42\x0f\x7f\x44\x01\xf0\xf3\x0f\x7f\x00\xc3 (1 found)
0x140019cdd: or eax, r8d ; ret ; \x41\x0b\xc0\xc3 (1 found)
0x14001b701: or eax, r8d ; vmovdqu  [rcx+r8-0x20], ymm0 ; vmovdqu  [rax], ymm0 ; sfence ; vzeroupper ; ret ; \x44\x09\xc0\xc4\xa1\x7e\x7f\x44\x01\xe0\xc5\xfe\x7f\x00\x0f\xae\xf8\xc5\xf8\x77\xc3 (1 found)
0x14001b641: or eax, r8d ; vmovdqu  [rcx+r8-0x20], ymm0 ; vmovdqu  [rax], ymm0 ; vzeroupper ; ret ; \x44\x09\xc0\xc4\xa1\x7e\x7f\x44\x01\xe0\xc5\xfe\x7f\x00\xc5\xf8\x77\xc3 (1 found)
0x1400134dd: or ebp, eax ; fstenv  [rdx-0x7CB70001] ; ret ; \x0b\xe8\xd9\xb2\xff\xff\x48\x83\xc3 (1 found)
0x140013559: or ebp, eax ; pop rbp ; mov dl, 0xFF ; dec  [rax-0x7D] ; ret ; \x0b\xe8\x5d\xb2\xff\xff\x48\x83\xc3 (1 found)
0x14001b964: or ebx, esi ; movq qword [rcx+r8-0x10], mm2 ; ret ; \x09\xf3\x42\x0f\x7f\x54\x01\xf0\xc3 (1 found)
0x14001b28f: or ecx,  [rax-0x75] ; pop rsp ; and al, 0x30 ; add rsp, 0x20 ; pop rdi ; ret ; \x0b\x48\x8b\x5c\x24\x30\x48\x83\xc4\x20\x5f\xc3 (1 found)
0x140005735: or ecx,  [rax-0x75] ; pop rsp ; and al, 0x60 ; add rsp, 0x50 ; pop rbp ; ret ; \x0b\x48\x8b\x5c\x24\x60\x48\x83\xc4\x50\x5d\xc3 (1 found)
0x14000d7b4: or ecx,  [rax-0x7D] ; ret ; \x0b\x48\x83\xc3 (1 found)
0x140011782: or ecx,  [rax-0x7D] ; ret ; \x0b\x48\x83\xc3 (1 found)
0x14000d7eb: or ecx,  [rbx+0x01E5B605] ; add byte [rax-0x3FCCFE77], dl ; add rsp, 0x28 ; ret ; \x0b\x8b\x05\xb6\xe5\x01\x00\x90\x89\x01\x33\xc0\x48\x83\xc4\x28\xc3 (1 found)
0x14000fc5e: or ecx, 0x01 ; cmp qword [0x000000014002B7A8], rcx ; sete al ; ret ; \x83\xc9\x01\x48\x39\x0d\x40\xbb\x01\x00\x0f\x94\xc0\xc3 (1 found)
0x14001aa23: or ecx, eax ; mov qword [rsp+0x08], rcx ; movsd xmm0, qword [rsp+0x08] ; ret ; \x0b\xc8\x48\x89\x4c\x24\x08\xf2\x0f\x10\x44\x24\x08\xc3 (1 found)
0x14001166a: or edi, edi ; or r14L, r8L ; add ecx,  [0x00000000C8C515BD] ; add ecx,  [rax-0x01] ; ret ; \x09\xff\x47\x08\xc6\x03\x0d\x48\xff\xc3\x88\x03\x48\xff\xc3 (1 found)
0x140002482: or qword [rax], 0x02 ; add rsp, 0x28 ; ret ; \x48\x83\x08\x02\x48\x83\xc4\x28\xc3 (1 found)
0x14001bda1: or r12L, al ; movdqu  [rcx+r9-0x20], xmm1 ; movdqu  [rcx+r8-0x10], xmm5 ; movdqu  [rax], xmm0 ; ret ; \x4c\x0a\xe0\xf3\x42\x0f\x7f\x4c\x09\xe0\xf3\x42\x0f\x7f\x6c\x01\xf0\xf3\x0f\x7f\x00\xc3 (1 found)
0x14001166c: or r14L, r8L ; add ecx,  [0x00000000C8C515BD] ; add ecx,  [rax-0x01] ; ret ; \x47\x08\xc6\x03\x0d\x48\xff\xc3\x88\x03\x48\xff\xc3 (1 found)
0x14001bb15: or r8L, al ; vmovdqu  [rcx+r9-0x40], ymm1 ; vmovdqu  [rcx+r8-0x20], ymm5 ; vmovdqu  [rax], ymm0 ; vzeroupper ; ret ; \x4c\x0a\xc0\xc4\xa1\x7e\x7f\x4c\x09\xc0\xc4\xa1\x7e\x7f\x6c\x01\xe0\xc5\xfe\x7f\x00\xc5\xf8\x77\xc3 (1 found)
0x140019cd1: or r8d, ecx ; or r8d, edx ; mov eax, r8d ; shl eax, 0x18 ; or eax, r8d ; ret ; \x44\x0b\xc1\x44\x0b\xc2\x41\x8b\xc0\xc1\xe0\x18\x41\x0b\xc0\xc3 (1 found)
0x140019cd4: or r8d, edx ; mov eax, r8d ; shl eax, 0x18 ; or eax, r8d ; ret ; \x44\x0b\xc2\x41\x8b\xc0\xc1\xe0\x18\x41\x0b\xc0\xc3 (1 found)
0x14000e1b8: or rax, 0x01 ; ret ; \x48\x83\xc8\x01\xc3 (1 found)
0x140014e9c: or rax, 0xFFFFFFFFFFFFFFFF ; add rsp, 0x28 ; ret ; \x48\x83\xc8\xff\x48\x83\xc4\x28\xc3 (1 found)
0x140019355: or rax, 0xFFFFFFFFFFFFFFFF ; add rsp, 0x28 ; ret ; \x48\x83\xc8\xff\x48\x83\xc4\x28\xc3 (1 found)
0x140019e9c: or rax, 0xFFFFFFFFFFFFFFFF ; mov byte [rdx+0x30], 0x01 ; mov  [rdx+0x2C], 0x0000002A ; ret ; \x48\x83\xc8\xff\xc6\x42\x30\x01\xc7\x42\x2c\x2a\x00\x00\x00\xc3 (1 found)
0x1400198d2: or rax, qword [0x0000000140023D60] ; movq xmm0, xmm0 ; nop ; movdqa xmm6,  [rsp+0x20] ; add rsp, 0x58 ; ret ; \x48\x0b\x05\x87\xa4\x00\x00\x66\x48\x0f\x6e\xc0\x66\x90\x66\x0f\x6f\x74\x24\x20\x48\x83\xc4\x58\xc3 (1 found)
0x14001bd9a: or rax, r10 ; movdqu xmm1,  [rdx+r9-0x20] ; movdqu  [rcx+r9-0x20], xmm1 ; movdqu  [rcx+r8-0x10], xmm5 ; movdqu  [rax], xmm0 ; ret ; \x4c\x09\xd0\xf3\x42\x0f\x6f\x4c\x0a\xe0\xf3\x42\x0f\x7f\x4c\x09\xe0\xf3\x42\x0f\x7f\x6c\x01\xf0\xf3\x0f\x7f\x00\xc3 (1 found)
0x14001bda8: or rax, r12 ; movdqu  [rcx+r8-0x10], xmm5 ; movdqu  [rax], xmm0 ; ret ; \x4c\x09\xe0\xf3\x42\x0f\x7f\x6c\x01\xf0\xf3\x0f\x7f\x00\xc3 (1 found)
0x14001bc4c: or rax, r8 ; vmovdqu  [rcx+r8-0x20], ymm5 ; vmovdqu  [rax], ymm0 ; sfence ; vzeroupper ; ret ; \x4c\x09\xc0\xc4\xa1\x7e\x7f\x6c\x01\xe0\xc5\xfe\x7f\x00\x0f\xae\xf8\xc5\xf8\x77\xc3 (1 found)
0x14001bb1c: or rax, r8 ; vmovdqu  [rcx+r8-0x20], ymm5 ; vmovdqu  [rax], ymm0 ; vzeroupper ; ret ; \x4c\x09\xc0\xc4\xa1\x7e\x7f\x6c\x01\xe0\xc5\xfe\x7f\x00\xc5\xf8\x77\xc3 (1 found)
0x14000fc5d: or rcx, 0x01 ; cmp qword [0x000000014002B7A8], rcx ; sete al ; ret ; \x48\x83\xc9\x01\x48\x39\x0d\x40\xbb\x01\x00\x0f\x94\xc0\xc3 (1 found)
0x14001aa22: or rcx, rax ; mov qword [rsp+0x08], rcx ; movsd xmm0, qword [rsp+0x08] ; ret ; \x48\x0b\xc8\x48\x89\x4c\x24\x08\xf2\x0f\x10\x44\x24\x08\xc3 (1 found)
0x140013402: out 0x33, al ; jmp qword [rsi-0x7D] ; \xe6\x33\xff\x66\x83 (1 found)
0x140005367: out 0x48, eax ; mov eax, edx ; mov rdx, r8 ; jmp rax ; \xe7\x48\x8b\xc2\x49\x8b\xd0\x48\xff\xe0 (1 found)
0x1400159e6: out 0x63, al ; add  [rax], eax ; mov qword [0x000000014002BDD8], rcx ; mov qword [0x000000014002BDE0], rcx ; ret ; \xe6\x63\x01\x00\x48\x89\x0d\xe7\x63\x01\x00\x48\x89\x0d\xe8\x63\x01\x00\xc3 (1 found)
0x1400159ed: out 0x63, eax ; add  [rax], eax ; mov qword [0x000000014002BDE0], rcx ; ret ; \xe7\x63\x01\x00\x48\x89\x0d\xe8\x63\x01\x00\xc3 (1 found)
0x14001764e: out 0xF7, al ; retn 0xF800 ; \xe6\xf7\xc2\x00\xf8 (1 found)
0x140010074: out 0xFF, eax ; call qword [rax-0x2317F475] ; \x44\xe7\xff\xff\x90\x8b\x0b\xe8\xdc (1 found)
0x140010075: out 0xFF, eax ; call qword [rax-0x2317F475] ; \xe7\xff\xff\x90\x8b\x0b\xe8\xdc (1 found)
0x14000216d: out dx, al ; xor al, al ; add rsp, 0x28 ; ret ; \xee\x32\xc0\x48\x83\xc4\x28\xc3 (1 found)
0x140015062: out dx, eax ; mov rbx, qword [rsp+0x30] ; add rsp, 0x20 ; pop rdi ; ret ; \xef\x48\x8b\x5c\x24\x30\x48\x83\xc4\x20\x5f\xc3 (1 found)
0x140002d7d: out dx, eax ; movsxd rax, rcx ; lea rax, qword [r8+rax*2] ; ret ; \xef\x48\x63\xc1\x49\x8d\x04\x40\xc3 (1 found)
0x140014ebb: outsb ; add  [rax], eax ; xor eax, eax ; ret ; \x6e\x01\x00\x33\xc0\xc3 (1 found)
0x14001b491: outsb ; ret ; \x6e\xc3 (1 found)
0x140002ca2: outsb ; retn 0x0FF2 ; \x6e\xc2\xf2\x0f (1 found)
0x1400198dc: outsb ; shl byte [rsi-0x70], 0x66 ; movq mm6, qword [rsp+0x20] ; add rsp, 0x58 ; ret ; \x6e\xc0\x66\x90\x66\x0f\x6f\x74\x24\x20\x48\x83\xc4\x58\xc3 (1 found)
0x140010df2: outsd ; add byte [rax], al ; mov rbx, qword [rsp+0x30] ; add rsp, 0x20 ; pop rdi ; ret ; \x26\x6f\x00\x00\x48\x8b\x5c\x24\x30\x48\x83\xc4\x20\x5f\xc3 (1 found)
0x140010df3: outsd ; add byte [rax], al ; mov rbx, qword [rsp+0x30] ; add rsp, 0x20 ; pop rdi ; ret ; \x6f\x00\x00\x48\x8b\x5c\x24\x30\x48\x83\xc4\x20\x5f\xc3 (1 found)
0x140002d74: outsd ; add byte [rsi+0x0F], ah ; cmp ah, byte [rbx-0x38] ; adc eax, 0x6348EF75 ; ror  [rcx-0x73], 0x04 ; ret ; \x6f\x00\x66\x0f\x3a\x63\xc8\x15\x75\xef\x48\x63\xc1\x49\x8d\x04\x40\xc3 (1 found)
0x140002af4: outsd ; add byte [rsi+0x0F], ah ; outsd ; enter 0x0F66, 0x74 ; ret ; \x6f\x00\x66\x0f\x6f\xc8\x66\x0f\x74\xc3 (1 found)
0x140002af8: outsd ; enter 0x0F66, 0x74 ; ret ; \x6f\xc8\x66\x0f\x74\xc3 (1 found)
0x14001b958: outsd ; or dh, bl ; movq mm2, qword [rdx+r8-0x10] ; movdqu  [rcx], xmm1 ; movdqu  [rcx+r8-0x10], xmm2 ; ret ; \x6f\x0a\xf3\x42\x0f\x6f\x54\x02\xf0\xf3\x0f\x7f\x09\xf3\x42\x0f\x7f\x54\x01\xf0\xc3 (1 found)
0x14001bda0: outsd ; or r12L, al ; movdqu  [rcx+r9-0x20], xmm1 ; movdqu  [rcx+r8-0x10], xmm5 ; movdqu  [rax], xmm0 ; ret ; \x6f\x4c\x0a\xe0\xf3\x42\x0f\x7f\x4c\x09\xe0\xf3\x42\x0f\x7f\x6c\x01\xf0\xf3\x0f\x7f\x00\xc3 (1 found)
0x14001b95d: outsd ; push rsp ; add dh, al ; movdqu  [rcx], xmm1 ; movdqu  [rcx+r8-0x10], xmm2 ; ret ; \x6f\x54\x02\xf0\xf3\x0f\x7f\x09\xf3\x42\x0f\x7f\x54\x01\xf0\xc3 (1 found)
0x14001b379: outsd ; retn 0x0349 ; \x6f\xc2\x49\x03 (1 found)
0x14001b35d: outsd ; retn 0xE0D3 ; \x6f\xc2\xd3\xe0 (1 found)
0x14001be93: pcmpeqb mm0, qword [rbx] ; movups  [rax], xmm2 ; movups  [rcx], xmm0 ; ret ; \x0f\x74\x03\x0f\x11\x10\x0f\x11\x01\xc3 (1 found)
0x140001762: pop qword [0x00000000CB441768] ; ret ; \x8f\x05\x00\x00\x44\x8b\xc3 (1 found)
0x140002169: pop qword [rdx] ; add byte [rbp-0x12], dh ; xor al, al ; add rsp, 0x28 ; ret ; \x8f\x02\x00\x75\xee\x32\xc0\x48\x83\xc4\x28\xc3 (1 found)
0x140015337: pop r12 ; pop rbp ; ret ; \x41\x5c\x5d\xc3 (1 found)
0x140018d73: pop r12 ; pop rbp ; ret ; \x41\x5c\x5d\xc3 (1 found)
0x140019145: pop r12 ; pop rbp ; ret ; \x41\x5c\x5d\xc3 (1 found)
0x1400082cb: pop r12 ; pop rdi ; pop rbp ; ret ; \x41\x5c\x5f\x5d\xc3 (1 found)
0x1400083e7: pop r12 ; pop rdi ; pop rbp ; ret ; \x41\x5c\x5f\x5d\xc3 (1 found)
0x1400162f5: pop r12 ; pop rdi ; pop rsi ; pop rbp ; pop rbx ; ret ; \x41\x5c\x5f\x5e\x5d\x5b\xc3 (1 found)
0x14001a07e: pop r12 ; pop rdi ; pop rsi ; pop rbp ; pop rbx ; ret ; \x41\x5c\x5f\x5e\x5d\x5b\xc3 (1 found)
0x140004167: pop r12 ; pop rdi ; pop rsi ; pop rbp ; ret ; \x41\x5c\x5f\x5e\x5d\xc3 (1 found)
0x1400048a1: pop r12 ; pop rdi ; pop rsi ; pop rbp ; ret ; \x41\x5c\x5f\x5e\x5d\xc3 (1 found)
0x1400063cf: pop r12 ; pop rdi ; pop rsi ; pop rbp ; ret ; \x41\x5c\x5f\x5e\x5d\xc3 (1 found)
0x14000c6ba: pop r12 ; pop rdi ; pop rsi ; pop rbp ; ret ; \x41\x5c\x5f\x5e\x5d\xc3 (1 found)
0x1400115e7: pop r12 ; pop rdi ; pop rsi ; pop rbp ; ret ; \x41\x5c\x5f\x5e\x5d\xc3 (1 found)
0x140012788: pop r12 ; pop rdi ; pop rsi ; pop rbp ; ret ; \x41\x5c\x5f\x5e\x5d\xc3 (1 found)
0x140012fdb: pop r12 ; pop rdi ; pop rsi ; pop rbp ; ret ; \x41\x5c\x5f\x5e\x5d\xc3 (1 found)
0x14001363c: pop r12 ; pop rdi ; pop rsi ; pop rbp ; ret ; \x41\x5c\x5f\x5e\x5d\xc3 (1 found)
0x1400045eb: pop r12 ; pop rdi ; pop rsi ; pop rbx ; pop rbp ; ret ; \x41\x5c\x5f\x5e\x5b\x5d\xc3 (1 found)
0x140005aa7: pop r12 ; pop rdi ; pop rsi ; pop rbx ; pop rbp ; ret ; \x41\x5c\x5f\x5e\x5b\x5d\xc3 (1 found)
0x140011e37: pop r12 ; pop rdi ; pop rsi ; pop rbx ; pop rbp ; ret ; \x41\x5c\x5f\x5e\x5b\x5d\xc3 (1 found)
0x14001756d: pop r12 ; pop rdi ; pop rsi ; pop rbx ; pop rbp ; ret ; \x41\x5c\x5f\x5e\x5b\x5d\xc3 (1 found)
0x140004f40: pop r12 ; pop rdi ; pop rsi ; pop rbx ; ret ; \x41\x5c\x5f\x5e\x5b\xc3 (1 found)
0x140005144: pop r12 ; pop rdi ; pop rsi ; pop rbx ; ret ; \x41\x5c\x5f\x5e\x5b\xc3 (1 found)
0x140003917: pop r12 ; pop rdi ; pop rsi ; ret ; \x41\x5c\x5f\x5e\xc3 (1 found)
0x14000a5de: pop r12 ; pop rdi ; pop rsi ; ret ; \x41\x5c\x5f\x5e\xc3 (1 found)
0x14000a846: pop r12 ; pop rdi ; pop rsi ; ret ; \x41\x5c\x5f\x5e\xc3 (1 found)
0x14000aaae: pop r12 ; pop rdi ; pop rsi ; ret ; \x41\x5c\x5f\x5e\xc3 (1 found)
0x14001197b: pop r12 ; pop rdi ; pop rsi ; ret ; \x41\x5c\x5f\x5e\xc3 (1 found)
0x140012a6d: pop r12 ; pop rdi ; pop rsi ; ret ; \x41\x5c\x5f\x5e\xc3 (1 found)
0x140014314: pop r12 ; pop rdi ; pop rsi ; ret ; \x41\x5c\x5f\x5e\xc3 (1 found)
0x140002fbf: pop r12 ; pop rdi ; ret ; \x41\x5c\x5f\xc3 (1 found)
0x140003531: pop r12 ; pop rdi ; ret ; \x41\x5c\x5f\xc3 (1 found)
0x140003a43: pop r12 ; pop rdi ; ret ; \x41\x5c\x5f\xc3 (1 found)
0x1400052d3: pop r12 ; pop rdi ; ret ; \x41\x5c\x5f\xc3 (1 found)
0x1400098cf: pop r12 ; pop rdi ; ret ; \x41\x5c\x5f\xc3 (1 found)
0x140009d93: pop r12 ; pop rdi ; ret ; \x41\x5c\x5f\xc3 (1 found)
0x14000a1f8: pop r12 ; pop rdi ; ret ; \x41\x5c\x5f\xc3 (1 found)
0x14000ee9b: pop r12 ; pop rdi ; ret ; \x41\x5c\x5f\xc3 (1 found)
0x140010a86: pop r12 ; pop rdi ; ret ; \x41\x5c\x5f\xc3 (1 found)
0x1400136bb: pop r12 ; pop rdi ; ret ; \x41\x5c\x5f\xc3 (1 found)
0x140014873: pop r12 ; pop rdi ; ret ; \x41\x5c\x5f\xc3 (1 found)
0x140015aa9: pop r12 ; pop rdi ; ret ; \x41\x5c\x5f\xc3 (1 found)
0x1400178ae: pop r12 ; pop rdi ; ret ; \x41\x5c\x5f\xc3 (1 found)
0x140011a6a: pop r12 ; pop rsi ; ret ; \x41\x5c\x5e\xc3 (1 found)
0x140017e9b: pop r12 ; pop rsi ; ret ; \x41\x5c\x5e\xc3 (1 found)
0x14000c65b: pop r12 ; ret ; \x41\x5c\xc3 (1 found)
0x14000f617: pop r12 ; ret ; \x41\x5c\xc3 (1 found)
0x140014d6f: pop r12 ; ret ; \x41\x5c\xc3 (1 found)
0x140018372: pop r12 ; ret ; \x41\x5c\xc3 (1 found)
0x14001a3e0: pop r12 ; ret ; \x41\x5c\xc3 (1 found)
0x14001a7c7: pop r12 ; ret ; \x41\x5c\xc3 (1 found)
0x140015335: pop r13 ; pop r12 ; pop rbp ; ret ; \x41\x5d\x41\x5c\x5d\xc3 (1 found)
0x140018d71: pop r13 ; pop r12 ; pop rbp ; ret ; \x41\x5d\x41\x5c\x5d\xc3 (1 found)
0x140019143: pop r13 ; pop r12 ; pop rbp ; ret ; \x41\x5d\x41\x5c\x5d\xc3 (1 found)
0x140004165: pop r13 ; pop r12 ; pop rdi ; pop rsi ; pop rbp ; ret ; \x41\x5d\x41\x5c\x5f\x5e\x5d\xc3 (1 found)
0x14000489f: pop r13 ; pop r12 ; pop rdi ; pop rsi ; pop rbp ; ret ; \x41\x5d\x41\x5c\x5f\x5e\x5d\xc3 (1 found)
0x1400063cd: pop r13 ; pop r12 ; pop rdi ; pop rsi ; pop rbp ; ret ; \x41\x5d\x41\x5c\x5f\x5e\x5d\xc3 (1 found)
0x14000c6b8: pop r13 ; pop r12 ; pop rdi ; pop rsi ; pop rbp ; ret ; \x41\x5d\x41\x5c\x5f\x5e\x5d\xc3 (1 found)
0x1400115e5: pop r13 ; pop r12 ; pop rdi ; pop rsi ; pop rbp ; ret ; \x41\x5d\x41\x5c\x5f\x5e\x5d\xc3 (1 found)
0x140012786: pop r13 ; pop r12 ; pop rdi ; pop rsi ; pop rbp ; ret ; \x41\x5d\x41\x5c\x5f\x5e\x5d\xc3 (1 found)
0x140012fd9: pop r13 ; pop r12 ; pop rdi ; pop rsi ; pop rbp ; ret ; \x41\x5d\x41\x5c\x5f\x5e\x5d\xc3 (1 found)
0x14001363a: pop r13 ; pop r12 ; pop rdi ; pop rsi ; pop rbp ; ret ; \x41\x5d\x41\x5c\x5f\x5e\x5d\xc3 (1 found)
0x140004f3e: pop r13 ; pop r12 ; pop rdi ; pop rsi ; pop rbx ; ret ; \x41\x5d\x41\x5c\x5f\x5e\x5b\xc3 (1 found)
0x140005142: pop r13 ; pop r12 ; pop rdi ; pop rsi ; pop rbx ; ret ; \x41\x5d\x41\x5c\x5f\x5e\x5b\xc3 (1 found)
0x140002fbd: pop r13 ; pop r12 ; pop rdi ; ret ; \x41\x5d\x41\x5c\x5f\xc3 (1 found)
0x14000352f: pop r13 ; pop r12 ; pop rdi ; ret ; \x41\x5d\x41\x5c\x5f\xc3 (1 found)
0x140003a41: pop r13 ; pop r12 ; pop rdi ; ret ; \x41\x5d\x41\x5c\x5f\xc3 (1 found)
0x1400052d1: pop r13 ; pop r12 ; pop rdi ; ret ; \x41\x5d\x41\x5c\x5f\xc3 (1 found)
0x1400098cd: pop r13 ; pop r12 ; pop rdi ; ret ; \x41\x5d\x41\x5c\x5f\xc3 (1 found)
0x140009d91: pop r13 ; pop r12 ; pop rdi ; ret ; \x41\x5d\x41\x5c\x5f\xc3 (1 found)
0x14000a1f6: pop r13 ; pop r12 ; pop rdi ; ret ; \x41\x5d\x41\x5c\x5f\xc3 (1 found)
0x14000ee99: pop r13 ; pop r12 ; pop rdi ; ret ; \x41\x5d\x41\x5c\x5f\xc3 (1 found)
0x140010a84: pop r13 ; pop r12 ; pop rdi ; ret ; \x41\x5d\x41\x5c\x5f\xc3 (1 found)
0x1400136b9: pop r13 ; pop r12 ; pop rdi ; ret ; \x41\x5d\x41\x5c\x5f\xc3 (1 found)
0x140014871: pop r13 ; pop r12 ; pop rdi ; ret ; \x41\x5d\x41\x5c\x5f\xc3 (1 found)
0x140015aa7: pop r13 ; pop r12 ; pop rdi ; ret ; \x41\x5d\x41\x5c\x5f\xc3 (1 found)
0x1400178ac: pop r13 ; pop r12 ; pop rdi ; ret ; \x41\x5d\x41\x5c\x5f\xc3 (1 found)
0x140011a68: pop r13 ; pop r12 ; pop rsi ; ret ; \x41\x5d\x41\x5c\x5e\xc3 (1 found)
0x140017e99: pop r13 ; pop r12 ; pop rsi ; ret ; \x41\x5d\x41\x5c\x5e\xc3 (1 found)
0x14000c659: pop r13 ; pop r12 ; ret ; \x41\x5d\x41\x5c\xc3 (1 found)
0x140003fb7: pop r13 ; ret ; \x41\x5d\xc3 (1 found)
0x14000f021: pop r13 ; ret ; \x41\x5d\xc3 (1 found)
0x140012acb: pop r13 ; ret ; \x41\x5d\xc3 (1 found)
0x1400082c9: pop r14 ; pop r12 ; pop rdi ; pop rbp ; ret ; \x41\x5e\x41\x5c\x5f\x5d\xc3 (1 found)
0x1400083e5: pop r14 ; pop r12 ; pop rdi ; pop rbp ; ret ; \x41\x5e\x41\x5c\x5f\x5d\xc3 (1 found)
0x140003915: pop r14 ; pop r12 ; pop rdi ; pop rsi ; ret ; \x41\x5e\x41\x5c\x5f\x5e\xc3 (1 found)
0x140011979: pop r14 ; pop r12 ; pop rdi ; pop rsi ; ret ; \x41\x5e\x41\x5c\x5f\x5e\xc3 (1 found)
0x140012a6b: pop r14 ; pop r12 ; pop rdi ; pop rsi ; ret ; \x41\x5e\x41\x5c\x5f\x5e\xc3 (1 found)
0x140014312: pop r14 ; pop r12 ; pop rdi ; pop rsi ; ret ; \x41\x5e\x41\x5c\x5f\x5e\xc3 (1 found)
0x14000f615: pop r14 ; pop r12 ; ret ; \x41\x5e\x41\x5c\xc3 (1 found)
0x140014d6d: pop r14 ; pop r12 ; ret ; \x41\x5e\x41\x5c\xc3 (1 found)
0x140018370: pop r14 ; pop r12 ; ret ; \x41\x5e\x41\x5c\xc3 (1 found)
0x14001a3de: pop r14 ; pop r12 ; ret ; \x41\x5e\x41\x5c\xc3 (1 found)
0x14001a7c5: pop r14 ; pop r12 ; ret ; \x41\x5e\x41\x5c\xc3 (1 found)
0x140015333: pop r14 ; pop r13 ; pop r12 ; pop rbp ; ret ; \x41\x5e\x41\x5d\x41\x5c\x5d\xc3 (1 found)
0x140018d6f: pop r14 ; pop r13 ; pop r12 ; pop rbp ; ret ; \x41\x5e\x41\x5d\x41\x5c\x5d\xc3 (1 found)
0x140019141: pop r14 ; pop r13 ; pop r12 ; pop rbp ; ret ; \x41\x5e\x41\x5d\x41\x5c\x5d\xc3 (1 found)
0x140002fbb: pop r14 ; pop r13 ; pop r12 ; pop rdi ; ret ; \x41\x5e\x41\x5d\x41\x5c\x5f\xc3 (1 found)
0x14000352d: pop r14 ; pop r13 ; pop r12 ; pop rdi ; ret ; \x41\x5e\x41\x5d\x41\x5c\x5f\xc3 (1 found)
0x140003a3f: pop r14 ; pop r13 ; pop r12 ; pop rdi ; ret ; \x41\x5e\x41\x5d\x41\x5c\x5f\xc3 (1 found)
0x1400052cf: pop r14 ; pop r13 ; pop r12 ; pop rdi ; ret ; \x41\x5e\x41\x5d\x41\x5c\x5f\xc3 (1 found)
0x1400098cb: pop r14 ; pop r13 ; pop r12 ; pop rdi ; ret ; \x41\x5e\x41\x5d\x41\x5c\x5f\xc3 (1 found)
0x140009d8f: pop r14 ; pop r13 ; pop r12 ; pop rdi ; ret ; \x41\x5e\x41\x5d\x41\x5c\x5f\xc3 (1 found)
0x14000a1f4: pop r14 ; pop r13 ; pop r12 ; pop rdi ; ret ; \x41\x5e\x41\x5d\x41\x5c\x5f\xc3 (1 found)
0x14000ee97: pop r14 ; pop r13 ; pop r12 ; pop rdi ; ret ; \x41\x5e\x41\x5d\x41\x5c\x5f\xc3 (1 found)
0x140010a82: pop r14 ; pop r13 ; pop r12 ; pop rdi ; ret ; \x41\x5e\x41\x5d\x41\x5c\x5f\xc3 (1 found)
0x1400136b7: pop r14 ; pop r13 ; pop r12 ; pop rdi ; ret ; \x41\x5e\x41\x5d\x41\x5c\x5f\xc3 (1 found)
0x14001486f: pop r14 ; pop r13 ; pop r12 ; pop rdi ; ret ; \x41\x5e\x41\x5d\x41\x5c\x5f\xc3 (1 found)
0x140015aa5: pop r14 ; pop r13 ; pop r12 ; pop rdi ; ret ; \x41\x5e\x41\x5d\x41\x5c\x5f\xc3 (1 found)
0x1400178aa: pop r14 ; pop r13 ; pop r12 ; pop rdi ; ret ; \x41\x5e\x41\x5d\x41\x5c\x5f\xc3 (1 found)
0x140011a66: pop r14 ; pop r13 ; pop r12 ; pop rsi ; ret ; \x41\x5e\x41\x5d\x41\x5c\x5e\xc3 (1 found)
0x140017e97: pop r14 ; pop r13 ; pop r12 ; pop rsi ; ret ; \x41\x5e\x41\x5d\x41\x5c\x5e\xc3 (1 found)
0x14000c657: pop r14 ; pop r13 ; pop r12 ; ret ; \x41\x5e\x41\x5d\x41\x5c\xc3 (1 found)
0x140003fb5: pop r14 ; pop r13 ; ret ; \x41\x5e\x41\x5d\xc3 (1 found)
0x14000f01f: pop r14 ; pop r13 ; ret ; \x41\x5e\x41\x5d\xc3 (1 found)
0x140012ac9: pop r14 ; pop r13 ; ret ; \x41\x5e\x41\x5d\xc3 (1 found)
0x14000b87d: pop r14 ; pop rbp ; ret ; \x41\x5e\x5d\xc3 (1 found)
0x140002a09: pop r14 ; pop rdi ; pop rbp ; ret ; \x41\x5e\x5f\x5d\xc3 (1 found)
0x14000e4ea: pop r14 ; pop rdi ; pop rbp ; ret ; \x41\x5e\x5f\x5d\xc3 (1 found)
0x140013f22: pop r14 ; pop rdi ; pop rbp ; ret ; \x41\x5e\x5f\x5d\xc3 (1 found)
0x140001119: pop r14 ; pop rdi ; pop rsi ; pop rbp ; pop rbx ; ret ; \x40\x41\x5e\x5f\x5e\x5d\x5b\xc3 (1 found)
0x14000111a: pop r14 ; pop rdi ; pop rsi ; pop rbp ; pop rbx ; ret ; \x41\x5e\x5f\x5e\x5d\x5b\xc3 (1 found)
0x14000d358: pop r14 ; pop rdi ; pop rsi ; pop rbp ; ret ; \x41\x5e\x5f\x5e\x5d\xc3 (1 found)
0x14000fdf0: pop r14 ; pop rdi ; pop rsi ; pop rbp ; ret ; \x41\x5e\x5f\x5e\x5d\xc3 (1 found)
0x14001aa10: pop r14 ; pop rdi ; pop rsi ; pop rbx ; pop rbp ; ret ; \x41\x5e\x5f\x5e\x5b\x5d\xc3 (1 found)
0x14000bc48: pop r14 ; pop rdi ; pop rsi ; ret ; \x41\x5e\x5f\x5e\xc3 (1 found)
0x14000f9ff: pop r14 ; pop rdi ; pop rsi ; ret ; \x40\x41\x5e\x5f\x5e\xc3 (1 found)
0x14000fa00: pop r14 ; pop rdi ; pop rsi ; ret ; \x41\x5e\x5f\x5e\xc3 (1 found)
0x1400116ed: pop r14 ; pop rdi ; pop rsi ; ret ; \x41\x5e\x5f\x5e\xc3 (1 found)
0x140011808: pop r14 ; pop rdi ; pop rsi ; ret ; \x41\x5e\x5f\x5e\xc3 (1 found)
0x1400188a7: pop r14 ; pop rdi ; pop rsi ; ret ; \x41\x5e\x5f\x5e\xc3 (1 found)
0x14000b379: pop r14 ; pop rdi ; ret ; \x41\x5e\x5f\xc3 (1 found)
0x14000b459: pop r14 ; pop rdi ; ret ; \x41\x5e\x5f\xc3 (1 found)
0x14000d4d4: pop r14 ; pop rdi ; ret ; \x41\x5e\x5f\xc3 (1 found)
0x14000dcd4: pop r14 ; pop rdi ; ret ; \x41\x5e\x5f\xc3 (1 found)
0x14000ddf4: pop r14 ; pop rdi ; ret ; \x41\x5e\x5f\xc3 (1 found)
0x14000f3aa: pop r14 ; pop rdi ; ret ; \x41\x5e\x5f\xc3 (1 found)
0x140017d9a: pop r14 ; pop rdi ; ret ; \x41\x5e\x5f\xc3 (1 found)
0x1400186a3: pop r14 ; pop rdi ; ret ; \x41\x5e\x5f\xc3 (1 found)
0x140004093: pop r14 ; ret ; \x41\x5e\xc3 (1 found)
0x1400049ea: pop r14 ; ret ; \x41\x5e\xc3 (1 found)
0x140004c1e: pop r14 ; ret ; \x41\x5e\xc3 (1 found)
0x1400054aa: pop r14 ; ret ; \x41\x5e\xc3 (1 found)
0x1400065de: pop r14 ; ret ; \x41\x5e\xc3 (1 found)
0x1400067ea: pop r14 ; ret ; \x41\x5e\xc3 (1 found)
0x1400069f6: pop r14 ; ret ; \x41\x5e\xc3 (1 found)
0x140006c02: pop r14 ; ret ; \x41\x5e\xc3 (1 found)
0x140006e0e: pop r14 ; ret ; \x41\x5e\xc3 (1 found)
0x14000701a: pop r14 ; ret ; \x41\x5e\xc3 (1 found)
0x140007226: pop r14 ; ret ; \x41\x5e\xc3 (1 found)
0x140007432: pop r14 ; ret ; \x41\x5e\xc3 (1 found)
0x14000763e: pop r14 ; ret ; \x41\x5e\xc3 (1 found)
0x140008922: pop r14 ; ret ; \x41\x5e\xc3 (1 found)
0x140008bf4: pop r14 ; ret ; \x41\x5e\xc3 (1 found)
0x140008ecb: pop r14 ; ret ; \x41\x5e\xc3 (1 found)
0x14000b9a8: pop r14 ; ret ; \x41\x5e\xc3 (1 found)
0x14000be63: pop r14 ; ret ; \x41\x5e\xc3 (1 found)
0x14000ef99: pop r14 ; ret ; \x41\x5e\xc3 (1 found)
0x14000fc29: pop r14 ; ret ; \x41\x5e\xc3 (1 found)
0x140010726: pop r14 ; ret ; \x41\x5e\xc3 (1 found)
0x140010831: pop r14 ; ret ; \x41\x5e\xc3 (1 found)
0x14001229f: pop r14 ; ret ; \x41\x5e\xc3 (1 found)
0x140013029: pop r14 ; ret ; \x41\x5e\xc3 (1 found)
0x1400148c9: pop r14 ; ret ; \x41\x5e\xc3 (1 found)
0x140014c08: pop r14 ; ret ; \x41\x5e\xc3 (1 found)
0x140014e2b: pop r14 ; ret ; \x41\x5e\xc3 (1 found)
0x14001a4b6: pop r14 ; ret ; \x41\x5e\xc3 (1 found)
0x14001b1f8: pop r14 ; ret ; \x41\x5e\xc3 (1 found)
0x1400082c7: pop r15 ; pop r14 ; pop r12 ; pop rdi ; pop rbp ; ret ; \x41\x5f\x41\x5e\x41\x5c\x5f\x5d\xc3 (1 found)
0x1400083e3: pop r15 ; pop r14 ; pop r12 ; pop rdi ; pop rbp ; ret ; \x41\x5f\x41\x5e\x41\x5c\x5f\x5d\xc3 (1 found)
0x140003913: pop r15 ; pop r14 ; pop r12 ; pop rdi ; pop rsi ; ret ; \x41\x5f\x41\x5e\x41\x5c\x5f\x5e\xc3 (1 found)
0x140011977: pop r15 ; pop r14 ; pop r12 ; pop rdi ; pop rsi ; ret ; \x41\x5f\x41\x5e\x41\x5c\x5f\x5e\xc3 (1 found)
0x140012a69: pop r15 ; pop r14 ; pop r12 ; pop rdi ; pop rsi ; ret ; \x41\x5f\x41\x5e\x41\x5c\x5f\x5e\xc3 (1 found)
0x140014310: pop r15 ; pop r14 ; pop r12 ; pop rdi ; pop rsi ; ret ; \x41\x5f\x41\x5e\x41\x5c\x5f\x5e\xc3 (1 found)
0x14000f613: pop r15 ; pop r14 ; pop r12 ; ret ; \x41\x5f\x41\x5e\x41\x5c\xc3 (1 found)
0x140014d6b: pop r15 ; pop r14 ; pop r12 ; ret ; \x41\x5f\x41\x5e\x41\x5c\xc3 (1 found)
0x14001836d: pop r15 ; pop r14 ; pop r12 ; ret ; \x40\x41\x5f\x41\x5e\x41\x5c\xc3 (1 found)
0x14001836e: pop r15 ; pop r14 ; pop r12 ; ret ; \x41\x5f\x41\x5e\x41\x5c\xc3 (1 found)
0x14001a3dc: pop r15 ; pop r14 ; pop r12 ; ret ; \x41\x5f\x41\x5e\x41\x5c\xc3 (1 found)
0x14001a7c3: pop r15 ; pop r14 ; pop r12 ; ret ; \x41\x5f\x41\x5e\x41\x5c\xc3 (1 found)
0x140015331: pop r15 ; pop r14 ; pop r13 ; pop r12 ; pop rbp ; ret ; \x41\x5f\x41\x5e\x41\x5d\x41\x5c\x5d\xc3 (1 found)
0x140018d6d: pop r15 ; pop r14 ; pop r13 ; pop r12 ; pop rbp ; ret ; \x41\x5f\x41\x5e\x41\x5d\x41\x5c\x5d\xc3 (1 found)
0x14001913f: pop r15 ; pop r14 ; pop r13 ; pop r12 ; pop rbp ; ret ; \x41\x5f\x41\x5e\x41\x5d\x41\x5c\x5d\xc3 (1 found)
0x140002fb9: pop r15 ; pop r14 ; pop r13 ; pop r12 ; pop rdi ; ret ; \x41\x5f\x41\x5e\x41\x5d\x41\x5c\x5f\xc3 (1 found)
0x14000352b: pop r15 ; pop r14 ; pop r13 ; pop r12 ; pop rdi ; ret ; \x41\x5f\x41\x5e\x41\x5d\x41\x5c\x5f\xc3 (1 found)
0x140003a3d: pop r15 ; pop r14 ; pop r13 ; pop r12 ; pop rdi ; ret ; \x41\x5f\x41\x5e\x41\x5d\x41\x5c\x5f\xc3 (1 found)
0x1400052cd: pop r15 ; pop r14 ; pop r13 ; pop r12 ; pop rdi ; ret ; \x41\x5f\x41\x5e\x41\x5d\x41\x5c\x5f\xc3 (1 found)
0x1400098c9: pop r15 ; pop r14 ; pop r13 ; pop r12 ; pop rdi ; ret ; \x41\x5f\x41\x5e\x41\x5d\x41\x5c\x5f\xc3 (1 found)
0x140009d8d: pop r15 ; pop r14 ; pop r13 ; pop r12 ; pop rdi ; ret ; \x41\x5f\x41\x5e\x41\x5d\x41\x5c\x5f\xc3 (1 found)
0x14000a1f2: pop r15 ; pop r14 ; pop r13 ; pop r12 ; pop rdi ; ret ; \x41\x5f\x41\x5e\x41\x5d\x41\x5c\x5f\xc3 (1 found)
0x14000ee95: pop r15 ; pop r14 ; pop r13 ; pop r12 ; pop rdi ; ret ; \x41\x5f\x41\x5e\x41\x5d\x41\x5c\x5f\xc3 (1 found)
0x140010a80: pop r15 ; pop r14 ; pop r13 ; pop r12 ; pop rdi ; ret ; \x41\x5f\x41\x5e\x41\x5d\x41\x5c\x5f\xc3 (1 found)
0x1400136b5: pop r15 ; pop r14 ; pop r13 ; pop r12 ; pop rdi ; ret ; \x41\x5f\x41\x5e\x41\x5d\x41\x5c\x5f\xc3 (1 found)
0x14001486d: pop r15 ; pop r14 ; pop r13 ; pop r12 ; pop rdi ; ret ; \x41\x5f\x41\x5e\x41\x5d\x41\x5c\x5f\xc3 (1 found)
0x140015aa3: pop r15 ; pop r14 ; pop r13 ; pop r12 ; pop rdi ; ret ; \x41\x5f\x41\x5e\x41\x5d\x41\x5c\x5f\xc3 (1 found)
0x1400178a8: pop r15 ; pop r14 ; pop r13 ; pop r12 ; pop rdi ; ret ; \x41\x5f\x41\x5e\x41\x5d\x41\x5c\x5f\xc3 (1 found)
0x140011a64: pop r15 ; pop r14 ; pop r13 ; pop r12 ; pop rsi ; ret ; \x41\x5f\x41\x5e\x41\x5d\x41\x5c\x5e\xc3 (1 found)
0x140017e95: pop r15 ; pop r14 ; pop r13 ; pop r12 ; pop rsi ; ret ; \x41\x5f\x41\x5e\x41\x5d\x41\x5c\x5e\xc3 (1 found)
0x140003fb3: pop r15 ; pop r14 ; pop r13 ; ret ; \x41\x5f\x41\x5e\x41\x5d\xc3 (1 found)
0x14000f01d: pop r15 ; pop r14 ; pop r13 ; ret ; \x41\x5f\x41\x5e\x41\x5d\xc3 (1 found)
0x140012ac7: pop r15 ; pop r14 ; pop r13 ; ret ; \x41\x5f\x41\x5e\x41\x5d\xc3 (1 found)
0x14000b87b: pop r15 ; pop r14 ; pop rbp ; ret ; \x41\x5f\x41\x5e\x5d\xc3 (1 found)
0x14000d356: pop r15 ; pop r14 ; pop rdi ; pop rsi ; pop rbp ; ret ; \x41\x5f\x41\x5e\x5f\x5e\x5d\xc3 (1 found)
0x14000fdee: pop r15 ; pop r14 ; pop rdi ; pop rsi ; pop rbp ; ret ; \x41\x5f\x41\x5e\x5f\x5e\x5d\xc3 (1 found)
0x14000b377: pop r15 ; pop r14 ; pop rdi ; ret ; \x41\x5f\x41\x5e\x5f\xc3 (1 found)
0x14000b457: pop r15 ; pop r14 ; pop rdi ; ret ; \x41\x5f\x41\x5e\x5f\xc3 (1 found)
0x14000d4d2: pop r15 ; pop r14 ; pop rdi ; ret ; \x41\x5f\x41\x5e\x5f\xc3 (1 found)
0x14000dcd2: pop r15 ; pop r14 ; pop rdi ; ret ; \x41\x5f\x41\x5e\x5f\xc3 (1 found)
0x14000ddf2: pop r15 ; pop r14 ; pop rdi ; ret ; \x41\x5f\x41\x5e\x5f\xc3 (1 found)
0x14000f3a8: pop r15 ; pop r14 ; pop rdi ; ret ; \x41\x5f\x41\x5e\x5f\xc3 (1 found)
0x140017d98: pop r15 ; pop r14 ; pop rdi ; ret ; \x41\x5f\x41\x5e\x5f\xc3 (1 found)
0x1400186a1: pop r15 ; pop r14 ; pop rdi ; ret ; \x41\x5f\x41\x5e\x5f\xc3 (1 found)
0x14000c933: pop r15 ; ret ; \x41\x5f\xc3 (1 found)
0x14000d177: pop r15 ; ret ; \x41\x5f\xc3 (1 found)
0x14000f4ff: pop r15 ; ret ; \x41\x5f\xc3 (1 found)
0x140014ac1: pop r15 ; ret ; \x41\x5f\xc3 (1 found)
0x140019761: pop rax ; aad 0xF2 ; addps xmm0, xmm2 ; movdqa xmm6,  [rsp+0x20] ; add rsp, 0x58 ; ret ; \x58\xd5\xf2\x0f\x58\xc2\x66\x0f\x6f\x74\x24\x20\x48\x83\xc4\x58\xc3 (1 found)
0x1400195db: pop rax ; add eax, 0x0000A747 ; ret ; \x58\x05\x47\xa7\x00\x00\xc3 (1 found)
0x14000b9b8: pop rax ; add rax, rcx ; ret ; \x58\x48\x03\xc1\xc3 (1 found)
0x14000f60e: pop rax ; add rsp, 0x20 ; pop r15 ; pop r14 ; pop r12 ; ret ; \x58\x48\x83\xc4\x20\x41\x5f\x41\x5e\x41\x5c\xc3 (1 found)
0x140012ac2: pop rax ; add rsp, 0x20 ; pop r15 ; pop r14 ; pop r13 ; ret ; \x58\x48\x83\xc4\x20\x41\x5f\x41\x5e\x41\x5d\xc3 (1 found)
0x1400065d9: pop rax ; add rsp, 0x30 ; pop r14 ; ret ; \x58\x48\x83\xc4\x30\x41\x5e\xc3 (1 found)
0x1400067e5: pop rax ; add rsp, 0x30 ; pop r14 ; ret ; \x58\x48\x83\xc4\x30\x41\x5e\xc3 (1 found)
0x1400069f1: pop rax ; add rsp, 0x30 ; pop r14 ; ret ; \x58\x48\x83\xc4\x30\x41\x5e\xc3 (1 found)
0x140006bfd: pop rax ; add rsp, 0x30 ; pop r14 ; ret ; \x58\x48\x83\xc4\x30\x41\x5e\xc3 (1 found)
0x140006e09: pop rax ; add rsp, 0x30 ; pop r14 ; ret ; \x58\x48\x83\xc4\x30\x41\x5e\xc3 (1 found)
0x140007015: pop rax ; add rsp, 0x30 ; pop r14 ; ret ; \x58\x48\x83\xc4\x30\x41\x5e\xc3 (1 found)
0x140007221: pop rax ; add rsp, 0x30 ; pop r14 ; ret ; \x58\x48\x83\xc4\x30\x41\x5e\xc3 (1 found)
0x14000742d: pop rax ; add rsp, 0x30 ; pop r14 ; ret ; \x58\x48\x83\xc4\x30\x41\x5e\xc3 (1 found)
0x140007639: pop rax ; add rsp, 0x30 ; pop r14 ; ret ; \x58\x48\x83\xc4\x30\x41\x5e\xc3 (1 found)
0x14000891d: pop rax ; add rsp, 0x30 ; pop r14 ; ret ; \x58\x48\x83\xc4\x30\x41\x5e\xc3 (1 found)
0x140008bef: pop rax ; add rsp, 0x30 ; pop r14 ; ret ; \x58\x48\x83\xc4\x30\x41\x5e\xc3 (1 found)
0x140008ec6: pop rax ; add rsp, 0x30 ; pop r14 ; ret ; \x58\x48\x83\xc4\x30\x41\x5e\xc3 (1 found)
0x14000be5e: pop rax ; add rsp, 0x30 ; pop r14 ; ret ; \x58\x48\x83\xc4\x30\x41\x5e\xc3 (1 found)
0x14000fc24: pop rax ; add rsp, 0x30 ; pop r14 ; ret ; \x58\x48\x83\xc4\x30\x41\x5e\xc3 (1 found)
0x1400148c4: pop rax ; add rsp, 0x30 ; pop r14 ; ret ; \x58\x48\x83\xc4\x30\x41\x5e\xc3 (1 found)
0x14000c92e: pop rax ; add rsp, 0x30 ; pop r15 ; ret ; \x58\x48\x83\xc4\x30\x41\x5f\xc3 (1 found)
0x14000e583: pop rax ; and al, 0x48 ; mov ebx,  [rsp+0x00000080] ; add rsp, 0x70 ; pop rbp ; ret ; \x58\x24\x48\x8b\x9c\x24\x80\x00\x00\x00\x48\x83\xc4\x70\x5d\xc3 (1 found)
0x14000cc0b: pop rax ; and eax, 0x08 ; mov rbx, qword [rsp+0x30] ; add rsp, 0x20 ; pop rdi ; ret ; \x58\x83\xe0\x08\x48\x8b\x5c\x24\x30\x48\x83\xc4\x20\x5f\xc3 (1 found)
0x140003b84: pop rax ; mov rax, rbx ; add rsp, 0x20 ; pop rbx ; ret ; \x58\x48\x8b\xc3\x48\x83\xc4\x20\x5b\xc3 (1 found)
0x140003cb1: pop rax ; mov rbp, qword [rsp+0x60] ; mov rsi, qword [rsp+0x68] ; add rsp, 0x40 ; pop rdi ; ret ; \x58\x48\x8b\x6c\x24\x60\x48\x8b\x74\x24\x68\x48\x83\xc4\x40\x5f\xc3 (1 found)
0x140003bd1: pop rax ; mov rbx, qword [rsp+0x30] ; add rsp, 0x20 ; pop rdi ; ret ; \x58\x48\x8b\x5c\x24\x30\x48\x83\xc4\x20\x5f\xc3 (1 found)
0x140003b83: pop rax ; pop rax ; mov rax, rbx ; add rsp, 0x20 ; pop rbx ; ret ; \x58\x58\x48\x8b\xc3\x48\x83\xc4\x20\x5b\xc3 (1 found)
0x140003bd0: pop rax ; pop rax ; mov rbx, qword [rsp+0x30] ; add rsp, 0x20 ; pop rdi ; ret ; \x58\x58\x48\x8b\x5c\x24\x30\x48\x83\xc4\x20\x5f\xc3 (1 found)
0x140003c34: pop rax ; push 0x20C48348 ; pop rbx ; ret ; \x58\x68\x48\x83\xc4\x20\x5b\xc3 (1 found)
0x140011053: pop rax ; ret ; \x58\xc3 (1 found)
0x140012477: pop rax ; ret ; \x58\xc3 (1 found)
0x140019770: pop rax ; ret ; \x58\xc3 (1 found)
0x14001983a: pop rax ; ret ; \x58\xc3 (1 found)
0x140019845: pop rax ; ret ; \x58\xc3 (1 found)
0x1400198e9: pop rax ; ret ; \x58\xc3 (1 found)
0x140019a2d: pop rax ; ret ; \x58\xc3 (1 found)
0x140019acc: pop rax ; ret ; \x58\xc3 (1 found)
0x140019ad7: pop rax ; ret ; \x58\xc3 (1 found)
0x140019b2f: pop rax ; ret ; \x58\xc3 (1 found)
0x140019b5d: pop rax ; ret ; \x58\xc3 (1 found)
0x140019b99: pop rax ; ret ; \x58\xc3 (1 found)
0x140019765: pop rax ; retn 0x0F66 ; \x58\xc2\x66\x0f (1 found)
0x140019a22: pop rax ; retn 0xF9C5 ; \x58\xc2\xc5\xf9 (1 found)
0x140019ac8: pop rax ; rol ebp, 0xFFFFFFFB ; pop rax ; ret ; \x58\xc1\xc5\xfb\x58\xc3 (1 found)
0x140019836: pop rax ; sal edx, 0x0F ; pop rax ; ret ; \x58\xc1\xf2\x0f\x58\xc3 (1 found)
0x14001355b: pop rbp ; mov dl, 0xFF ; dec  [rax-0x7D] ; ret ; \x5d\xb2\xff\xff\x48\x83\xc3 (1 found)
0x1400047c1: pop rbp ; or byte [rax-0x7D], cl ; ret ; \x5d\x08\x48\x83\xc3 (1 found)
0x140015336: pop rbp ; pop r12 ; pop rbp ; ret ; \x5d\x41\x5c\x5d\xc3 (1 found)
0x140018d72: pop rbp ; pop r12 ; pop rbp ; ret ; \x5d\x41\x5c\x5d\xc3 (1 found)
0x140019144: pop rbp ; pop r12 ; pop rbp ; ret ; \x5d\x41\x5c\x5d\xc3 (1 found)
0x140004166: pop rbp ; pop r12 ; pop rdi ; pop rsi ; pop rbp ; ret ; \x5d\x41\x5c\x5f\x5e\x5d\xc3 (1 found)
0x1400048a0: pop rbp ; pop r12 ; pop rdi ; pop rsi ; pop rbp ; ret ; \x5d\x41\x5c\x5f\x5e\x5d\xc3 (1 found)
0x1400063ce: pop rbp ; pop r12 ; pop rdi ; pop rsi ; pop rbp ; ret ; \x5d\x41\x5c\x5f\x5e\x5d\xc3 (1 found)
0x14000c6b9: pop rbp ; pop r12 ; pop rdi ; pop rsi ; pop rbp ; ret ; \x5d\x41\x5c\x5f\x5e\x5d\xc3 (1 found)
0x1400115e6: pop rbp ; pop r12 ; pop rdi ; pop rsi ; pop rbp ; ret ; \x5d\x41\x5c\x5f\x5e\x5d\xc3 (1 found)
0x140012787: pop rbp ; pop r12 ; pop rdi ; pop rsi ; pop rbp ; ret ; \x5d\x41\x5c\x5f\x5e\x5d\xc3 (1 found)
0x140012fda: pop rbp ; pop r12 ; pop rdi ; pop rsi ; pop rbp ; ret ; \x5d\x41\x5c\x5f\x5e\x5d\xc3 (1 found)
0x14001363b: pop rbp ; pop r12 ; pop rdi ; pop rsi ; pop rbp ; ret ; \x5d\x41\x5c\x5f\x5e\x5d\xc3 (1 found)
0x140004f3f: pop rbp ; pop r12 ; pop rdi ; pop rsi ; pop rbx ; ret ; \x5d\x41\x5c\x5f\x5e\x5b\xc3 (1 found)
0x140005143: pop rbp ; pop r12 ; pop rdi ; pop rsi ; pop rbx ; ret ; \x5d\x41\x5c\x5f\x5e\x5b\xc3 (1 found)
0x140002fbe: pop rbp ; pop r12 ; pop rdi ; ret ; \x5d\x41\x5c\x5f\xc3 (1 found)
0x140003530: pop rbp ; pop r12 ; pop rdi ; ret ; \x5d\x41\x5c\x5f\xc3 (1 found)
0x140003a42: pop rbp ; pop r12 ; pop rdi ; ret ; \x5d\x41\x5c\x5f\xc3 (1 found)
0x1400052d2: pop rbp ; pop r12 ; pop rdi ; ret ; \x5d\x41\x5c\x5f\xc3 (1 found)
0x1400098ce: pop rbp ; pop r12 ; pop rdi ; ret ; \x5d\x41\x5c\x5f\xc3 (1 found)
0x140009d92: pop rbp ; pop r12 ; pop rdi ; ret ; \x5d\x41\x5c\x5f\xc3 (1 found)
0x14000a1f7: pop rbp ; pop r12 ; pop rdi ; ret ; \x5d\x41\x5c\x5f\xc3 (1 found)
0x14000ee9a: pop rbp ; pop r12 ; pop rdi ; ret ; \x5d\x41\x5c\x5f\xc3 (1 found)
0x140010a85: pop rbp ; pop r12 ; pop rdi ; ret ; \x5d\x41\x5c\x5f\xc3 (1 found)
0x1400136ba: pop rbp ; pop r12 ; pop rdi ; ret ; \x5d\x41\x5c\x5f\xc3 (1 found)
0x140014872: pop rbp ; pop r12 ; pop rdi ; ret ; \x5d\x41\x5c\x5f\xc3 (1 found)
0x140015aa8: pop rbp ; pop r12 ; pop rdi ; ret ; \x5d\x41\x5c\x5f\xc3 (1 found)
0x1400178ad: pop rbp ; pop r12 ; pop rdi ; ret ; \x5d\x41\x5c\x5f\xc3 (1 found)
0x140011a69: pop rbp ; pop r12 ; pop rsi ; ret ; \x5d\x41\x5c\x5e\xc3 (1 found)
0x140017e9a: pop rbp ; pop r12 ; pop rsi ; ret ; \x5d\x41\x5c\x5e\xc3 (1 found)
0x14000c65a: pop rbp ; pop r12 ; ret ; \x5d\x41\x5c\xc3 (1 found)
0x14000111e: pop rbp ; pop rbx ; ret ; \x5d\x5b\xc3 (1 found)
0x1400162f9: pop rbp ; pop rbx ; ret ; \x5d\x5b\xc3 (1 found)
0x14001a082: pop rbp ; pop rbx ; ret ; \x5d\x5b\xc3 (1 found)
0x14001bf78: pop rbp ; pop rbx ; ret ; \x5d\x5b\xc3 (1 found)
0x14001c020: pop rbp ; pop rbx ; ret ; \x5d\x5b\xc3 (1 found)
0x14001c0cb: pop rbp ; pop rbx ; ret ; \x5d\x5b\xc3 (1 found)
0x14000242a: pop rbp ; ret ; \x5d\xc3 (1 found)
0x1400025f6: pop rbp ; ret ; \x5d\xc3 (1 found)
0x140002a0c: pop rbp ; ret ; \x5d\xc3 (1 found)
0x140003b51: pop rbp ; ret ; \x5d\xc3 (1 found)
0x140003fb8: pop rbp ; ret ; \x5d\xc3 (1 found)
0x14000416b: pop rbp ; ret ; \x5d\xc3 (1 found)
0x1400045f0: pop rbp ; ret ; \x5d\xc3 (1 found)
0x1400048a5: pop rbp ; ret ; \x5d\xc3 (1 found)
0x14000573f: pop rbp ; ret ; \x5d\xc3 (1 found)
0x140005aac: pop rbp ; ret ; \x5d\xc3 (1 found)
0x1400063d3: pop rbp ; ret ; \x5d\xc3 (1 found)
0x1400082ce: pop rbp ; ret ; \x5d\xc3 (1 found)
0x1400083ea: pop rbp ; ret ; \x5d\xc3 (1 found)
0x14000b582: pop rbp ; ret ; \x5d\xc3 (1 found)
0x14000b6a6: pop rbp ; ret ; \x5d\xc3 (1 found)
0x14000b87f: pop rbp ; ret ; \x5d\xc3 (1 found)
0x14000bcaa: pop rbp ; ret ; \x40\x5d\xc3 (1 found)
0x14000bcab: pop rbp ; ret ; \x5d\xc3 (1 found)
0x14000be0c: pop rbp ; ret ; \x5d\xc3 (1 found)
0x14000c0f6: pop rbp ; ret ; \x5d\xc3 (1 found)
0x14000c6be: pop rbp ; ret ; \x5d\xc3 (1 found)
0x14000cbc3: pop rbp ; ret ; \x5d\xc3 (1 found)
0x14000d35c: pop rbp ; ret ; \x5d\xc3 (1 found)
0x14000deb9: pop rbp ; ret ; \x40\x5d\xc3 (1 found)
0x14000deba: pop rbp ; ret ; \x5d\xc3 (1 found)
0x14000e4ed: pop rbp ; ret ; \x5d\xc3 (1 found)
0x14000e591: pop rbp ; ret ; \x5d\xc3 (1 found)
0x14000f022: pop rbp ; ret ; \x5d\xc3 (1 found)
0x14000fdf4: pop rbp ; ret ; \x5d\xc3 (1 found)
0x140010157: pop rbp ; ret ; \x5d\xc3 (1 found)
0x14001026e: pop rbp ; ret ; \x40\x5d\xc3 (1 found)
0x14001026f: pop rbp ; ret ; \x5d\xc3 (1 found)
0x1400115eb: pop rbp ; ret ; \x5d\xc3 (1 found)
0x140011a16: pop rbp ; ret ; \x5d\xc3 (1 found)
0x140011e3c: pop rbp ; ret ; \x5d\xc3 (1 found)
0x140012512: pop rbp ; ret ; \x5d\xc3 (1 found)
0x14001278c: pop rbp ; ret ; \x5d\xc3 (1 found)
0x140012acc: pop rbp ; ret ; \x5d\xc3 (1 found)
0x140012fdf: pop rbp ; ret ; \x5d\xc3 (1 found)
0x140013252: pop rbp ; ret ; \x5d\xc3 (1 found)
0x140013640: pop rbp ; ret ; \x5d\xc3 (1 found)
0x140013cb5: pop rbp ; ret ; \x5d\xc3 (1 found)
0x140013f25: pop rbp ; ret ; \x5d\xc3 (1 found)
0x140015339: pop rbp ; ret ; \x5d\xc3 (1 found)
0x140017572: pop rbp ; ret ; \x5d\xc3 (1 found)
0x1400180ac: pop rbp ; ret ; \x5d\xc3 (1 found)
0x140018148: pop rbp ; ret ; \x5d\xc3 (1 found)
0x140018d75: pop rbp ; ret ; \x5d\xc3 (1 found)
0x140019147: pop rbp ; ret ; \x5d\xc3 (1 found)
0x14001a24e: pop rbp ; ret ; \x5d\xc3 (1 found)
0x14001aa15: pop rbp ; ret ; \x5d\xc3 (1 found)
0x14001aefe: pop rbp ; ret ; \x5d\xc3 (1 found)
0x14001becb: pop rbp ; ret ; \x5d\xc3 (1 found)
0x14001bee3: pop rbp ; ret ; \x5d\xc3 (1 found)
0x14001c046: pop rbp ; ret ; \x5d\xc3 (1 found)
0x14001c0e2: pop rbp ; ret ; \x5d\xc3 (1 found)
0x14001c105: pop rbp ; ret ; \x5d\xc3 (1 found)
0x14001c14c: pop rbp ; ret ; \x5d\xc3 (1 found)
0x14001c1e5: pop rbp ; ret ; \x5d\xc3 (1 found)
0x14001c462: pop rbp ; ret ; \x5d\xc3 (1 found)
0x14001c4f0: pop rbp ; ret ; \x40\x5d\xc3 (1 found)
0x14001c4f1: pop rbp ; ret ; \x5d\xc3 (1 found)
0x14001c51d: pop rbp ; ret ; \x5d\xc3 (1 found)
0x14001c549: pop rbp ; ret ; \x5d\xc3 (1 found)
0x14001c56d: pop rbp ; ret ; \x5d\xc3 (1 found)
0x1400131c5: pop rbp ; retn 0x0AEB ; \x5d\xc2\xeb\x0a (1 found)
0x140004c7f: pop rbp ; xchg eax, edi ; add  [rax], eax ; mov qword [rcx], rax ; mov rax, rcx ; ret ; \x5d\x97\x01\x00\x48\x89\x01\x48\x8b\xc1\xc3 (1 found)
0x140003bfd: pop rbx ; idiv bh ; dec  [rax-0x75] ; push 0x28C48348 ; ret ; \x5b\xf6\xff\xff\x48\x8b\x40\x68\x48\x83\xc4\x28\xc3 (1 found)
0x1400045ef: pop rbx ; pop rbp ; ret ; \x5b\x5d\xc3 (1 found)
0x140005aab: pop rbx ; pop rbp ; ret ; \x5b\x5d\xc3 (1 found)
0x14000b581: pop rbx ; pop rbp ; ret ; \x5b\x5d\xc3 (1 found)
0x14000b6a5: pop rbx ; pop rbp ; ret ; \x5b\x5d\xc3 (1 found)
0x14000cbc2: pop rbx ; pop rbp ; ret ; \x5b\x5d\xc3 (1 found)
0x140011e3b: pop rbx ; pop rbp ; ret ; \x5b\x5d\xc3 (1 found)
0x140017571: pop rbx ; pop rbp ; ret ; \x5b\x5d\xc3 (1 found)
0x14001aa14: pop rbx ; pop rbp ; ret ; \x5b\x5d\xc3 (1 found)
0x140001052: pop rbx ; ret ; \x5b\xc3 (1 found)
0x14000111f: pop rbx ; ret ; \x5b\xc3 (1 found)
0x140001187: pop rbx ; ret ; \x40\x5b\xc3 (1 found)
0x140001188: pop rbx ; ret ; \x5b\xc3 (1 found)
0x140001df9: pop rbx ; ret ; \x5b\xc3 (1 found)
0x14000213b: pop rbx ; ret ; \x5b\xc3 (1 found)
0x140002236: pop rbx ; ret ; \x5b\xc3 (1 found)
0x1400022fe: pop rbx ; ret ; \x5b\xc3 (1 found)
0x140002327: pop rbx ; ret ; \x5b\xc3 (1 found)
0x140002364: pop rbx ; ret ; \x5b\xc3 (1 found)
0x1400030cd: pop rbx ; ret ; \x5b\xc3 (1 found)
0x1400033e8: pop rbx ; ret ; \x5b\xc3 (1 found)
0x140003421: pop rbx ; ret ; \x5b\xc3 (1 found)
0x140003753: pop rbx ; ret ; \x5b\xc3 (1 found)
0x1400037e4: pop rbx ; ret ; \x5b\xc3 (1 found)
0x140003b8c: pop rbx ; ret ; \x5b\xc3 (1 found)
0x140003c22: pop rbx ; ret ; \x5b\xc3 (1 found)
0x140003c3a: pop rbx ; ret ; \x5b\xc3 (1 found)
0x140003d1f: pop rbx ; ret ; \x5b\xc3 (1 found)
0x140003dcd: pop rbx ; ret ; \x5b\xc3 (1 found)
0x140004c6a: pop rbx ; ret ; \x5b\xc3 (1 found)
0x140004cbc: pop rbx ; ret ; \x5b\xc3 (1 found)
0x140004f44: pop rbx ; ret ; \x5b\xc3 (1 found)
0x140004fc9: pop rbx ; ret ; \x5b\xc3 (1 found)
0x140005148: pop rbx ; ret ; \x5b\xc3 (1 found)
0x1400054d3: pop rbx ; ret ; \x5b\xc3 (1 found)
0x14000567b: pop rbx ; ret ; \x5b\xc3 (1 found)
0x140005811: pop rbx ; ret ; \x5b\xc3 (1 found)
0x14000ba19: pop rbx ; ret ; \x5b\xc3 (1 found)
0x14000c195: pop rbx ; ret ; \x5b\xc3 (1 found)
0x14000c200: pop rbx ; ret ; \x5b\xc3 (1 found)
0x14000d1d7: pop rbx ; ret ; \x5b\xc3 (1 found)
0x14000da6f: pop rbx ; ret ; \x5b\xc3 (1 found)
0x14000df4f: pop rbx ; ret ; \x5b\xc3 (1 found)
0x14000df9a: pop rbx ; ret ; \x5b\xc3 (1 found)
0x14000e0a4: pop rbx ; ret ; \x5b\xc3 (1 found)
0x14000e206: pop rbx ; ret ; \x5b\xc3 (1 found)
0x14000e259: pop rbx ; ret ; \x5b\xc3 (1 found)
0x14000e2d9: pop rbx ; ret ; \x5b\xc3 (1 found)
0x14000e755: pop rbx ; ret ; \x5b\xc3 (1 found)
0x14000e778: pop rbx ; ret ; \x5b\xc3 (1 found)
0x14000e7f6: pop rbx ; ret ; \x5b\xc3 (1 found)
0x14000e854: pop rbx ; ret ; \x5b\xc3 (1 found)
0x14000ea5f: pop rbx ; ret ; \x5b\xc3 (1 found)
0x14000ea97: pop rbx ; ret ; \x5b\xc3 (1 found)
0x14000eacb: pop rbx ; ret ; \x5b\xc3 (1 found)
0x14000eb03: pop rbx ; ret ; \x5b\xc3 (1 found)
0x14000fe57: pop rbx ; ret ; \x5b\xc3 (1 found)
0x14000ff5f: pop rbx ; ret ; \x5b\xc3 (1 found)
0x14001017a: pop rbx ; ret ; \x5b\xc3 (1 found)
0x14001044a: pop rbx ; ret ; \x5b\xc3 (1 found)
0x14001086d: pop rbx ; ret ; \x5b\xc3 (1 found)
0x140010923: pop rbx ; ret ; \x5b\xc3 (1 found)
0x140010b3a: pop rbx ; ret ; \x5b\xc3 (1 found)
0x140010e67: pop rbx ; ret ; \x5b\xc3 (1 found)
0x140010f60: pop rbx ; ret ; \x5b\xc3 (1 found)
0x140011e94: pop rbx ; ret ; \x5b\xc3 (1 found)
0x140013a32: pop rbx ; ret ; \x40\x5b\xc3 (1 found)
0x140013a33: pop rbx ; ret ; \x5b\xc3 (1 found)
0x140014fcc: pop rbx ; ret ; \x5b\xc3 (1 found)
0x14001503a: pop rbx ; ret ; \x5b\xc3 (1 found)
0x14001559d: pop rbx ; ret ; \x5b\xc3 (1 found)
0x140015961: pop rbx ; ret ; \x5b\xc3 (1 found)
0x1400162fa: pop rbx ; ret ; \x5b\xc3 (1 found)
0x14001770c: pop rbx ; ret ; \x40\x5b\xc3 (1 found)
0x14001770d: pop rbx ; ret ; \x5b\xc3 (1 found)
0x140017b22: pop rbx ; ret ; \x5b\xc3 (1 found)
0x140019455: pop rbx ; ret ; \x5b\xc3 (1 found)
0x140019476: pop rbx ; ret ; \x5b\xc3 (1 found)
0x14001951e: pop rbx ; ret ; \x5b\xc3 (1 found)
0x14001a083: pop rbx ; ret ; \x5b\xc3 (1 found)
0x14001a0d7: pop rbx ; ret ; \x40\x5b\xc3 (1 found)
0x14001a0d8: pop rbx ; ret ; \x5b\xc3 (1 found)
0x14001a523: pop rbx ; ret ; \x5b\xc3 (1 found)
0x14001a82f: pop rbx ; ret ; \x5b\xc3 (1 found)
0x14001aaae: pop rbx ; ret ; \x5b\xc3 (1 found)
0x14001af4b: pop rbx ; ret ; \x5b\xc3 (1 found)
0x14001b0f5: pop rbx ; ret ; \x5b\xc3 (1 found)
0x14001bf79: pop rbx ; ret ; \x5b\xc3 (1 found)
0x14001c021: pop rbx ; ret ; \x5b\xc3 (1 found)
0x14001c0cc: pop rbx ; ret ; \x5b\xc3 (1 found)
0x14000cc4b: pop rcx ; and eax, 0x08 ; mov rbx, qword [rsp+0x30] ; add rsp, 0x20 ; pop rdi ; ret ; \x59\x83\xe0\x08\x48\x8b\x5c\x24\x30\x48\x83\xc4\x20\x5f\xc3 (1 found)
0x14001b51c: pop rcx ; clc ; ret ; \x59\xf8\xc3 (1 found)
0x14001b4f6: pop rcx ; cld ; ret ; \x59\xfc\xc3 (1 found)
0x14001b4c9: pop rcx ; cli ; mov word [rcx-0x02], r11w ; ret ; \x59\xfa\x66\x44\x89\x59\xfe\xc3 (1 found)
0x14001b4fb: pop rcx ; cmc ; mov word [rcx-0x03], r11w ; mov byte [rcx-0x01], r11L ; ret ; \x59\xf5\x66\x44\x89\x59\xfd\x44\x88\x59\xff\xc3 (1 found)
0x14001b4f2: pop rcx ; hlt ; mov  [rcx-0x04], r11d ; ret ; \x59\xf4\x44\x89\x59\xfc\xc3 (1 found)
0x14001b517: pop rcx ; inc bl ; mov qword [rcx-0x08], r11 ; ret ; \x59\xfe\xc3\x4c\x89\x59\xf8\xc3 (1 found)
0x14001b504: pop rcx ; inc ebx ; mov qword [rcx-0x09], r11 ; mov byte [rcx-0x01], r11L ; ret ; \x59\xff\xc3\x4c\x89\x59\xf7\x44\x88\x59\xff\xc3 (1 found)
0x14001b50d: pop rcx ; inc ebx ; mov qword [rcx-0x0A], r11 ; mov word [rcx-0x02], r11w ; ret ; \x59\xff\xc3\x4c\x89\x59\xf6\x66\x44\x89\x59\xfe\xc3 (1 found)
0x14001b4c0: pop rcx ; inc ebx ; mov qword [rcx-0x0E], r11 ; mov  [rcx-0x06], r11d ; mov word [rcx-0x02], r11w ; ret ; \x59\xff\xc3\x4c\x89\x59\xf2\x44\x89\x59\xfa\x66\x44\x89\x59\xfe\xc3 (1 found)
0x14001b4ea: pop rcx ; inc ebx ; nop  [rax] ; mov qword [rcx-0x0C], r11 ; mov  [rcx-0x04], r11d ; ret ; \x59\xff\xc3\x0f\x1f\x00\x4c\x89\x59\xf4\x44\x89\x59\xfc\xc3 (1 found)
0x14001b4b3: pop rcx ; int1 ; mov  [rcx-0x07], r11d ; mov word [rcx-0x03], r11w ; mov byte [rcx-0x01], r11L ; ret ; \x59\xf1\x44\x89\x59\xf9\x66\x44\x89\x59\xfd\x44\x88\x59\xff\xc3 (1 found)
0x14001b4e2: pop rcx ; mov  [rcx-0x05], r11d ; mov byte [rcx-0x01], r11L ; ret ; \x59\xf3\x44\x89\x59\xfb\x44\x88\x59\xff\xc3 (1 found)
0x14001b4c5: pop rcx ; mov  [rcx-0x06], r11d ; mov word [rcx-0x02], r11w ; ret ; \x59\xf2\x44\x89\x59\xfa\x66\x44\x89\x59\xfe\xc3 (1 found)
0x1400024aa: pop rcx ; mov word [rdx], es ; add byte [rax], al ; ret ; \x59\x8c\x02\x00\x00\xc3 (1 found)
0x14001b512: pop rcx ; mul byte [rsi+0x44] ; mov  [rcx-0x02], ebx ; ret ; \x59\xf6\x66\x44\x89\x59\xfe\xc3 (1 found)
0x140001003: pop rcx ; pop rsp ; add al, 0x00 ; ret ; \x59\x5c\x04\x00\xc3 (1 found)
0x1400196ef: pop rcx ; retn 0x0F66 ; \x59\xc2\x66\x0f (1 found)
0x140019826: pop rcx ; retn 0x0FF2 ; \x59\xc2\xf2\x0f (1 found)
0x14001b4b7: pop rcx ; stc ; mov word [rcx-0x03], r11w ; mov byte [rcx-0x01], r11L ; ret ; \x59\xf9\x66\x44\x89\x59\xfd\x44\x88\x59\xff\xc3 (1 found)
0x14001b4bc: pop rcx ; std ; mov byte [rcx-0x01], r11L ; ret ; \x59\xfd\x44\x88\x59\xff\xc3 (1 found)
0x14001b500: pop rcx ; std ; mov byte [rcx-0x01], r11L ; ret ; \x59\xfd\x44\x88\x59\xff\xc3 (1 found)
0x14001b4e6: pop rcx ; sti ; mov byte [rcx-0x01], r11L ; ret ; \x59\xfb\x44\x88\x59\xff\xc3 (1 found)
0x14001b509: pop rcx ; test  [rax+rcx*4+0x59], 0x894CC3FF ; pop rcx ; mul byte [rsi+0x44] ; mov  [rcx-0x02], ebx ; ret ; \x59\xf7\x44\x88\x59\xff\xc3\x4c\x89\x59\xf6\x66\x44\x89\x59\xfe\xc3 (1 found)
0x1400082c8: pop rdi ; pop r14 ; pop r12 ; pop rdi ; pop rbp ; ret ; \x5f\x41\x5e\x41\x5c\x5f\x5d\xc3 (1 found)
0x1400083e4: pop rdi ; pop r14 ; pop r12 ; pop rdi ; pop rbp ; ret ; \x5f\x41\x5e\x41\x5c\x5f\x5d\xc3 (1 found)
0x140003914: pop rdi ; pop r14 ; pop r12 ; pop rdi ; pop rsi ; ret ; \x5f\x41\x5e\x41\x5c\x5f\x5e\xc3 (1 found)
0x140011978: pop rdi ; pop r14 ; pop r12 ; pop rdi ; pop rsi ; ret ; \x5f\x41\x5e\x41\x5c\x5f\x5e\xc3 (1 found)
0x140012a6a: pop rdi ; pop r14 ; pop r12 ; pop rdi ; pop rsi ; ret ; \x5f\x41\x5e\x41\x5c\x5f\x5e\xc3 (1 found)
0x140014311: pop rdi ; pop r14 ; pop r12 ; pop rdi ; pop rsi ; ret ; \x5f\x41\x5e\x41\x5c\x5f\x5e\xc3 (1 found)
0x14000f614: pop rdi ; pop r14 ; pop r12 ; ret ; \x5f\x41\x5e\x41\x5c\xc3 (1 found)
0x140014d6c: pop rdi ; pop r14 ; pop r12 ; ret ; \x5f\x41\x5e\x41\x5c\xc3 (1 found)
0x14001836f: pop rdi ; pop r14 ; pop r12 ; ret ; \x5f\x41\x5e\x41\x5c\xc3 (1 found)
0x14001a3dd: pop rdi ; pop r14 ; pop r12 ; ret ; \x5f\x41\x5e\x41\x5c\xc3 (1 found)
0x14001a7c4: pop rdi ; pop r14 ; pop r12 ; ret ; \x5f\x41\x5e\x41\x5c\xc3 (1 found)
0x140015332: pop rdi ; pop r14 ; pop r13 ; pop r12 ; pop rbp ; ret ; \x5f\x41\x5e\x41\x5d\x41\x5c\x5d\xc3 (1 found)
0x140018d6e: pop rdi ; pop r14 ; pop r13 ; pop r12 ; pop rbp ; ret ; \x5f\x41\x5e\x41\x5d\x41\x5c\x5d\xc3 (1 found)
0x140019140: pop rdi ; pop r14 ; pop r13 ; pop r12 ; pop rbp ; ret ; \x5f\x41\x5e\x41\x5d\x41\x5c\x5d\xc3 (1 found)
0x140002fba: pop rdi ; pop r14 ; pop r13 ; pop r12 ; pop rdi ; ret ; \x5f\x41\x5e\x41\x5d\x41\x5c\x5f\xc3 (1 found)
0x14000352c: pop rdi ; pop r14 ; pop r13 ; pop r12 ; pop rdi ; ret ; \x5f\x41\x5e\x41\x5d\x41\x5c\x5f\xc3 (1 found)
0x140003a3e: pop rdi ; pop r14 ; pop r13 ; pop r12 ; pop rdi ; ret ; \x5f\x41\x5e\x41\x5d\x41\x5c\x5f\xc3 (1 found)
0x1400052ce: pop rdi ; pop r14 ; pop r13 ; pop r12 ; pop rdi ; ret ; \x5f\x41\x5e\x41\x5d\x41\x5c\x5f\xc3 (1 found)
0x1400098ca: pop rdi ; pop r14 ; pop r13 ; pop r12 ; pop rdi ; ret ; \x5f\x41\x5e\x41\x5d\x41\x5c\x5f\xc3 (1 found)
0x140009d8e: pop rdi ; pop r14 ; pop r13 ; pop r12 ; pop rdi ; ret ; \x5f\x41\x5e\x41\x5d\x41\x5c\x5f\xc3 (1 found)
0x14000a1f3: pop rdi ; pop r14 ; pop r13 ; pop r12 ; pop rdi ; ret ; \x5f\x41\x5e\x41\x5d\x41\x5c\x5f\xc3 (1 found)
0x14000ee96: pop rdi ; pop r14 ; pop r13 ; pop r12 ; pop rdi ; ret ; \x5f\x41\x5e\x41\x5d\x41\x5c\x5f\xc3 (1 found)
0x140010a81: pop rdi ; pop r14 ; pop r13 ; pop r12 ; pop rdi ; ret ; \x5f\x41\x5e\x41\x5d\x41\x5c\x5f\xc3 (1 found)
0x1400136b6: pop rdi ; pop r14 ; pop r13 ; pop r12 ; pop rdi ; ret ; \x5f\x41\x5e\x41\x5d\x41\x5c\x5f\xc3 (1 found)
0x14001486e: pop rdi ; pop r14 ; pop r13 ; pop r12 ; pop rdi ; ret ; \x5f\x41\x5e\x41\x5d\x41\x5c\x5f\xc3 (1 found)
0x140015aa4: pop rdi ; pop r14 ; pop r13 ; pop r12 ; pop rdi ; ret ; \x5f\x41\x5e\x41\x5d\x41\x5c\x5f\xc3 (1 found)
0x1400178a9: pop rdi ; pop r14 ; pop r13 ; pop r12 ; pop rdi ; ret ; \x5f\x41\x5e\x41\x5d\x41\x5c\x5f\xc3 (1 found)
0x140011a65: pop rdi ; pop r14 ; pop r13 ; pop r12 ; pop rsi ; ret ; \x5f\x41\x5e\x41\x5d\x41\x5c\x5e\xc3 (1 found)
0x140017e96: pop rdi ; pop r14 ; pop r13 ; pop r12 ; pop rsi ; ret ; \x5f\x41\x5e\x41\x5d\x41\x5c\x5e\xc3 (1 found)
0x140003fb4: pop rdi ; pop r14 ; pop r13 ; ret ; \x5f\x41\x5e\x41\x5d\xc3 (1 found)
0x14000f01e: pop rdi ; pop r14 ; pop r13 ; ret ; \x5f\x41\x5e\x41\x5d\xc3 (1 found)
0x140012ac8: pop rdi ; pop r14 ; pop r13 ; ret ; \x5f\x41\x5e\x41\x5d\xc3 (1 found)
0x14000b87c: pop rdi ; pop r14 ; pop rbp ; ret ; \x5f\x41\x5e\x5d\xc3 (1 found)
0x14000d357: pop rdi ; pop r14 ; pop rdi ; pop rsi ; pop rbp ; ret ; \x5f\x41\x5e\x5f\x5e\x5d\xc3 (1 found)
0x14000fdef: pop rdi ; pop r14 ; pop rdi ; pop rsi ; pop rbp ; ret ; \x5f\x41\x5e\x5f\x5e\x5d\xc3 (1 found)
0x14000b378: pop rdi ; pop r14 ; pop rdi ; ret ; \x5f\x41\x5e\x5f\xc3 (1 found)
0x14000b458: pop rdi ; pop r14 ; pop rdi ; ret ; \x5f\x41\x5e\x5f\xc3 (1 found)
0x14000d4d3: pop rdi ; pop r14 ; pop rdi ; ret ; \x5f\x41\x5e\x5f\xc3 (1 found)
0x14000dcd3: pop rdi ; pop r14 ; pop rdi ; ret ; \x5f\x41\x5e\x5f\xc3 (1 found)
0x14000ddf3: pop rdi ; pop r14 ; pop rdi ; ret ; \x5f\x41\x5e\x5f\xc3 (1 found)
0x14000f3a9: pop rdi ; pop r14 ; pop rdi ; ret ; \x5f\x41\x5e\x5f\xc3 (1 found)
0x140017d99: pop rdi ; pop r14 ; pop rdi ; ret ; \x5f\x41\x5e\x5f\xc3 (1 found)
0x1400186a2: pop rdi ; pop r14 ; pop rdi ; ret ; \x5f\x41\x5e\x5f\xc3 (1 found)
0x14001c01e: pop rdi ; pop rbp ; pop rbx ; ret ; \x40\x5f\x5d\x5b\xc3 (1 found)
0x14001c01f: pop rdi ; pop rbp ; pop rbx ; ret ; \x5f\x5d\x5b\xc3 (1 found)
0x140002a0b: pop rdi ; pop rbp ; ret ; \x5f\x5d\xc3 (1 found)
0x1400082cd: pop rdi ; pop rbp ; ret ; \x5f\x5d\xc3 (1 found)
0x1400083e9: pop rdi ; pop rbp ; ret ; \x5f\x5d\xc3 (1 found)
0x14000e4ec: pop rdi ; pop rbp ; ret ; \x5f\x5d\xc3 (1 found)
0x140013f24: pop rdi ; pop rbp ; ret ; \x5f\x5d\xc3 (1 found)
0x14000b580: pop rdi ; pop rbx ; pop rbp ; ret ; \x5f\x5b\x5d\xc3 (1 found)
0x14000b6a4: pop rdi ; pop rbx ; pop rbp ; ret ; \x5f\x5b\x5d\xc3 (1 found)
0x14000cbc1: pop rdi ; pop rbx ; pop rbp ; ret ; \x5f\x5b\x5d\xc3 (1 found)
0x14000111c: pop rdi ; pop rsi ; pop rbp ; pop rbx ; ret ; \x5f\x5e\x5d\x5b\xc3 (1 found)
0x1400162f7: pop rdi ; pop rsi ; pop rbp ; pop rbx ; ret ; \x5f\x5e\x5d\x5b\xc3 (1 found)
0x14001a080: pop rdi ; pop rsi ; pop rbp ; pop rbx ; ret ; \x5f\x5e\x5d\x5b\xc3 (1 found)
0x140004169: pop rdi ; pop rsi ; pop rbp ; ret ; \x5f\x5e\x5d\xc3 (1 found)
0x1400048a3: pop rdi ; pop rsi ; pop rbp ; ret ; \x5f\x5e\x5d\xc3 (1 found)
0x1400063d1: pop rdi ; pop rsi ; pop rbp ; ret ; \x5f\x5e\x5d\xc3 (1 found)
0x14000c6bc: pop rdi ; pop rsi ; pop rbp ; ret ; \x5f\x5e\x5d\xc3 (1 found)
0x14000d35a: pop rdi ; pop rsi ; pop rbp ; ret ; \x5f\x5e\x5d\xc3 (1 found)
0x14000fdf2: pop rdi ; pop rsi ; pop rbp ; ret ; \x5f\x5e\x5d\xc3 (1 found)
0x1400115e9: pop rdi ; pop rsi ; pop rbp ; ret ; \x5f\x5e\x5d\xc3 (1 found)
0x14001278a: pop rdi ; pop rsi ; pop rbp ; ret ; \x5f\x5e\x5d\xc3 (1 found)
0x140012fdd: pop rdi ; pop rsi ; pop rbp ; ret ; \x5f\x5e\x5d\xc3 (1 found)
0x14001363e: pop rdi ; pop rsi ; pop rbp ; ret ; \x5f\x5e\x5d\xc3 (1 found)
0x1400045ed: pop rdi ; pop rsi ; pop rbx ; pop rbp ; ret ; \x5f\x5e\x5b\x5d\xc3 (1 found)
0x140005aa9: pop rdi ; pop rsi ; pop rbx ; pop rbp ; ret ; \x5f\x5e\x5b\x5d\xc3 (1 found)
0x140011e39: pop rdi ; pop rsi ; pop rbx ; pop rbp ; ret ; \x5f\x5e\x5b\x5d\xc3 (1 found)
0x14001756f: pop rdi ; pop rsi ; pop rbx ; pop rbp ; ret ; \x5f\x5e\x5b\x5d\xc3 (1 found)
0x14001aa12: pop rdi ; pop rsi ; pop rbx ; pop rbp ; ret ; \x5f\x5e\x5b\x5d\xc3 (1 found)
0x140001050: pop rdi ; pop rsi ; pop rbx ; ret ; \x5f\x5e\x5b\xc3 (1 found)
0x140002138: pop rdi ; pop rsi ; pop rbx ; ret ; \x40\x5f\x5e\x5b\xc3 (1 found)
0x140002139: pop rdi ; pop rsi ; pop rbx ; ret ; \x5f\x5e\x5b\xc3 (1 found)
0x140004f42: pop rdi ; pop rsi ; pop rbx ; ret ; \x5f\x5e\x5b\xc3 (1 found)
0x140005146: pop rdi ; pop rsi ; pop rbx ; ret ; \x5f\x5e\x5b\xc3 (1 found)
0x140003919: pop rdi ; pop rsi ; ret ; \x5f\x5e\xc3 (1 found)
0x14000a5e0: pop rdi ; pop rsi ; ret ; \x5f\x5e\xc3 (1 found)
0x14000a848: pop rdi ; pop rsi ; ret ; \x5f\x5e\xc3 (1 found)
0x14000aab0: pop rdi ; pop rsi ; ret ; \x5f\x5e\xc3 (1 found)
0x14000bc4a: pop rdi ; pop rsi ; ret ; \x5f\x5e\xc3 (1 found)
0x14000fa02: pop rdi ; pop rsi ; ret ; \x5f\x5e\xc3 (1 found)
0x1400116ef: pop rdi ; pop rsi ; ret ; \x5f\x5e\xc3 (1 found)
0x14001180a: pop rdi ; pop rsi ; ret ; \x5f\x5e\xc3 (1 found)
0x14001197d: pop rdi ; pop rsi ; ret ; \x5f\x5e\xc3 (1 found)
0x140012a6f: pop rdi ; pop rsi ; ret ; \x5f\x5e\xc3 (1 found)
0x140014316: pop rdi ; pop rsi ; ret ; \x5f\x5e\xc3 (1 found)
0x1400188a9: pop rdi ; pop rsi ; ret ; \x5f\x5e\xc3 (1 found)
0x1400010b5: pop rdi ; ret ; \x40\x5f\xc3 (1 found)
0x1400010b6: pop rdi ; ret ; \x5f\xc3 (1 found)
0x14000130b: pop rdi ; ret ; \x40\x5f\xc3 (1 found)
0x14000130c: pop rdi ; ret ; \x5f\xc3 (1 found)
0x140001326: pop rdi ; ret ; \x40\x5f\xc3 (1 found)
0x140001327: pop rdi ; ret ; \x5f\xc3 (1 found)
0x140001f89: pop rdi ; ret ; \x5f\xc3 (1 found)
0x1400026ab: pop rdi ; ret ; \x5f\xc3 (1 found)
0x140002702: pop rdi ; ret ; \x5f\xc3 (1 found)
0x14000273e: pop rdi ; ret ; \x5f\xc3 (1 found)
0x140002fc1: pop rdi ; ret ; \x5f\xc3 (1 found)
0x140003140: pop rdi ; ret ; \x5f\xc3 (1 found)
0x140003335: pop rdi ; ret ; \x5f\xc3 (1 found)
0x140003533: pop rdi ; ret ; \x5f\xc3 (1 found)
0x14000369b: pop rdi ; ret ; \x5f\xc3 (1 found)
0x1400036ff: pop rdi ; ret ; \x5f\xc3 (1 found)
0x1400037b8: pop rdi ; ret ; \x5f\xc3 (1 found)
0x14000384a: pop rdi ; ret ; \x5f\xc3 (1 found)
0x140003a45: pop rdi ; ret ; \x5f\xc3 (1 found)
0x140003bdb: pop rdi ; ret ; \x5f\xc3 (1 found)
0x140003cbf: pop rdi ; ret ; \x40\x5f\xc3 (1 found)
0x140003cc0: pop rdi ; ret ; \x5f\xc3 (1 found)
0x140003d69: pop rdi ; ret ; \x5f\xc3 (1 found)
0x140004d14: pop rdi ; ret ; \x5f\xc3 (1 found)
0x140004d58: pop rdi ; ret ; \x5f\xc3 (1 found)
0x1400051ec: pop rdi ; ret ; \x5f\xc3 (1 found)
0x1400052d5: pop rdi ; ret ; \x5f\xc3 (1 found)
0x140005362: pop rdi ; ret ; \x5f\xc3 (1 found)
0x14000557d: pop rdi ; ret ; \x5f\xc3 (1 found)
0x1400055b6: pop rdi ; ret ; \x5f\xc3 (1 found)
0x1400058cf: pop rdi ; ret ; \x5f\xc3 (1 found)
0x14000590f: pop rdi ; ret ; \x5f\xc3 (1 found)
0x140005b72: pop rdi ; ret ; \x5f\xc3 (1 found)
0x140005c1e: pop rdi ; ret ; \x5f\xc3 (1 found)
0x1400084bf: pop rdi ; ret ; \x5f\xc3 (1 found)
0x140008554: pop rdi ; ret ; \x5f\xc3 (1 found)
0x1400085e4: pop rdi ; ret ; \x5f\xc3 (1 found)
0x140008674: pop rdi ; ret ; \x5f\xc3 (1 found)
0x1400098d1: pop rdi ; ret ; \x5f\xc3 (1 found)
0x140009d95: pop rdi ; ret ; \x5f\xc3 (1 found)
0x14000a1fa: pop rdi ; ret ; \x5f\xc3 (1 found)
0x14000a277: pop rdi ; ret ; \x5f\xc3 (1 found)
0x14000a2f7: pop rdi ; ret ; \x5f\xc3 (1 found)
0x14000a377: pop rdi ; ret ; \x5f\xc3 (1 found)
0x14000ab76: pop rdi ; ret ; \x5f\xc3 (1 found)
0x14000ac3a: pop rdi ; ret ; \x5f\xc3 (1 found)
0x14000acfe: pop rdi ; ret ; \x5f\xc3 (1 found)
0x14000adad: pop rdi ; ret ; \x5f\xc3 (1 found)
0x14000ae65: pop rdi ; ret ; \x5f\xc3 (1 found)
0x14000af1d: pop rdi ; ret ; \x5f\xc3 (1 found)
0x14000afc2: pop rdi ; ret ; \x5f\xc3 (1 found)
0x14000b05e: pop rdi ; ret ; \x5f\xc3 (1 found)
0x14000b0fa: pop rdi ; ret ; \x5f\xc3 (1 found)
0x14000b16d: pop rdi ; ret ; \x5f\xc3 (1 found)
0x14000b1e1: pop rdi ; ret ; \x5f\xc3 (1 found)
0x14000b255: pop rdi ; ret ; \x5f\xc3 (1 found)
0x14000b2d4: pop rdi ; ret ; \x5f\xc3 (1 found)
0x14000b37b: pop rdi ; ret ; \x5f\xc3 (1 found)
0x14000b45b: pop rdi ; ret ; \x5f\xc3 (1 found)
0x14000bacd: pop rdi ; ret ; \x5f\xc3 (1 found)
0x14000bb6a: pop rdi ; ret ; \x5f\xc3 (1 found)
0x14000bd3a: pop rdi ; ret ; \x5f\xc3 (1 found)
0x14000bf3a: pop rdi ; ret ; \x5f\xc3 (1 found)
0x14000bf83: pop rdi ; ret ; \x5f\xc3 (1 found)
0x14000c05b: pop rdi ; ret ; \x5f\xc3 (1 found)
0x14000c162: pop rdi ; ret ; \x5f\xc3 (1 found)
0x14000c934: pop rdi ; ret ; \x5f\xc3 (1 found)
0x14000c9a3: pop rdi ; ret ; \x5f\xc3 (1 found)
0x14000ca8d: pop rdi ; ret ; \x5f\xc3 (1 found)
0x14000cc18: pop rdi ; ret ; \x5f\xc3 (1 found)
0x14000cc58: pop rdi ; ret ; \x5f\xc3 (1 found)
0x14000cc77: pop rdi ; ret ; \x5f\xc3 (1 found)
0x14000cc84: pop rdi ; ret ; \x5f\xc3 (1 found)
0x14000cd08: pop rdi ; ret ; \x5f\xc3 (1 found)
0x14000ce15: pop rdi ; ret ; \x5f\xc3 (1 found)
0x14000d178: pop rdi ; ret ; \x5f\xc3 (1 found)
0x14000d3cc: pop rdi ; ret ; \x5f\xc3 (1 found)
0x14000d4d6: pop rdi ; ret ; \x5f\xc3 (1 found)
0x14000d52b: pop rdi ; ret ; \x5f\xc3 (1 found)
0x14000d56f: pop rdi ; ret ; \x5f\xc3 (1 found)
0x14000d5ac: pop rdi ; ret ; \x5f\xc3 (1 found)
0x14000d77f: pop rdi ; ret ; \x5f\xc3 (1 found)
0x14000d7c9: pop rdi ; ret ; \x5f\xc3 (1 found)
0x14000d9c8: pop rdi ; ret ; \x5f\xc3 (1 found)
0x14000dae9: pop rdi ; ret ; \x5f\xc3 (1 found)
0x14000db25: pop rdi ; ret ; \x5f\xc3 (1 found)
0x14000dcd6: pop rdi ; ret ; \x5f\xc3 (1 found)
0x14000ddf6: pop rdi ; ret ; \x5f\xc3 (1 found)
0x14000e344: pop rdi ; ret ; \x5f\xc3 (1 found)
0x14000e392: pop rdi ; ret ; \x5f\xc3 (1 found)
0x14000e608: pop rdi ; ret ; \x5f\xc3 (1 found)
0x14000ee9d: pop rdi ; ret ; \x5f\xc3 (1 found)
0x14000f253: pop rdi ; ret ; \x5f\xc3 (1 found)
0x14000f3ac: pop rdi ; ret ; \x5f\xc3 (1 found)
0x14000f500: pop rdi ; ret ; \x5f\xc3 (1 found)
0x14000f8e9: pop rdi ; ret ; \x5f\xc3 (1 found)
0x14000ff21: pop rdi ; ret ; \x5f\xc3 (1 found)
0x14000ffa1: pop rdi ; ret ; \x5f\xc3 (1 found)
0x14000ffdf: pop rdi ; ret ; \x5f\xc3 (1 found)
0x140010027: pop rdi ; ret ; \x5f\xc3 (1 found)
0x140010089: pop rdi ; ret ; \x5f\xc3 (1 found)
0x1400102d9: pop rdi ; ret ; \x5f\xc3 (1 found)
0x1400103a7: pop rdi ; ret ; \x5f\xc3 (1 found)
0x14001051a: pop rdi ; ret ; \x5f\xc3 (1 found)
0x1400105d8: pop rdi ; ret ; \x5f\xc3 (1 found)
0x1400108ae: pop rdi ; ret ; \x5f\xc3 (1 found)
0x140010a88: pop rdi ; ret ; \x5f\xc3 (1 found)
0x140010c26: pop rdi ; ret ; \x5f\xc3 (1 found)
0x140010cb6: pop rdi ; ret ; \x5f\xc3 (1 found)
0x140010da2: pop rdi ; ret ; \x5f\xc3 (1 found)
0x140010dff: pop rdi ; ret ; \x5f\xc3 (1 found)
0x140010f1c: pop rdi ; ret ; \x5f\xc3 (1 found)
0x1400110e1: pop rdi ; ret ; \x5f\xc3 (1 found)
0x140011f9d: pop rdi ; ret ; \x5f\xc3 (1 found)
0x14001233e: pop rdi ; ret ; \x5f\xc3 (1 found)
0x1400123b5: pop rdi ; ret ; \x5f\xc3 (1 found)
0x1400125df: pop rdi ; ret ; \x5f\xc3 (1 found)
0x1400136bd: pop rdi ; ret ; \x5f\xc3 (1 found)
0x1400139b3: pop rdi ; ret ; \x40\x5f\xc3 (1 found)
0x1400139b4: pop rdi ; ret ; \x5f\xc3 (1 found)
0x140013ace: pop rdi ; ret ; \x5f\xc3 (1 found)
0x140013fd8: pop rdi ; ret ; \x5f\xc3 (1 found)
0x140014526: pop rdi ; ret ; \x5f\xc3 (1 found)
0x140014875: pop rdi ; ret ; \x5f\xc3 (1 found)
0x140014a27: pop rdi ; ret ; \x5f\xc3 (1 found)
0x140014a7a: pop rdi ; ret ; \x5f\xc3 (1 found)
0x140014ac2: pop rdi ; ret ; \x5f\xc3 (1 found)
0x14001506c: pop rdi ; ret ; \x5f\xc3 (1 found)
0x1400156d6: pop rdi ; ret ; \x5f\xc3 (1 found)
0x140015743: pop rdi ; ret ; \x5f\xc3 (1 found)
0x1400157db: pop rdi ; ret ; \x5f\xc3 (1 found)
0x14001589a: pop rdi ; ret ; \x5f\xc3 (1 found)
0x1400158e0: pop rdi ; ret ; \x5f\xc3 (1 found)
0x140015928: pop rdi ; ret ; \x5f\xc3 (1 found)
0x1400159aa: pop rdi ; ret ; \x5f\xc3 (1 found)
0x140015aab: pop rdi ; ret ; \x5f\xc3 (1 found)
0x140015d46: pop rdi ; ret ; \x5f\xc3 (1 found)
0x140015e56: pop rdi ; ret ; \x5f\xc3 (1 found)
0x140017611: pop rdi ; ret ; \x5f\xc3 (1 found)
0x1400178b0: pop rdi ; ret ; \x5f\xc3 (1 found)
0x1400179a9: pop rdi ; ret ; \x5f\xc3 (1 found)
0x140017aa5: pop rdi ; ret ; \x5f\xc3 (1 found)
0x140017bed: pop rdi ; ret ; \x5f\xc3 (1 found)
0x140017cba: pop rdi ; ret ; \x5f\xc3 (1 found)
0x140017d9c: pop rdi ; ret ; \x5f\xc3 (1 found)
0x140017e45: pop rdi ; ret ; \x5f\xc3 (1 found)
0x14001800f: pop rdi ; ret ; \x5f\xc3 (1 found)
0x1400183ab: pop rdi ; ret ; \x5f\xc3 (1 found)
0x1400186a5: pop rdi ; ret ; \x5f\xc3 (1 found)
0x140018983: pop rdi ; ret ; \x5f\xc3 (1 found)
0x140018e15: pop rdi ; ret ; \x5f\xc3 (1 found)
0x1400191e0: pop rdi ; ret ; \x5f\xc3 (1 found)
0x14001933a: pop rdi ; ret ; \x5f\xc3 (1 found)
0x1400193bf: pop rdi ; ret ; \x5f\xc3 (1 found)
0x1400194ce: pop rdi ; ret ; \x5f\xc3 (1 found)
0x14001a1b3: pop rdi ; ret ; \x40\x5f\xc3 (1 found)
0x14001a1b4: pop rdi ; ret ; \x5f\xc3 (1 found)
0x14001a8ec: pop rdi ; ret ; \x5f\xc3 (1 found)
0x14001afca: pop rdi ; ret ; \x5f\xc3 (1 found)
0x14001b09b: pop rdi ; ret ; \x5f\xc3 (1 found)
0x14001b299: pop rdi ; ret ; \x5f\xc3 (1 found)
0x14001b46e: pop rdi ; ret ; \x5f\xc3 (1 found)
0x14001b82e: pop rdi ; ret ; \x5f\xc3 (1 found)
0x14000f9b5: pop rdi ; sub al, 0x8B ; ret ; \x5f\x2c\x8b\xc3 (1 found)
0x14000f9b0: pop rdi ; xor byte [rbx+rax-0x75], dh ; pop rdi ; sub al, 0x8B ; ret ; \x5f\x30\x74\x03\x8b\x5f\x2c\x8b\xc3 (1 found)
0x140005878: pop rdx ; add al, byte [rax] ; add rsp, 0x28 ; ret ; \x5a\x02\x00\x48\x83\xc4\x28\xc3 (1 found)
0x140005818: pop rdx ; add al, byte [rax] ; ret ; \x5a\x02\x00\xc3 (1 found)
0x1400082ca: pop rsi ; pop r12 ; pop rdi ; pop rbp ; ret ; \x5e\x41\x5c\x5f\x5d\xc3 (1 found)
0x1400083e6: pop rsi ; pop r12 ; pop rdi ; pop rbp ; ret ; \x5e\x41\x5c\x5f\x5d\xc3 (1 found)
0x140003916: pop rsi ; pop r12 ; pop rdi ; pop rsi ; ret ; \x5e\x41\x5c\x5f\x5e\xc3 (1 found)
0x14001197a: pop rsi ; pop r12 ; pop rdi ; pop rsi ; ret ; \x5e\x41\x5c\x5f\x5e\xc3 (1 found)
0x140012a6c: pop rsi ; pop r12 ; pop rdi ; pop rsi ; ret ; \x5e\x41\x5c\x5f\x5e\xc3 (1 found)
0x140014313: pop rsi ; pop r12 ; pop rdi ; pop rsi ; ret ; \x5e\x41\x5c\x5f\x5e\xc3 (1 found)
0x14000f616: pop rsi ; pop r12 ; ret ; \x5e\x41\x5c\xc3 (1 found)
0x140014d6e: pop rsi ; pop r12 ; ret ; \x5e\x41\x5c\xc3 (1 found)
0x140018371: pop rsi ; pop r12 ; ret ; \x5e\x41\x5c\xc3 (1 found)
0x14001a3df: pop rsi ; pop r12 ; ret ; \x5e\x41\x5c\xc3 (1 found)
0x14001a7c6: pop rsi ; pop r12 ; ret ; \x5e\x41\x5c\xc3 (1 found)
0x140015334: pop rsi ; pop r13 ; pop r12 ; pop rbp ; ret ; \x5e\x41\x5d\x41\x5c\x5d\xc3 (1 found)
0x140018d70: pop rsi ; pop r13 ; pop r12 ; pop rbp ; ret ; \x5e\x41\x5d\x41\x5c\x5d\xc3 (1 found)
0x140019142: pop rsi ; pop r13 ; pop r12 ; pop rbp ; ret ; \x5e\x41\x5d\x41\x5c\x5d\xc3 (1 found)
0x140002fbc: pop rsi ; pop r13 ; pop r12 ; pop rdi ; ret ; \x5e\x41\x5d\x41\x5c\x5f\xc3 (1 found)
0x14000352e: pop rsi ; pop r13 ; pop r12 ; pop rdi ; ret ; \x5e\x41\x5d\x41\x5c\x5f\xc3 (1 found)
0x140003a40: pop rsi ; pop r13 ; pop r12 ; pop rdi ; ret ; \x5e\x41\x5d\x41\x5c\x5f\xc3 (1 found)
0x1400052d0: pop rsi ; pop r13 ; pop r12 ; pop rdi ; ret ; \x5e\x41\x5d\x41\x5c\x5f\xc3 (1 found)
0x1400098cc: pop rsi ; pop r13 ; pop r12 ; pop rdi ; ret ; \x5e\x41\x5d\x41\x5c\x5f\xc3 (1 found)
0x140009d90: pop rsi ; pop r13 ; pop r12 ; pop rdi ; ret ; \x5e\x41\x5d\x41\x5c\x5f\xc3 (1 found)
0x14000a1f5: pop rsi ; pop r13 ; pop r12 ; pop rdi ; ret ; \x5e\x41\x5d\x41\x5c\x5f\xc3 (1 found)
0x14000ee98: pop rsi ; pop r13 ; pop r12 ; pop rdi ; ret ; \x5e\x41\x5d\x41\x5c\x5f\xc3 (1 found)
0x140010a83: pop rsi ; pop r13 ; pop r12 ; pop rdi ; ret ; \x5e\x41\x5d\x41\x5c\x5f\xc3 (1 found)
0x1400136b8: pop rsi ; pop r13 ; pop r12 ; pop rdi ; ret ; \x5e\x41\x5d\x41\x5c\x5f\xc3 (1 found)
0x140014870: pop rsi ; pop r13 ; pop r12 ; pop rdi ; ret ; \x5e\x41\x5d\x41\x5c\x5f\xc3 (1 found)
0x140015aa6: pop rsi ; pop r13 ; pop r12 ; pop rdi ; ret ; \x5e\x41\x5d\x41\x5c\x5f\xc3 (1 found)
0x1400178ab: pop rsi ; pop r13 ; pop r12 ; pop rdi ; ret ; \x5e\x41\x5d\x41\x5c\x5f\xc3 (1 found)
0x140011a67: pop rsi ; pop r13 ; pop r12 ; pop rsi ; ret ; \x5e\x41\x5d\x41\x5c\x5e\xc3 (1 found)
0x140017e98: pop rsi ; pop r13 ; pop r12 ; pop rsi ; ret ; \x5e\x41\x5d\x41\x5c\x5e\xc3 (1 found)
0x14000c658: pop rsi ; pop r13 ; pop r12 ; ret ; \x5e\x41\x5d\x41\x5c\xc3 (1 found)
0x140003fb6: pop rsi ; pop r13 ; ret ; \x5e\x41\x5d\xc3 (1 found)
0x14000f020: pop rsi ; pop r13 ; ret ; \x5e\x41\x5d\xc3 (1 found)
0x140012aca: pop rsi ; pop r13 ; ret ; \x5e\x41\x5d\xc3 (1 found)
0x14000111d: pop rsi ; pop rbp ; pop rbx ; ret ; \x5e\x5d\x5b\xc3 (1 found)
0x1400162f8: pop rsi ; pop rbp ; pop rbx ; ret ; \x5e\x5d\x5b\xc3 (1 found)
0x14001a081: pop rsi ; pop rbp ; pop rbx ; ret ; \x5e\x5d\x5b\xc3 (1 found)
0x14000416a: pop rsi ; pop rbp ; ret ; \x5e\x5d\xc3 (1 found)
0x1400048a4: pop rsi ; pop rbp ; ret ; \x5e\x5d\xc3 (1 found)
0x1400063d2: pop rsi ; pop rbp ; ret ; \x5e\x5d\xc3 (1 found)
0x14000b87e: pop rsi ; pop rbp ; ret ; \x5e\x5d\xc3 (1 found)
0x14000c6bd: pop rsi ; pop rbp ; ret ; \x5e\x5d\xc3 (1 found)
0x14000d35b: pop rsi ; pop rbp ; ret ; \x5e\x5d\xc3 (1 found)
0x14000fdf3: pop rsi ; pop rbp ; ret ; \x5e\x5d\xc3 (1 found)
0x1400115ea: pop rsi ; pop rbp ; ret ; \x5e\x5d\xc3 (1 found)
0x14001278b: pop rsi ; pop rbp ; ret ; \x5e\x5d\xc3 (1 found)
0x140012fde: pop rsi ; pop rbp ; ret ; \x5e\x5d\xc3 (1 found)
0x14001363f: pop rsi ; pop rbp ; ret ; \x5e\x5d\xc3 (1 found)
0x1400045ee: pop rsi ; pop rbx ; pop rbp ; ret ; \x5e\x5b\x5d\xc3 (1 found)
0x140005aaa: pop rsi ; pop rbx ; pop rbp ; ret ; \x5e\x5b\x5d\xc3 (1 found)
0x140011e3a: pop rsi ; pop rbx ; pop rbp ; ret ; \x5e\x5b\x5d\xc3 (1 found)
0x140017570: pop rsi ; pop rbx ; pop rbp ; ret ; \x5e\x5b\x5d\xc3 (1 found)
0x14001aa13: pop rsi ; pop rbx ; pop rbp ; ret ; \x5e\x5b\x5d\xc3 (1 found)
0x140001051: pop rsi ; pop rbx ; ret ; \x5e\x5b\xc3 (1 found)
0x14000213a: pop rsi ; pop rbx ; ret ; \x5e\x5b\xc3 (1 found)
0x140004f43: pop rsi ; pop rbx ; ret ; \x5e\x5b\xc3 (1 found)
0x140005147: pop rsi ; pop rbx ; ret ; \x5e\x5b\xc3 (1 found)
0x140002a0a: pop rsi ; pop rdi ; pop rbp ; ret ; \x5e\x5f\x5d\xc3 (1 found)
0x14000e4eb: pop rsi ; pop rdi ; pop rbp ; ret ; \x5e\x5f\x5d\xc3 (1 found)
0x140013f23: pop rsi ; pop rdi ; pop rbp ; ret ; \x5e\x5f\x5d\xc3 (1 found)
0x14000111b: pop rsi ; pop rdi ; pop rsi ; pop rbp ; pop rbx ; ret ; \x5e\x5f\x5e\x5d\x5b\xc3 (1 found)
0x14000d359: pop rsi ; pop rdi ; pop rsi ; pop rbp ; ret ; \x5e\x5f\x5e\x5d\xc3 (1 found)
0x14000fdf1: pop rsi ; pop rdi ; pop rsi ; pop rbp ; ret ; \x5e\x5f\x5e\x5d\xc3 (1 found)
0x14001aa11: pop rsi ; pop rdi ; pop rsi ; pop rbx ; pop rbp ; ret ; \x5e\x5f\x5e\x5b\x5d\xc3 (1 found)
0x14000bc49: pop rsi ; pop rdi ; pop rsi ; ret ; \x5e\x5f\x5e\xc3 (1 found)
0x14000fa01: pop rsi ; pop rdi ; pop rsi ; ret ; \x5e\x5f\x5e\xc3 (1 found)
0x1400116ee: pop rsi ; pop rdi ; pop rsi ; ret ; \x5e\x5f\x5e\xc3 (1 found)
0x140011809: pop rsi ; pop rdi ; pop rsi ; ret ; \x5e\x5f\x5e\xc3 (1 found)
0x1400188a8: pop rsi ; pop rdi ; pop rsi ; ret ; \x5e\x5f\x5e\xc3 (1 found)
0x14000b37a: pop rsi ; pop rdi ; ret ; \x5e\x5f\xc3 (1 found)
0x14000b45a: pop rsi ; pop rdi ; ret ; \x5e\x5f\xc3 (1 found)
0x14000d4d5: pop rsi ; pop rdi ; ret ; \x5e\x5f\xc3 (1 found)
0x14000dcd5: pop rsi ; pop rdi ; ret ; \x5e\x5f\xc3 (1 found)
0x14000ddf5: pop rsi ; pop rdi ; ret ; \x5e\x5f\xc3 (1 found)
0x14000f3ab: pop rsi ; pop rdi ; ret ; \x5e\x5f\xc3 (1 found)
0x140017d9b: pop rsi ; pop rdi ; ret ; \x5e\x5f\xc3 (1 found)
0x1400186a4: pop rsi ; pop rdi ; ret ; \x5e\x5f\xc3 (1 found)
0x14001b82d: pop rsi ; pop rdi ; ret ; \x5e\x5f\xc3 (1 found)
0x14000391a: pop rsi ; ret ; \x5e\xc3 (1 found)
0x140004094: pop rsi ; ret ; \x5e\xc3 (1 found)
0x1400049eb: pop rsi ; ret ; \x5e\xc3 (1 found)
0x140004c1f: pop rsi ; ret ; \x5e\xc3 (1 found)
0x1400054ab: pop rsi ; ret ; \x5e\xc3 (1 found)
0x1400065df: pop rsi ; ret ; \x5e\xc3 (1 found)
0x1400067eb: pop rsi ; ret ; \x5e\xc3 (1 found)
0x1400069f7: pop rsi ; ret ; \x5e\xc3 (1 found)
0x140006c03: pop rsi ; ret ; \x5e\xc3 (1 found)
0x140006e0f: pop rsi ; ret ; \x5e\xc3 (1 found)
0x14000701b: pop rsi ; ret ; \x5e\xc3 (1 found)
0x140007227: pop rsi ; ret ; \x5e\xc3 (1 found)
0x140007433: pop rsi ; ret ; \x5e\xc3 (1 found)
0x14000763f: pop rsi ; ret ; \x5e\xc3 (1 found)
0x140008923: pop rsi ; ret ; \x5e\xc3 (1 found)
0x140008bf5: pop rsi ; ret ; \x5e\xc3 (1 found)
0x140008ecc: pop rsi ; ret ; \x5e\xc3 (1 found)
0x14000a5e1: pop rsi ; ret ; \x5e\xc3 (1 found)
0x14000a849: pop rsi ; ret ; \x5e\xc3 (1 found)
0x14000aab1: pop rsi ; ret ; \x5e\xc3 (1 found)
0x14000b9a9: pop rsi ; ret ; \x5e\xc3 (1 found)
0x14000bc4b: pop rsi ; ret ; \x5e\xc3 (1 found)
0x14000be64: pop rsi ; ret ; \x5e\xc3 (1 found)
0x14000ef9a: pop rsi ; ret ; \x5e\xc3 (1 found)
0x14000fa03: pop rsi ; ret ; \x5e\xc3 (1 found)
0x14000fc2a: pop rsi ; ret ; \x5e\xc3 (1 found)
0x140010727: pop rsi ; ret ; \x5e\xc3 (1 found)
0x140010832: pop rsi ; ret ; \x5e\xc3 (1 found)
0x1400116f0: pop rsi ; ret ; \x5e\xc3 (1 found)
0x14001180b: pop rsi ; ret ; \x5e\xc3 (1 found)
0x14001197e: pop rsi ; ret ; \x5e\xc3 (1 found)
0x140011a6c: pop rsi ; ret ; \x5e\xc3 (1 found)
0x1400122a0: pop rsi ; ret ; \x5e\xc3 (1 found)
0x140012a70: pop rsi ; ret ; \x5e\xc3 (1 found)
0x14001302a: pop rsi ; ret ; \x5e\xc3 (1 found)
0x140014317: pop rsi ; ret ; \x5e\xc3 (1 found)
0x1400148ca: pop rsi ; ret ; \x5e\xc3 (1 found)
0x140014c09: pop rsi ; ret ; \x5e\xc3 (1 found)
0x140014e2c: pop rsi ; ret ; \x5e\xc3 (1 found)
0x140015176: pop rsi ; ret ; \x5e\xc3 (1 found)
0x140017e9d: pop rsi ; ret ; \x5e\xc3 (1 found)
0x1400188aa: pop rsi ; ret ; \x5e\xc3 (1 found)
0x14001a4b7: pop rsi ; ret ; \x5e\xc3 (1 found)
0x14001b1f9: pop rsi ; ret ; \x5e\xc3 (1 found)
0x140001004: pop rsp ; add al, 0x00 ; ret ; \x5c\x04\x00\xc3 (1 found)
0x14001b256: pop rsp ; and al, 0x08 ; add rsp, 0x10 ; ret ; \x5c\x24\x08\x48\x83\xc4\x10\xc3 (1 found)
0x14001ab9c: pop rsp ; and al, 0x08 ; mov ecx, 0xFFFFFFC0 ; and  [rsp+0x08], ecx ; ldmxcsr  [rsp+0x08] ; ret ; \x5c\x24\x08\xb9\xc0\xff\xff\xff\x21\x4c\x24\x08\x0f\xae\x54\x24\x08\xc3 (1 found)
0x14000d912: pop rsp ; and al, 0x08 ; mov rdi, qword [rsp+0x10] ; mov r14, qword [rsp+0x18] ; ret ; \x5c\x24\x08\x48\x8b\x7c\x24\x10\x4c\x8b\x74\x24\x18\xc3 (1 found)
0x140002c77: pop rsp ; and al, 0x08 ; mov rdi, qword [rsp+0x10] ; ret ; \x5c\x24\x08\x48\x8b\x7c\x24\x10\xc3 (1 found)
0x14001b3b9: pop rsp ; and al, 0x08 ; ret ; \x5c\x24\x08\xc3 (1 found)
0x1400026fb: pop rsp ; and al, 0x30 ; add rsp, 0x20 ; pop rdi ; ret ; \x5c\x24\x30\x48\x83\xc4\x20\x5f\xc3 (1 found)
0x140002737: pop rsp ; and al, 0x30 ; add rsp, 0x20 ; pop rdi ; ret ; \x5c\x24\x30\x48\x83\xc4\x20\x5f\xc3 (1 found)
0x140003694: pop rsp ; and al, 0x30 ; add rsp, 0x20 ; pop rdi ; ret ; \x5c\x24\x30\x48\x83\xc4\x20\x5f\xc3 (1 found)
0x140003bd4: pop rsp ; and al, 0x30 ; add rsp, 0x20 ; pop rdi ; ret ; \x5c\x24\x30\x48\x83\xc4\x20\x5f\xc3 (1 found)
0x140003d62: pop rsp ; and al, 0x30 ; add rsp, 0x20 ; pop rdi ; ret ; \x5c\x24\x30\x48\x83\xc4\x20\x5f\xc3 (1 found)
0x1400055af: pop rsp ; and al, 0x30 ; add rsp, 0x20 ; pop rdi ; ret ; \x5c\x24\x30\x48\x83\xc4\x20\x5f\xc3 (1 found)
0x1400058c8: pop rsp ; and al, 0x30 ; add rsp, 0x20 ; pop rdi ; ret ; \x5c\x24\x30\x48\x83\xc4\x20\x5f\xc3 (1 found)
0x140005908: pop rsp ; and al, 0x30 ; add rsp, 0x20 ; pop rdi ; ret ; \x5c\x24\x30\x48\x83\xc4\x20\x5f\xc3 (1 found)
0x14000bb63: pop rsp ; and al, 0x30 ; add rsp, 0x20 ; pop rdi ; ret ; \x5c\x24\x30\x48\x83\xc4\x20\x5f\xc3 (1 found)
0x14000bf33: pop rsp ; and al, 0x30 ; add rsp, 0x20 ; pop rdi ; ret ; \x5c\x24\x30\x48\x83\xc4\x20\x5f\xc3 (1 found)
0x14000c99c: pop rsp ; and al, 0x30 ; add rsp, 0x20 ; pop rdi ; ret ; \x5c\x24\x30\x48\x83\xc4\x20\x5f\xc3 (1 found)
0x14000cc11: pop rsp ; and al, 0x30 ; add rsp, 0x20 ; pop rdi ; ret ; \x5c\x24\x30\x48\x83\xc4\x20\x5f\xc3 (1 found)
0x14000cc51: pop rsp ; and al, 0x30 ; add rsp, 0x20 ; pop rdi ; ret ; \x5c\x24\x30\x48\x83\xc4\x20\x5f\xc3 (1 found)
0x14000cc70: pop rsp ; and al, 0x30 ; add rsp, 0x20 ; pop rdi ; ret ; \x5c\x24\x30\x48\x83\xc4\x20\x5f\xc3 (1 found)
0x14000d3c5: pop rsp ; and al, 0x30 ; add rsp, 0x20 ; pop rdi ; ret ; \x5c\x24\x30\x48\x83\xc4\x20\x5f\xc3 (1 found)
0x14000d524: pop rsp ; and al, 0x30 ; add rsp, 0x20 ; pop rdi ; ret ; \x5c\x24\x30\x48\x83\xc4\x20\x5f\xc3 (1 found)
0x14000d568: pop rsp ; and al, 0x30 ; add rsp, 0x20 ; pop rdi ; ret ; \x5c\x24\x30\x48\x83\xc4\x20\x5f\xc3 (1 found)
0x14000d778: pop rsp ; and al, 0x30 ; add rsp, 0x20 ; pop rdi ; ret ; \x5c\x24\x30\x48\x83\xc4\x20\x5f\xc3 (1 found)
0x14000d7c2: pop rsp ; and al, 0x30 ; add rsp, 0x20 ; pop rdi ; ret ; \x5c\x24\x30\x48\x83\xc4\x20\x5f\xc3 (1 found)
0x14000dae2: pop rsp ; and al, 0x30 ; add rsp, 0x20 ; pop rdi ; ret ; \x5c\x24\x30\x48\x83\xc4\x20\x5f\xc3 (1 found)
0x14000db1e: pop rsp ; and al, 0x30 ; add rsp, 0x20 ; pop rdi ; ret ; \x5c\x24\x30\x48\x83\xc4\x20\x5f\xc3 (1 found)
0x14000ff1a: pop rsp ; and al, 0x30 ; add rsp, 0x20 ; pop rdi ; ret ; \x5c\x24\x30\x48\x83\xc4\x20\x5f\xc3 (1 found)
0x14000ff9a: pop rsp ; and al, 0x30 ; add rsp, 0x20 ; pop rdi ; ret ; \x5c\x24\x30\x48\x83\xc4\x20\x5f\xc3 (1 found)
0x14000ffd8: pop rsp ; and al, 0x30 ; add rsp, 0x20 ; pop rdi ; ret ; \x5c\x24\x30\x48\x83\xc4\x20\x5f\xc3 (1 found)
0x140010020: pop rsp ; and al, 0x30 ; add rsp, 0x20 ; pop rdi ; ret ; \x5c\x24\x30\x48\x83\xc4\x20\x5f\xc3 (1 found)
0x140010082: pop rsp ; and al, 0x30 ; add rsp, 0x20 ; pop rdi ; ret ; \x5c\x24\x30\x48\x83\xc4\x20\x5f\xc3 (1 found)
0x1400102d2: pop rsp ; and al, 0x30 ; add rsp, 0x20 ; pop rdi ; ret ; \x5c\x24\x30\x48\x83\xc4\x20\x5f\xc3 (1 found)
0x1400105d1: pop rsp ; and al, 0x30 ; add rsp, 0x20 ; pop rdi ; ret ; \x5c\x24\x30\x48\x83\xc4\x20\x5f\xc3 (1 found)
0x140010df8: pop rsp ; and al, 0x30 ; add rsp, 0x20 ; pop rdi ; ret ; \x5c\x24\x30\x48\x83\xc4\x20\x5f\xc3 (1 found)
0x1400110da: pop rsp ; and al, 0x30 ; add rsp, 0x20 ; pop rdi ; ret ; \x5c\x24\x30\x48\x83\xc4\x20\x5f\xc3 (1 found)
0x1400123ae: pop rsp ; and al, 0x30 ; add rsp, 0x20 ; pop rdi ; ret ; \x5c\x24\x30\x48\x83\xc4\x20\x5f\xc3 (1 found)
0x140013ac7: pop rsp ; and al, 0x30 ; add rsp, 0x20 ; pop rdi ; ret ; \x5c\x24\x30\x48\x83\xc4\x20\x5f\xc3 (1 found)
0x140015065: pop rsp ; and al, 0x30 ; add rsp, 0x20 ; pop rdi ; ret ; \x5c\x24\x30\x48\x83\xc4\x20\x5f\xc3 (1 found)
0x1400156cf: pop rsp ; and al, 0x30 ; add rsp, 0x20 ; pop rdi ; ret ; \x5c\x24\x30\x48\x83\xc4\x20\x5f\xc3 (1 found)
0x14001573c: pop rsp ; and al, 0x30 ; add rsp, 0x20 ; pop rdi ; ret ; \x5c\x24\x30\x48\x83\xc4\x20\x5f\xc3 (1 found)
0x140015921: pop rsp ; and al, 0x30 ; add rsp, 0x20 ; pop rdi ; ret ; \x5c\x24\x30\x48\x83\xc4\x20\x5f\xc3 (1 found)
0x1400159a3: pop rsp ; and al, 0x30 ; add rsp, 0x20 ; pop rdi ; ret ; \x5c\x24\x30\x48\x83\xc4\x20\x5f\xc3 (1 found)
0x140018e0e: pop rsp ; and al, 0x30 ; add rsp, 0x20 ; pop rdi ; ret ; \x5c\x24\x30\x48\x83\xc4\x20\x5f\xc3 (1 found)
0x1400193b8: pop rsp ; and al, 0x30 ; add rsp, 0x20 ; pop rdi ; ret ; \x5c\x24\x30\x48\x83\xc4\x20\x5f\xc3 (1 found)
0x14001b094: pop rsp ; and al, 0x30 ; add rsp, 0x20 ; pop rdi ; ret ; \x5c\x24\x30\x48\x83\xc4\x20\x5f\xc3 (1 found)
0x14001b292: pop rsp ; and al, 0x30 ; add rsp, 0x20 ; pop rdi ; ret ; \x5c\x24\x30\x48\x83\xc4\x20\x5f\xc3 (1 found)
0x1400108a5: pop rsp ; and al, 0x30 ; mov al, 0x01 ; add rsp, 0x20 ; pop rdi ; ret ; \x5c\x24\x30\xb0\x01\x48\x83\xc4\x20\x5f\xc3 (1 found)
0x1400158d7: pop rsp ; and al, 0x30 ; mov al, 0x01 ; add rsp, 0x20 ; pop rdi ; ret ; \x5c\x24\x30\xb0\x01\x48\x83\xc4\x20\x5f\xc3 (1 found)
0x140004d0a: pop rsp ; and al, 0x30 ; mov rax, rdi ; add rsp, 0x20 ; pop rdi ; ret ; \x5c\x24\x30\x48\x8b\xc7\x48\x83\xc4\x20\x5f\xc3 (1 found)
0x140004d4e: pop rsp ; and al, 0x30 ; mov rax, rdi ; add rsp, 0x20 ; pop rdi ; ret ; \x5c\x24\x30\x48\x8b\xc7\x48\x83\xc4\x20\x5f\xc3 (1 found)
0x14001516a: pop rsp ; and al, 0x30 ; mov rbp, qword [rsp+0x38] ; add rsp, 0x20 ; pop rsi ; ret ; \x5c\x24\x30\x48\x8b\x6c\x24\x38\x48\x83\xc4\x20\x5e\xc3 (1 found)
0x140003329: pop rsp ; and al, 0x30 ; mov rsi, qword [rsp+0x38] ; add rsp, 0x20 ; pop rdi ; ret ; \x5c\x24\x30\x48\x8b\x74\x24\x38\x48\x83\xc4\x20\x5f\xc3 (1 found)
0x1400036f3: pop rsp ; and al, 0x30 ; mov rsi, qword [rsp+0x38] ; add rsp, 0x20 ; pop rdi ; ret ; \x5c\x24\x30\x48\x8b\x74\x24\x38\x48\x83\xc4\x20\x5f\xc3 (1 found)
0x14000383e: pop rsp ; and al, 0x30 ; mov rsi, qword [rsp+0x38] ; add rsp, 0x20 ; pop rdi ; ret ; \x5c\x24\x30\x48\x8b\x74\x24\x38\x48\x83\xc4\x20\x5f\xc3 (1 found)
0x14000a26b: pop rsp ; and al, 0x30 ; mov rsi, qword [rsp+0x38] ; add rsp, 0x20 ; pop rdi ; ret ; \x5c\x24\x30\x48\x8b\x74\x24\x38\x48\x83\xc4\x20\x5f\xc3 (1 found)
0x14000a2eb: pop rsp ; and al, 0x30 ; mov rsi, qword [rsp+0x38] ; add rsp, 0x20 ; pop rdi ; ret ; \x5c\x24\x30\x48\x8b\x74\x24\x38\x48\x83\xc4\x20\x5f\xc3 (1 found)
0x14000a36b: pop rsp ; and al, 0x30 ; mov rsi, qword [rsp+0x38] ; add rsp, 0x20 ; pop rdi ; ret ; \x5c\x24\x30\x48\x8b\x74\x24\x38\x48\x83\xc4\x20\x5f\xc3 (1 found)
0x14000afb6: pop rsp ; and al, 0x30 ; mov rsi, qword [rsp+0x38] ; add rsp, 0x20 ; pop rdi ; ret ; \x5c\x24\x30\x48\x8b\x74\x24\x38\x48\x83\xc4\x20\x5f\xc3 (1 found)
0x14000b052: pop rsp ; and al, 0x30 ; mov rsi, qword [rsp+0x38] ; add rsp, 0x20 ; pop rdi ; ret ; \x5c\x24\x30\x48\x8b\x74\x24\x38\x48\x83\xc4\x20\x5f\xc3 (1 found)
0x14000b0ee: pop rsp ; and al, 0x30 ; mov rsi, qword [rsp+0x38] ; add rsp, 0x20 ; pop rdi ; ret ; \x5c\x24\x30\x48\x8b\x74\x24\x38\x48\x83\xc4\x20\x5f\xc3 (1 found)
0x14000b2c8: pop rsp ; and al, 0x30 ; mov rsi, qword [rsp+0x38] ; add rsp, 0x20 ; pop rdi ; ret ; \x5c\x24\x30\x48\x8b\x74\x24\x38\x48\x83\xc4\x20\x5f\xc3 (1 found)
0x14000ca81: pop rsp ; and al, 0x30 ; mov rsi, qword [rsp+0x38] ; add rsp, 0x20 ; pop rdi ; ret ; \x5c\x24\x30\x48\x8b\x74\x24\x38\x48\x83\xc4\x20\x5f\xc3 (1 found)
0x14000e386: pop rsp ; and al, 0x30 ; mov rsi, qword [rsp+0x38] ; add rsp, 0x20 ; pop rdi ; ret ; \x5c\x24\x30\x48\x8b\x74\x24\x38\x48\x83\xc4\x20\x5f\xc3 (1 found)
0x140010caa: pop rsp ; and al, 0x30 ; mov rsi, qword [rsp+0x38] ; add rsp, 0x20 ; pop rdi ; ret ; \x5c\x24\x30\x48\x8b\x74\x24\x38\x48\x83\xc4\x20\x5f\xc3 (1 found)
0x1400125d3: pop rsp ; and al, 0x30 ; mov rsi, qword [rsp+0x38] ; add rsp, 0x20 ; pop rdi ; ret ; \x5c\x24\x30\x48\x8b\x74\x24\x38\x48\x83\xc4\x20\x5f\xc3 (1 found)
0x140014a6e: pop rsp ; and al, 0x30 ; mov rsi, qword [rsp+0x38] ; add rsp, 0x20 ; pop rdi ; ret ; \x5c\x24\x30\x48\x8b\x74\x24\x38\x48\x83\xc4\x20\x5f\xc3 (1 found)
0x14001588e: pop rsp ; and al, 0x30 ; mov rsi, qword [rsp+0x38] ; add rsp, 0x20 ; pop rdi ; ret ; \x5c\x24\x30\x48\x8b\x74\x24\x38\x48\x83\xc4\x20\x5f\xc3 (1 found)
0x140017605: pop rsp ; and al, 0x30 ; mov rsi, qword [rsp+0x38] ; add rsp, 0x20 ; pop rdi ; ret ; \x5c\x24\x30\x48\x8b\x74\x24\x38\x48\x83\xc4\x20\x5f\xc3 (1 found)
0x140017be1: pop rsp ; and al, 0x30 ; mov rsi, qword [rsp+0x38] ; add rsp, 0x20 ; pop rdi ; ret ; \x5c\x24\x30\x48\x8b\x74\x24\x38\x48\x83\xc4\x20\x5f\xc3 (1 found)
0x140017cae: pop rsp ; and al, 0x30 ; mov rsi, qword [rsp+0x38] ; add rsp, 0x20 ; pop rdi ; ret ; \x5c\x24\x30\x48\x8b\x74\x24\x38\x48\x83\xc4\x20\x5f\xc3 (1 found)
0x1400051e0: pop rsp ; and al, 0x30 ; mov rsi, qword [rsp+0x40] ; add rsp, 0x20 ; pop rdi ; ret ; \x5c\x24\x30\x48\x8b\x74\x24\x40\x48\x83\xc4\x20\x5f\xc3 (1 found)
0x14001a8e2: pop rsp ; and al, 0x30 ; sete al ; add rsp, 0x20 ; pop rdi ; ret ; \x5c\x24\x30\x0f\x94\xc0\x48\x83\xc4\x20\x5f\xc3 (1 found)
0x1400026a2: pop rsp ; and al, 0x30 ; xor eax, eax ; add rsp, 0x20 ; pop rdi ; ret ; \x5c\x24\x30\x33\xc0\x48\x83\xc4\x20\x5f\xc3 (1 found)
0x140003137: pop rsp ; and al, 0x30 ; xor eax, eax ; add rsp, 0x20 ; pop rdi ; ret ; \x5c\x24\x30\x33\xc0\x48\x83\xc4\x20\x5f\xc3 (1 found)
0x14000cc7b: pop rsp ; and al, 0x30 ; xor eax, eax ; add rsp, 0x20 ; pop rdi ; ret ; \x5c\x24\x30\x33\xc0\x48\x83\xc4\x20\x5f\xc3 (1 found)
0x14000ab6f: pop rsp ; and al, 0x38 ; add rsp, 0x20 ; pop rdi ; ret ; \x5c\x24\x38\x48\x83\xc4\x20\x5f\xc3 (1 found)
0x14000ac33: pop rsp ; and al, 0x38 ; add rsp, 0x20 ; pop rdi ; ret ; \x5c\x24\x38\x48\x83\xc4\x20\x5f\xc3 (1 found)
0x14000acf7: pop rsp ; and al, 0x38 ; add rsp, 0x20 ; pop rdi ; ret ; \x5c\x24\x38\x48\x83\xc4\x20\x5f\xc3 (1 found)
0x14000c15b: pop rsp ; and al, 0x38 ; add rsp, 0x20 ; pop rdi ; ret ; \x5c\x24\x38\x48\x83\xc4\x20\x5f\xc3 (1 found)
0x1400194c7: pop rsp ; and al, 0x38 ; add rsp, 0x20 ; pop rdi ; ret ; \x5c\x24\x38\x48\x83\xc4\x20\x5f\xc3 (1 found)
0x140018977: pop rsp ; and al, 0x38 ; mov rbp, qword [rsp+0x40] ; add rsp, 0x20 ; pop rdi ; ret ; \x5c\x24\x38\x48\x8b\x6c\x24\x40\x48\x83\xc4\x20\x5f\xc3 (1 found)
0x140013fcc: pop rsp ; and al, 0x38 ; mov rsi, qword [rsp+0x40] ; add rsp, 0x20 ; pop rdi ; ret ; \x5c\x24\x38\x48\x8b\x74\x24\x40\x48\x83\xc4\x20\x5f\xc3 (1 found)
0x14000ada6: pop rsp ; and al, 0x40 ; add rsp, 0x30 ; pop rdi ; ret ; \x5c\x24\x40\x48\x83\xc4\x30\x5f\xc3 (1 found)
0x14000ae5e: pop rsp ; and al, 0x40 ; add rsp, 0x30 ; pop rdi ; ret ; \x5c\x24\x40\x48\x83\xc4\x30\x5f\xc3 (1 found)
0x14000af16: pop rsp ; and al, 0x40 ; add rsp, 0x30 ; pop rdi ; ret ; \x5c\x24\x40\x48\x83\xc4\x30\x5f\xc3 (1 found)
0x14001afbe: pop rsp ; and al, 0x40 ; mov rsi, qword [rsp+0x48] ; add rsp, 0x20 ; pop rdi ; ret ; \x5c\x24\x40\x48\x8b\x74\x24\x48\x48\x83\xc4\x20\x5f\xc3 (1 found)
0x140001f7d: pop rsp ; and al, 0x40 ; mov rsi, qword [rsp+0x48] ; add rsp, 0x30 ; pop rdi ; ret ; \x5c\x24\x40\x48\x8b\x74\x24\x48\x48\x83\xc4\x30\x5f\xc3 (1 found)
0x14000c04f: pop rsp ; and al, 0x40 ; mov rsi, qword [rsp+0x48] ; add rsp, 0x30 ; pop rdi ; ret ; \x5c\x24\x40\x48\x8b\x74\x24\x48\x48\x83\xc4\x30\x5f\xc3 (1 found)
0x14000d9bc: pop rsp ; and al, 0x40 ; mov rsi, qword [rsp+0x48] ; add rsp, 0x30 ; pop rdi ; ret ; \x5c\x24\x40\x48\x8b\x74\x24\x48\x48\x83\xc4\x30\x5f\xc3 (1 found)
0x14000bf7c: pop rsp ; and al, 0x48 ; add rsp, 0x30 ; pop rdi ; ret ; \x5c\x24\x48\x48\x83\xc4\x30\x5f\xc3 (1 found)
0x140010f15: pop rsp ; and al, 0x48 ; add rsp, 0x30 ; pop rdi ; ret ; \x5c\x24\x48\x48\x83\xc4\x30\x5f\xc3 (1 found)
0x140008548: pop rsp ; and al, 0x48 ; mov rbp, qword [rsp+0x50] ; add rsp, 0x30 ; pop rdi ; ret ; \x5c\x24\x48\x48\x8b\x6c\x24\x50\x48\x83\xc4\x30\x5f\xc3 (1 found)
0x1400085d8: pop rsp ; and al, 0x48 ; mov rbp, qword [rsp+0x50] ; add rsp, 0x30 ; pop rdi ; ret ; \x5c\x24\x48\x48\x8b\x6c\x24\x50\x48\x83\xc4\x30\x5f\xc3 (1 found)
0x140008668: pop rsp ; and al, 0x48 ; mov rbp, qword [rsp+0x50] ; add rsp, 0x30 ; pop rdi ; ret ; \x5c\x24\x48\x48\x8b\x6c\x24\x50\x48\x83\xc4\x30\x5f\xc3 (1 found)
0x1400010af: pop rsp ; and al, 0x50 ; add rsp, 0x40 ; pop rdi ; ret ; \x5c\x24\x50\x48\x83\xc4\x40\x5f\xc3 (1 found)
0x140001305: pop rsp ; and al, 0x50 ; add rsp, 0x40 ; pop rdi ; ret ; \x5c\x24\x50\x48\x83\xc4\x40\x5f\xc3 (1 found)
0x140001320: pop rsp ; and al, 0x50 ; add rsp, 0x40 ; pop rdi ; ret ; \x5c\x24\x50\x48\x83\xc4\x40\x5f\xc3 (1 found)
0x1400139ad: pop rsp ; and al, 0x50 ; add rsp, 0x40 ; pop rdi ; ret ; \x5c\x24\x50\x48\x83\xc4\x40\x5f\xc3 (1 found)
0x14001a1a8: pop rsp ; and al, 0x50 ; mov rsi, qword [rsp+0x60] ; add rsp, 0x40 ; pop rdi ; ret ; \x5c\x24\x50\x48\x8b\x74\x24\x60\x48\x83\xc4\x40\x5f\xc3 (1 found)
0x140005738: pop rsp ; and al, 0x60 ; add rsp, 0x50 ; pop rbp ; ret ; \x5c\x24\x60\x48\x83\xc4\x50\x5d\xc3 (1 found)
0x1400183a4: pop rsp ; and al, 0x60 ; add rsp, 0x50 ; pop rdi ; ret ; \x5c\x24\x60\x48\x83\xc4\x50\x5f\xc3 (1 found)
0x14000f8dd: pop rsp ; and al, 0x60 ; mov rsi, qword [rsp+0x68] ; add rsp, 0x50 ; pop rdi ; ret ; \x5c\x24\x60\x48\x8b\x74\x24\x68\x48\x83\xc4\x50\x5f\xc3 (1 found)
0x140012332: pop rsp ; and al, 0x60 ; mov rsi, qword [rsp+0x78] ; add rsp, 0x50 ; pop rdi ; ret ; \x5c\x24\x60\x48\x8b\x74\x24\x78\x48\x83\xc4\x50\x5f\xc3 (1 found)
0x140005571: pop rsp ; and al, 0x70 ; mov rsi, qword [rsp+0x78] ; add rsp, 0x50 ; pop rdi ; ret ; \x5c\x24\x70\x48\x8b\x74\x24\x78\x48\x83\xc4\x50\x5f\xc3 (1 found)
0x140015338: pop rsp ; pop rbp ; ret ; \x5c\x5d\xc3 (1 found)
0x140018d74: pop rsp ; pop rbp ; ret ; \x5c\x5d\xc3 (1 found)
0x140019146: pop rsp ; pop rbp ; ret ; \x5c\x5d\xc3 (1 found)
0x1400082cc: pop rsp ; pop rdi ; pop rbp ; ret ; \x5c\x5f\x5d\xc3 (1 found)
0x1400083e8: pop rsp ; pop rdi ; pop rbp ; ret ; \x5c\x5f\x5d\xc3 (1 found)
0x1400162f6: pop rsp ; pop rdi ; pop rsi ; pop rbp ; pop rbx ; ret ; \x5c\x5f\x5e\x5d\x5b\xc3 (1 found)
0x14001a07f: pop rsp ; pop rdi ; pop rsi ; pop rbp ; pop rbx ; ret ; \x5c\x5f\x5e\x5d\x5b\xc3 (1 found)
0x140004168: pop rsp ; pop rdi ; pop rsi ; pop rbp ; ret ; \x5c\x5f\x5e\x5d\xc3 (1 found)
0x1400048a2: pop rsp ; pop rdi ; pop rsi ; pop rbp ; ret ; \x5c\x5f\x5e\x5d\xc3 (1 found)
0x1400063d0: pop rsp ; pop rdi ; pop rsi ; pop rbp ; ret ; \x5c\x5f\x5e\x5d\xc3 (1 found)
0x14000c6bb: pop rsp ; pop rdi ; pop rsi ; pop rbp ; ret ; \x5c\x5f\x5e\x5d\xc3 (1 found)
0x1400115e8: pop rsp ; pop rdi ; pop rsi ; pop rbp ; ret ; \x5c\x5f\x5e\x5d\xc3 (1 found)
0x140012789: pop rsp ; pop rdi ; pop rsi ; pop rbp ; ret ; \x5c\x5f\x5e\x5d\xc3 (1 found)
0x140012fdc: pop rsp ; pop rdi ; pop rsi ; pop rbp ; ret ; \x5c\x5f\x5e\x5d\xc3 (1 found)
0x14001363d: pop rsp ; pop rdi ; pop rsi ; pop rbp ; ret ; \x5c\x5f\x5e\x5d\xc3 (1 found)
0x1400045ec: pop rsp ; pop rdi ; pop rsi ; pop rbx ; pop rbp ; ret ; \x5c\x5f\x5e\x5b\x5d\xc3 (1 found)
0x140005aa8: pop rsp ; pop rdi ; pop rsi ; pop rbx ; pop rbp ; ret ; \x5c\x5f\x5e\x5b\x5d\xc3 (1 found)
0x140011e38: pop rsp ; pop rdi ; pop rsi ; pop rbx ; pop rbp ; ret ; \x5c\x5f\x5e\x5b\x5d\xc3 (1 found)
0x14001756e: pop rsp ; pop rdi ; pop rsi ; pop rbx ; pop rbp ; ret ; \x5c\x5f\x5e\x5b\x5d\xc3 (1 found)
0x140004f41: pop rsp ; pop rdi ; pop rsi ; pop rbx ; ret ; \x5c\x5f\x5e\x5b\xc3 (1 found)
0x140005145: pop rsp ; pop rdi ; pop rsi ; pop rbx ; ret ; \x5c\x5f\x5e\x5b\xc3 (1 found)
0x140003918: pop rsp ; pop rdi ; pop rsi ; ret ; \x5c\x5f\x5e\xc3 (1 found)
0x14000a5df: pop rsp ; pop rdi ; pop rsi ; ret ; \x5c\x5f\x5e\xc3 (1 found)
0x14000a847: pop rsp ; pop rdi ; pop rsi ; ret ; \x5c\x5f\x5e\xc3 (1 found)
0x14000aaaf: pop rsp ; pop rdi ; pop rsi ; ret ; \x5c\x5f\x5e\xc3 (1 found)
0x14001197c: pop rsp ; pop rdi ; pop rsi ; ret ; \x5c\x5f\x5e\xc3 (1 found)
0x140012a6e: pop rsp ; pop rdi ; pop rsi ; ret ; \x5c\x5f\x5e\xc3 (1 found)
0x140014315: pop rsp ; pop rdi ; pop rsi ; ret ; \x5c\x5f\x5e\xc3 (1 found)
0x140002fc0: pop rsp ; pop rdi ; ret ; \x5c\x5f\xc3 (1 found)
0x140003532: pop rsp ; pop rdi ; ret ; \x5c\x5f\xc3 (1 found)
0x140003a44: pop rsp ; pop rdi ; ret ; \x5c\x5f\xc3 (1 found)
0x1400052d4: pop rsp ; pop rdi ; ret ; \x5c\x5f\xc3 (1 found)
0x1400098d0: pop rsp ; pop rdi ; ret ; \x5c\x5f\xc3 (1 found)
0x140009d94: pop rsp ; pop rdi ; ret ; \x5c\x5f\xc3 (1 found)
0x14000a1f9: pop rsp ; pop rdi ; ret ; \x5c\x5f\xc3 (1 found)
0x14000ee9c: pop rsp ; pop rdi ; ret ; \x5c\x5f\xc3 (1 found)
0x140010a87: pop rsp ; pop rdi ; ret ; \x5c\x5f\xc3 (1 found)
0x1400136bc: pop rsp ; pop rdi ; ret ; \x5c\x5f\xc3 (1 found)
0x140014874: pop rsp ; pop rdi ; ret ; \x5c\x5f\xc3 (1 found)
0x140015aaa: pop rsp ; pop rdi ; ret ; \x5c\x5f\xc3 (1 found)
0x1400178af: pop rsp ; pop rdi ; ret ; \x5c\x5f\xc3 (1 found)
0x140011a6b: pop rsp ; pop rsi ; ret ; \x5c\x5e\xc3 (1 found)
0x140017e9c: pop rsp ; pop rsi ; ret ; \x5c\x5e\xc3 (1 found)
0x14000c65c: pop rsp ; ret ; \x5c\xc3 (1 found)
0x14000f618: pop rsp ; ret ; \x5c\xc3 (1 found)
0x140014d70: pop rsp ; ret ; \x5c\xc3 (1 found)
0x140018373: pop rsp ; ret ; \x5c\xc3 (1 found)
0x140019812: pop rsp ; ret ; \x5c\xc3 (1 found)
0x140019a9c: pop rsp ; ret ; \x5c\xc3 (1 found)
0x14001a3e1: pop rsp ; ret ; \x5c\xc3 (1 found)
0x14001a7c8: pop rsp ; ret ; \x5c\xc3 (1 found)
0x14000d878: pop rsp ; retn 0x8B39 ; \x5c\xc2\x39\x8b (1 found)
0x140019b50: pop rsp ; sldt word [rax] ; vmovdqa xmm6,  [rsp+0x20] ; add rsp, 0x58 ; ret ; \x5c\x0f\x00\x00\xc5\xf9\x6f\x74\x24\x20\x48\x83\xc4\x58\xc3 (1 found)
0x14000d9b4: psubsb mm4, qword [rdx+0x48000008] ; mov ebx,  [rsp+0x40] ; mov rsi, qword [rsp+0x48] ; add rsp, 0x30 ; pop rdi ; ret ; \x0f\xe8\xa2\x08\x00\x00\x48\x8b\x5c\x24\x40\x48\x8b\x74\x24\x48\x48\x83\xc4\x30\x5f\xc3 (1 found)
0x1400139a5: psubsb mm6, qword [rcx+0x48FFFFA8] ; mov ebx,  [rsp+0x50] ; add rsp, 0x40 ; pop rdi ; ret ; \x0f\xe8\xb1\xa8\xff\xff\x48\x8b\x5c\x24\x50\x48\x83\xc4\x40\x5f\xc3 (1 found)
0x140015998: psubsb mm7, qword [rsi+0x48FFFF88] ; mov eax, ebx ; mov rbx, qword [rsp+0x30] ; add rsp, 0x20 ; pop rdi ; ret ; \x0f\xe8\xbe\x88\xff\xff\x48\x8b\xc3\x48\x8b\x5c\x24\x30\x48\x83\xc4\x20\x5f\xc3 (1 found)
0x140003c35: push 0x20C48348 ; pop rbx ; ret ; \x68\x48\x83\xc4\x20\x5b\xc3 (1 found)
0x140003c03: push 0x28C48348 ; ret ; \x40\x68\x48\x83\xc4\x28\xc3 (1 found)
0x140003c04: push 0x28C48348 ; ret ; \x68\x48\x83\xc4\x28\xc3 (1 found)
0x14000f018: push 0x30C48348 ; pop r15 ; pop r14 ; pop r13 ; ret ; \x68\x48\x83\xc4\x30\x41\x5f\x41\x5e\x41\x5d\xc3 (1 found)
0x14001869c: push 0x30C48348 ; pop r15 ; pop r14 ; pop rdi ; ret ; \x68\x48\x83\xc4\x30\x41\x5f\x41\x5e\x5f\xc3 (1 found)
0x140003cbb: push 0x40C48348 ; pop rdi ; ret ; \x68\x48\x83\xc4\x40\x5f\xc3 (1 found)
0x140003094: push 0x480001A2 ; add esp, 0x48 ; ret ; \x68\xa2\x01\x00\x48\x83\xc4\x48\xc3 (1 found)
0x14001232c: push 0x48C38B48 ; mov ebx,  [rsp+0x60] ; mov rsi, qword [rsp+0x78] ; add rsp, 0x50 ; pop rdi ; ret ; \x68\x48\x8b\xc3\x48\x8b\x5c\x24\x60\x48\x8b\x74\x24\x78\x48\x83\xc4\x50\x5f\xc3 (1 found)
0x14000f8e4: push 0x50C48348 ; pop rdi ; ret ; \x68\x48\x83\xc4\x50\x5f\xc3 (1 found)
0x1400146ba: push 0x83480974 ; ret ; \x68\x74\x09\x48\x83\xc3 (1 found)
0x140016230: push 0x8B000002 ; test byte [rax+rdi*2], ah ; add al, byte [rax] ; add byte [rcx-0x7D], cl ; ret ; \x68\x02\x00\x00\x8b\x84\x24\x78\x02\x00\x00\x49\x83\xc3 (1 found)
0x14000cf3e: push 0xFFFFFFE3 ; add  [rax], eax ; ret ; \x6a\xe3\x01\x00\xc3 (1 found)
0x14000d82c: push cs ; add byte [rax], al ; mov eax, 0x00000016 ; add rsp, 0x28 ; ret ; \x0e\x00\x00\xb8\x16\x00\x00\x00\x48\x83\xc4\x28\xc3 (1 found)
0x14000e701: push cs ; cmovbe eax, r8d ; ret ; \x0e\x41\x0f\x46\xc0\xc3 (1 found)
0x140019abe: push cs ; mov  [0xFBC5C458FBC50000], eax ; pop rax ; rol ebp, 0xFFFFFFFB ; pop rax ; ret ; \x0e\xa3\x00\x00\xc5\xfb\x58\xc4\xc5\xfb\x58\xc1\xc5\xfb\x58\xc3 (1 found)
0x14001b86f: push cs ; mov qword [rax], r8 ; mov  [rax+0x08], ecx ; mov word [rax+0x0C], r9w ; mov byte [rax+0x0E], r10L ; ret ; \x0e\x4c\x89\x00\x89\x48\x08\x66\x44\x89\x48\x0c\x44\x88\x50\x0e\xc3 (1 found)
0x1400156c9: push cs ; mov rax, rbx ; mov rbx, qword [rsp+0x30] ; add rsp, 0x20 ; pop rdi ; ret ; \x0e\x48\x8b\xc3\x48\x8b\x5c\x24\x30\x48\x83\xc4\x20\x5f\xc3 (1 found)
0x1400155b0: push cs ; or eax, 0xFFFFFFFF ; lock xadd  [rcx+0x0000015C], eax ; dec eax ; ret ; \x0e\x83\xc8\xff\xf0\x0f\xc1\x81\x5c\x01\x00\x00\xff\xc8\xc3 (1 found)
0x14001b87e: push cs ; ret ; \x0e\xc3 (1 found)
0x14000336e: push qword [rax-0x17F814FF] ; or byte [rax], al ; add byte [rax], al ; xor al, al ; add rsp, 0x28 ; ret ; \xff\xb0\x01\xeb\x07\xe8\x08\x00\x00\x00\x32\xc0\x48\x83\xc4\x28\xc3 (1 found)
0x14000deeb: push qword [rax-0x3B7CB7FF] ; sub bl, al ; int3 ; mov al, 0x01 ; ret ; \xff\xb0\x01\x48\x83\xc4\x28\xc3\xcc\xb0\x01\xc3 (1 found)
0x14000df04: push qword [rax-0x3B7CB7FF] ; sub bl, al ; mov al, 0x01 ; ret ; \xff\xb0\x01\x48\x83\xc4\x28\xc3\xb0\x01\xc3 (1 found)
0x140001d41: push qword [rbp+0x01] ; ret ; \xff\x75\x01\xc3 (1 found)
0x14000fd9c: push qword [rbp+rcx-0x01] ; ret ; \xff\x74\x0d\xff\xc3 (1 found)
0x140015c0f: push rax ; adc byte [rbx-0x3974B735], cl ; mov r8, qword [0x000000014001D308] ; call r8 ; \x50\x10\x8b\xcb\x48\x8b\xc6\x4c\x8b\x05\xeb\x76\x00\x00\x41\xff\xd0 (1 found)
0x14000c653: push rax ; add al, 0x00 ; add byte [rcx+0x5E], al ; pop r13 ; pop r12 ; ret ; \x50\x04\x00\x00\x41\x5e\x41\x5d\x41\x5c\xc3 (1 found)
0x14001ba9b: push rax ; add al, byte [fs:rax] ; add r11, r10 ; jmp r11 ; \x50\x64\x02\x00\x4d\x03\xda\x41\xff\xe3 (1 found)
0x1400102cd: push rax ; add byte [rax], al ; mov rbx, qword [rsp+0x30] ; add rsp, 0x20 ; pop rdi ; ret ; \x50\x00\x00\x48\x8b\x5c\x24\x30\x48\x83\xc4\x20\x5f\xc3 (1 found)
0x14000edc3: push rax ; add cl, byte [rdi] ; retn 0x4688 ; \x50\x02\x0f\x48\xc2\x88\x46 (1 found)
0x14001a3d7: push rax ; add rsp, 0x20 ; pop r15 ; pop r14 ; pop r12 ; ret ; \x50\x48\x83\xc4\x20\x41\x5f\x41\x5e\x41\x5c\xc3 (1 found)
0x14001a7be: push rax ; add rsp, 0x20 ; pop r15 ; pop r14 ; pop r12 ; ret ; \x50\x48\x83\xc4\x20\x41\x5f\x41\x5e\x41\x5c\xc3 (1 found)
0x14000b372: push rax ; add rsp, 0x20 ; pop r15 ; pop r14 ; pop rdi ; ret ; \x50\x48\x83\xc4\x20\x41\x5f\x41\x5e\x5f\xc3 (1 found)
0x14000b452: push rax ; add rsp, 0x20 ; pop r15 ; pop r14 ; pop rdi ; ret ; \x50\x48\x83\xc4\x20\x41\x5f\x41\x5e\x5f\xc3 (1 found)
0x14000dccd: push rax ; add rsp, 0x20 ; pop r15 ; pop r14 ; pop rdi ; ret ; \x50\x48\x83\xc4\x20\x41\x5f\x41\x5e\x5f\xc3 (1 found)
0x14000dded: push rax ; add rsp, 0x20 ; pop r15 ; pop r14 ; pop rdi ; ret ; \x50\x48\x83\xc4\x20\x41\x5f\x41\x5e\x5f\xc3 (1 found)
0x14000f3a3: push rax ; add rsp, 0x20 ; pop r15 ; pop r14 ; pop rdi ; ret ; \x50\x48\x83\xc4\x20\x41\x5f\x41\x5e\x5f\xc3 (1 found)
0x140017d93: push rax ; add rsp, 0x20 ; pop r15 ; pop r14 ; pop rdi ; ret ; \x50\x48\x83\xc4\x20\x41\x5f\x41\x5e\x5f\xc3 (1 found)
0x1400188a2: push rax ; add rsp, 0x30 ; pop r14 ; pop rdi ; pop rsi ; ret ; \x50\x48\x83\xc4\x30\x41\x5e\x5f\x5e\xc3 (1 found)
0x140014abc: push rax ; add rsp, 0x30 ; pop r15 ; ret ; \x50\x48\x83\xc4\x30\x41\x5f\xc3 (1 found)
0x14000854f: push rax ; add rsp, 0x30 ; pop rdi ; ret ; \x50\x48\x83\xc4\x30\x5f\xc3 (1 found)
0x1400085df: push rax ; add rsp, 0x30 ; pop rdi ; ret ; \x50\x48\x83\xc4\x30\x5f\xc3 (1 found)
0x14000866f: push rax ; add rsp, 0x30 ; pop rdi ; ret ; \x50\x48\x83\xc4\x30\x5f\xc3 (1 found)
0x14000d5a7: push rax ; add rsp, 0x30 ; pop rdi ; ret ; \x50\x48\x83\xc4\x30\x5f\xc3 (1 found)
0x14000e603: push rax ; add rsp, 0x30 ; pop rdi ; ret ; \x50\x48\x83\xc4\x30\x5f\xc3 (1 found)
0x140015e51: push rax ; add rsp, 0x30 ; pop rdi ; ret ; \x50\x48\x83\xc4\x30\x5f\xc3 (1 found)
0x14001800a: push rax ; add rsp, 0x30 ; pop rdi ; ret ; \x50\x48\x83\xc4\x30\x5f\xc3 (1 found)
0x1400010b1: push rax ; add rsp, 0x40 ; pop rdi ; ret ; \x50\x48\x83\xc4\x40\x5f\xc3 (1 found)
0x140001307: push rax ; add rsp, 0x40 ; pop rdi ; ret ; \x50\x48\x83\xc4\x40\x5f\xc3 (1 found)
0x140001322: push rax ; add rsp, 0x40 ; pop rdi ; ret ; \x50\x48\x83\xc4\x40\x5f\xc3 (1 found)
0x1400139af: push rax ; add rsp, 0x40 ; pop rdi ; ret ; \x50\x48\x83\xc4\x40\x5f\xc3 (1 found)
0x14001ab60: push rax ; add rsp, 0x68 ; ret ; \x50\x48\x83\xc4\x68\xc3 (1 found)
0x14000c929: push rax ; mov r14, qword [rsp+0x58] ; add rsp, 0x30 ; pop r15 ; ret ; \x50\x4c\x8b\x74\x24\x58\x48\x83\xc4\x30\x41\x5f\xc3 (1 found)
0x1400065d4: push rax ; mov rdi, qword [rsp+0x58] ; add rsp, 0x30 ; pop r14 ; ret ; \x50\x48\x8b\x7c\x24\x58\x48\x83\xc4\x30\x41\x5e\xc3 (1 found)
0x1400067e0: push rax ; mov rdi, qword [rsp+0x58] ; add rsp, 0x30 ; pop r14 ; ret ; \x50\x48\x8b\x7c\x24\x58\x48\x83\xc4\x30\x41\x5e\xc3 (1 found)
0x1400069ec: push rax ; mov rdi, qword [rsp+0x58] ; add rsp, 0x30 ; pop r14 ; ret ; \x50\x48\x8b\x7c\x24\x58\x48\x83\xc4\x30\x41\x5e\xc3 (1 found)
0x140006bf8: push rax ; mov rdi, qword [rsp+0x58] ; add rsp, 0x30 ; pop r14 ; ret ; \x50\x48\x8b\x7c\x24\x58\x48\x83\xc4\x30\x41\x5e\xc3 (1 found)
0x140006e04: push rax ; mov rdi, qword [rsp+0x58] ; add rsp, 0x30 ; pop r14 ; ret ; \x50\x48\x8b\x7c\x24\x58\x48\x83\xc4\x30\x41\x5e\xc3 (1 found)
0x140007010: push rax ; mov rdi, qword [rsp+0x58] ; add rsp, 0x30 ; pop r14 ; ret ; \x50\x48\x8b\x7c\x24\x58\x48\x83\xc4\x30\x41\x5e\xc3 (1 found)
0x14000721c: push rax ; mov rdi, qword [rsp+0x58] ; add rsp, 0x30 ; pop r14 ; ret ; \x50\x48\x8b\x7c\x24\x58\x48\x83\xc4\x30\x41\x5e\xc3 (1 found)
0x140007428: push rax ; mov rdi, qword [rsp+0x58] ; add rsp, 0x30 ; pop r14 ; ret ; \x50\x48\x8b\x7c\x24\x58\x48\x83\xc4\x30\x41\x5e\xc3 (1 found)
0x140007634: push rax ; mov rdi, qword [rsp+0x58] ; add rsp, 0x30 ; pop r14 ; ret ; \x50\x48\x8b\x7c\x24\x58\x48\x83\xc4\x30\x41\x5e\xc3 (1 found)
0x140008918: push rax ; mov rdi, qword [rsp+0x58] ; add rsp, 0x30 ; pop r14 ; ret ; \x50\x48\x8b\x7c\x24\x58\x48\x83\xc4\x30\x41\x5e\xc3 (1 found)
0x140008bea: push rax ; mov rdi, qword [rsp+0x58] ; add rsp, 0x30 ; pop r14 ; ret ; \x50\x48\x8b\x7c\x24\x58\x48\x83\xc4\x30\x41\x5e\xc3 (1 found)
0x140008ec1: push rax ; mov rdi, qword [rsp+0x58] ; add rsp, 0x30 ; pop r14 ; ret ; \x50\x48\x8b\x7c\x24\x58\x48\x83\xc4\x30\x41\x5e\xc3 (1 found)
0x14000be59: push rax ; mov rdi, qword [rsp+0x58] ; add rsp, 0x30 ; pop r14 ; ret ; \x50\x48\x8b\x7c\x24\x58\x48\x83\xc4\x30\x41\x5e\xc3 (1 found)
0x14000fc1f: push rax ; mov rdi, qword [rsp+0x58] ; add rsp, 0x30 ; pop r14 ; ret ; \x50\x48\x8b\x7c\x24\x58\x48\x83\xc4\x30\x41\x5e\xc3 (1 found)
0x1400148bf: push rax ; mov rdi, qword [rsp+0x58] ; add rsp, 0x30 ; pop r14 ; ret ; \x50\x48\x8b\x7c\x24\x58\x48\x83\xc4\x30\x41\x5e\xc3 (1 found)
0x14001a1aa: push rax ; mov rsi, qword [rsp+0x60] ; add rsp, 0x40 ; pop rdi ; ret ; \x50\x48\x8b\x74\x24\x60\x48\x83\xc4\x40\x5f\xc3 (1 found)
0x14000241b: push rax ; not rax ; mov qword [0x000000014002A040], rax ; add rsp, 0x30 ; pop rbp ; ret ; \x50\x48\xf7\xd0\x48\x89\x05\x1a\x7c\x02\x00\x48\x83\xc4\x30\x5d\xc3 (1 found)
0x14000ef98: push rax ; pop r14 ; ret ; \x50\x41\x5e\xc3 (1 found)
0x14001a4b5: push rax ; pop r14 ; ret ; \x50\x41\x5e\xc3 (1 found)
0x14000f4fe: push rax ; pop r15 ; ret ; \x50\x41\x5f\xc3 (1 found)
0x14000573e: push rax ; pop rbp ; ret ; \x50\x5d\xc3 (1 found)
0x140010156: push rax ; pop rbp ; ret ; \x50\x5d\xc3 (1 found)
0x14001a82e: push rax ; pop rbx ; ret ; \x50\x5b\xc3 (1 found)
0x14000557c: push rax ; pop rdi ; ret ; \x50\x5f\xc3 (1 found)
0x14000f252: push rax ; pop rdi ; ret ; \x50\x5f\xc3 (1 found)
0x14000f8e8: push rax ; pop rdi ; ret ; \x50\x5f\xc3 (1 found)
0x140010c25: push rax ; pop rdi ; ret ; \x50\x5f\xc3 (1 found)
0x140010da1: push rax ; pop rdi ; ret ; \x50\x5f\xc3 (1 found)
0x14001233d: push rax ; pop rdi ; ret ; \x50\x5f\xc3 (1 found)
0x140017e44: push rax ; pop rdi ; ret ; \x50\x5f\xc3 (1 found)
0x1400183aa: push rax ; pop rdi ; ret ; \x50\x5f\xc3 (1 found)
0x140019339: push rax ; pop rdi ; ret ; \x50\x5f\xc3 (1 found)
0x14001b87d: push rax ; push cs ; ret ; \x50\x0e\xc3 (1 found)
0x1400155b3: push rax ; xadd  [rcx+0x0000015C], eax ; dec eax ; ret ; \xff\xf0\x0f\xc1\x81\x5c\x01\x00\x00\xff\xc8\xc3 (1 found)
0x140017d4f: push rbp ; add byte [rax], al ; add byte [rcx+0x2BCD8B48], bl ; retn 0xF8D1 ; \x55\x00\x00\x00\x99\x48\x8b\xcd\x2b\xc2\xd1\xf8 (1 found)
0x14000eac1: push rbp ; add byte [rax], al ; mov qword [rbx], rax ; add rsp, 0x20 ; pop rbx ; ret ; \x55\x00\x00\x48\x89\x03\x48\x83\xc4\x20\x5b\xc3 (1 found)
0x14000eaf8: push rbp ; add byte [rax], al ; mov qword [rbx], rax ; add rsp, 0x20 ; pop rbx ; ret ; \x44\x55\x00\x00\x48\x89\x03\x48\x83\xc4\x20\x5b\xc3 (1 found)
0x14000eaf9: push rbp ; add byte [rax], al ; mov qword [rbx], rax ; add rsp, 0x20 ; pop rbx ; ret ; \x55\x00\x00\x48\x89\x03\x48\x83\xc4\x20\x5b\xc3 (1 found)
0x140014659: push rbx ; retn 0xFFFF ; \x53\xc2\xff\xff (1 found)
0x140007aa9: push rcx ; mov qword [rcx+0x40], rax ; ret ; \x51\x48\x48\x89\x41\x40\xc3 (1 found)
0x140007b49: push rcx ; mov qword [rcx+0x40], rax ; ret ; \x51\x48\x48\x89\x41\x40\xc3 (1 found)
0x140007be9: push rcx ; mov qword [rcx+0x40], rax ; ret ; \x51\x48\x48\x89\x41\x40\xc3 (1 found)
0x14000806d: push rcx ; mov qword [rcx+0x40], rax ; ret ; \x51\x48\x48\x89\x41\x40\xc3 (1 found)
0x14000810d: push rcx ; mov qword [rcx+0x40], rax ; ret ; \x51\x48\x48\x89\x41\x40\xc3 (1 found)
0x1400081ad: push rcx ; mov qword [rcx+0x40], rax ; ret ; \x51\x48\x48\x89\x41\x40\xc3 (1 found)
0x140003d26: push rdx ; sbb al, 0x48 ; mov eax,  [rcx] ; mov  [rdx+rax], r8d ; ret ; \x52\x1c\x48\x8b\x01\x44\x89\x04\x02\xc3 (1 found)
0x14001639e: push rdx ; xor byte [rax], al ; add byte [rax-0x75], cl ; ret ; \x52\x30\x00\x00\x48\x8b\xc3 (1 found)
0x140002b5a: push rsi ; enter 0x0F66, 0xD7 ; rol  [rbp+0x480A75C0], 0xFFFFFF83 ; retn 0x4910 ; \x56\xc8\x66\x0f\xd7\xc1\x85\xc0\x75\x0a\x48\x83\xc2\x10\x49 (1 found)
0x14001b95e: push rsp ; add dh, al ; movdqu  [rcx], xmm1 ; movdqu  [rcx+r8-0x10], xmm2 ; ret ; \x54\x02\xf0\xf3\x0f\x7f\x09\xf3\x42\x0f\x7f\x54\x01\xf0\xc3 (1 found)
0x14001b969: push rsp ; add eax, esi ; ret ; \x54\x01\xf0\xc3 (1 found)
0x140019e15: push rsp ; and al, 0x08 ; ret ; \x54\x24\x08\xc3 (1 found)
0x140019e8b: push rsp ; and al, 0x08 ; ret ; \x54\x24\x08\xc3 (1 found)
0x14001ab96: push rsp ; and al, 0x08 ; ret ; \x54\x24\x08\xc3 (1 found)
0x14001abaa: push rsp ; and al, 0x08 ; ret ; \x54\x24\x08\xc3 (1 found)
0x14000f6bc: pushfq ; and al, 0x98 ; add byte [rax], al ; add dh, dh ; ret ; \x9c\x24\x98\x00\x00\x00\xf6\xc3 (1 found)
0x140017a30: pushfq ; cmp eax, 0x8B490001 ; retn 0xC148 ; \x9c\x3d\x01\x00\x49\x8b\xc2\x48\xc1 (1 found)
0x140015c0c: pushfq ; mov ecx,  [rbx-0x3474EFB0] ; mov rax, rsi ; mov r8, qword [0x000000014001D308] ; call r8 ; \x9c\x8b\x8b\x50\x10\x8b\xcb\x48\x8b\xc6\x4c\x8b\x05\xeb\x76\x00\x00\x41\xff\xd0 (1 found)
0x140001d3b: rcl  [rax], 0x66 ; test ecx, 0x0175FFFF ; ret ; \xc1\x10\x66\xf7\xc1\xff\xff\x75\x01\xc3 (1 found)
0x140002da3: rcl byte [rax], 0xEB ; in al, 0x48 ; mov eax, edx ; ret ; \xc0\x10\xeb\xe4\x48\x8b\xc2\xc3 (1 found)
0x14001b0b8: rdpmc ; sar byte [rcx+0x0000020B], 0x66 ; cmp  [rdx+0x18], ecx ; sete al ; ret ; \x0f\x33\xc0\xb9\x0b\x02\x00\x00\x66\x39\x4a\x18\x0f\x94\xc0\xc3 (1 found)
0x14001b82b: rep movsb ; pop rsi ; pop rdi ; ret ; \xf3\xa4\x5e\x5f\xc3 (1 found)
0x140008454: rep ret ; \xf3\xc3 (1 found)
0x14001b469: rep stosb ; mov rax, r9 ; pop rdi ; ret ; \xf3\xaa\x49\x8b\xc1\x5f\xc3 (1 found)
0x140010e1c: rep stosq ; mov rdi, qword [rsp+0x08] ; mov al, 0x01 ; ret ; \xf3\x48\xab\x48\x8b\x7c\x24\x08\xb0\x01\xc3 (1 found)
0x140001007: ret ; \xc3 (1 found)
0x140001053: ret ; \xc3 (1 found)
0x14000109b: ret ; \xc3 (1 found)
0x1400010ab: ret ; \x48\xc3 (1 found)
0x1400010ac: ret ; \xc3 (1 found)
0x1400010b7: ret ; \xc3 (1 found)
0x140001120: ret ; \xc3 (1 found)
0x140001171: ret ; \xc3 (1 found)
0x140001189: ret ; \xc3 (1 found)
0x1400011c3: ret ; \x48\xc3 (1 found)
0x1400011c4: ret ; \xc3 (1 found)
0x14000130d: ret ; \xc3 (1 found)
0x14000131d: ret ; \xc3 (1 found)
0x140001328: ret ; \xc3 (1 found)
0x140001335: ret ; \xc3 (1 found)
0x140001768: ret ; \xc3 (1 found)
0x14000177d: ret ; \xc3 (1 found)
0x1400018b2: ret ; \xc3 (1 found)
0x1400018bc: ret ; \xc3 (1 found)
0x140001ad9: ret ; \xc3 (1 found)
0x140001ae9: ret ; \xc3 (1 found)
0x140001b06: ret ; \xc3 (1 found)
0x140001b46: ret ; \xc3 (1 found)
0x140001b96: ret ; \xc3 (1 found)
0x140001bfc: ret ; \xc3 (1 found)
0x140001d44: ret ; \xc3 (1 found)
0x140001dfa: ret ; \xc3 (1 found)
0x140001e17: ret ; \xc3 (1 found)
0x140001ed1: ret ; \xc3 (1 found)
0x140001f5f: ret ; \xc3 (1 found)
0x140001f7a: ret ; \xc3 (1 found)
0x140001f8a: ret ; \xc3 (1 found)
0x1400020ca: ret ; \xc3 (1 found)
0x14000213c: ret ; \xc3 (1 found)
0x140002174: ret ; \xc3 (1 found)
0x1400021b5: ret ; \xc3 (1 found)
0x140002237: ret ; \xc3 (1 found)
0x1400022db: ret ; \xc3 (1 found)
0x1400022ff: ret ; \xc3 (1 found)
0x140002328: ret ; \xc3 (1 found)
0x140002365: ret ; \xc3 (1 found)
0x14000237e: ret ; \xc3 (1 found)
0x1400023a0: ret ; \xc3 (1 found)
0x14000240b: ret ; \xc3 (1 found)
0x14000242b: ret ; \xc3 (1 found)
0x14000242e: ret ; \xc3 (1 found)
0x140002435: ret ; \xc3 (1 found)
0x14000243a: ret ; \xc3 (1 found)
0x140002441: ret ; \xc3 (1 found)
0x140002446: ret ; \xc3 (1 found)
0x14000244a: ret ; \xc3 (1 found)
0x14000245e: ret ; \xc3 (1 found)
0x14000246f: ret ; \xc3 (1 found)
0x14000248a: ret ; \xc3 (1 found)
0x140002497: ret ; \xc3 (1 found)
0x14000249f: ret ; \xc3 (1 found)
0x1400024a7: ret ; \xc3 (1 found)
0x1400024af: ret ; \xc3 (1 found)
0x14000253c: ret ; \xc3 (1 found)
0x1400025f7: ret ; \xc3 (1 found)
0x140002602: ret ; \xc3 (1 found)
0x140002654: ret ; \xc3 (1 found)
0x14000266a: ret ; \xc3 (1 found)
0x1400026ac: ret ; \xc3 (1 found)
0x1400026f2: ret ; \xc3 (1 found)
0x140002703: ret ; \xc3 (1 found)
0x14000272e: ret ; \xc3 (1 found)
0x14000273f: ret ; \xc3 (1 found)
0x1400028ed: ret ; \xc3 (1 found)
0x1400028ef: ret ; \xc3 (1 found)
0x140002989: ret ; \xc3 (1 found)
0x140002a0d: ret ; \xc3 (1 found)
0x140002a1b: ret ; \xc3 (1 found)
0x140002a90: ret ; \xc3 (1 found)
0x140002a93: ret ; \xc3 (1 found)
0x140002a97: ret ; \xc3 (1 found)
0x140002aee: ret ; \xc3 (1 found)
0x140002afd: ret ; \xc3 (1 found)
0x140002b36: ret ; \xc3 (1 found)
0x140002b41: ret ; \xc3 (1 found)
0x140002ba2: ret ; \xc3 (1 found)
0x140002bb8: ret ; \xc3 (1 found)
0x140002beb: ret ; \xc3 (1 found)
0x140002c1d: ret ; \xc3 (1 found)
0x140002c28: ret ; \xc3 (1 found)
0x140002c7f: ret ; \xc3 (1 found)
0x140002cfa: ret ; \xc3 (1 found)
0x140002d30: ret ; \xc3 (1 found)
0x140002d3c: ret ; \xc3 (1 found)
0x140002d84: ret ; \x40\xc3 (1 found)
0x140002d85: ret ; \xc3 (1 found)
0x140002daa: ret ; \xc3 (1 found)
0x140002e97: ret ; \xc3 (1 found)
0x140002eb2: ret ; \xc3 (1 found)
0x140002f67: ret ; \xc3 (1 found)
0x140002f6d: ret ; \xc3 (1 found)
0x140002fc2: ret ; \xc3 (1 found)
0x140002feb: ret ; \xc3 (1 found)
0x140003004: ret ; \xc3 (1 found)
0x140003028: ret ; \xc3 (1 found)
0x14000302e: ret ; \xc3 (1 found)
0x14000309b: ret ; \x48\xc3 (1 found)
0x14000309c: ret ; \xc3 (1 found)
0x1400030ce: ret ; \xc3 (1 found)
0x1400030f6: ret ; \xc3 (1 found)
0x140003141: ret ; \xc3 (1 found)
0x140003171: ret ; \xc3 (1 found)
0x140003185: ret ; \xc3 (1 found)
0x1400031f0: ret ; \xc3 (1 found)
0x140003200: ret ; \xc3 (1 found)
0x14000323a: ret ; \xc3 (1 found)
0x14000325a: ret ; \xc3 (1 found)
0x14000326e: ret ; \xc3 (1 found)
0x1400032f7: ret ; \xc3 (1 found)
0x140003336: ret ; \xc3 (1 found)
0x14000337e: ret ; \xc3 (1 found)
0x1400033a1: ret ; \xc3 (1 found)
0x1400033d3: ret ; \xc3 (1 found)
0x1400033e9: ret ; \xc3 (1 found)
0x140003422: ret ; \xc3 (1 found)
0x140003534: ret ; \xc3 (1 found)
0x140003537: ret ; \xc3 (1 found)
0x14000369c: ret ; \xc3 (1 found)
0x140003700: ret ; \xc3 (1 found)
0x140003754: ret ; \xc3 (1 found)
0x1400037b9: ret ; \xc3 (1 found)
0x1400037e5: ret ; \xc3 (1 found)
0x140003830: ret ; \xc3 (1 found)
0x14000384b: ret ; \xc3 (1 found)
0x14000391b: ret ; \xc3 (1 found)
0x140003a46: ret ; \xc3 (1 found)
0x140003b52: ret ; \xc3 (1 found)
0x140003b87: ret ; \xc3 (1 found)
0x140003b8d: ret ; \xc3 (1 found)
0x140003bdc: ret ; \xc3 (1 found)
0x140003bf5: ret ; \xc3 (1 found)
0x140003c09: ret ; \xc3 (1 found)
0x140003c23: ret ; \xc3 (1 found)
0x140003c3b: ret ; \xc3 (1 found)
0x140003cc1: ret ; \xc3 (1 found)
0x140003cf6: ret ; \xc3 (1 found)
0x140003d20: ret ; \xc3 (1 found)
0x140003d2f: ret ; \xc3 (1 found)
0x140003d6a: ret ; \xc3 (1 found)
0x140003dce: ret ; \xc3 (1 found)
0x140003f54: ret ; \xc3 (1 found)
0x140003fb9: ret ; \xc3 (1 found)
0x140004095: ret ; \xc3 (1 found)
0x14000416c: ret ; \xc3 (1 found)
0x1400045f1: ret ; \xc3 (1 found)
0x140004611: ret ; \xc3 (1 found)
0x1400047c5: ret ; \xc3 (1 found)
0x1400048a6: ret ; \xc3 (1 found)
0x1400049ca: ret ; \xc3 (1 found)
0x1400049ec: ret ; \xc3 (1 found)
0x140004aca: ret ; \xc3 (1 found)
0x140004af9: ret ; \xc3 (1 found)
0x140004c20: ret ; \xc3 (1 found)
0x140004c29: ret ; \xc3 (1 found)
0x140004c65: ret ; \xc3 (1 found)
0x140004c6b: ret ; \xc3 (1 found)
0x140004c89: ret ; \xc3 (1 found)
0x140004cb7: ret ; \xc3 (1 found)
0x140004cbd: ret ; \xc3 (1 found)
0x140004cf7: ret ; \xc3 (1 found)
0x140004d15: ret ; \xc3 (1 found)
0x140004d3b: ret ; \xc3 (1 found)
0x140004d59: ret ; \xc3 (1 found)
0x140004f35: ret ; \xc3 (1 found)
0x140004f45: ret ; \xc3 (1 found)
0x140004fca: ret ; \xc3 (1 found)
0x140005083: ret ; \xc3 (1 found)
0x1400050c8: ret ; \xc3 (1 found)
0x140005149: ret ; \xc3 (1 found)
0x1400051a6: ret ; \xc3 (1 found)
0x1400051dd: ret ; \xc3 (1 found)
0x1400051ed: ret ; \xc3 (1 found)
0x140005283: ret ; \xc3 (1 found)
0x1400052d6: ret ; \xc3 (1 found)
0x14000532a: ret ; \xc3 (1 found)
0x140005363: ret ; \xc3 (1 found)
0x140005395: ret ; \xc3 (1 found)
0x14000541f: ret ; \xc3 (1 found)
0x140005478: ret ; \xc3 (1 found)
0x1400054ac: ret ; \xc3 (1 found)
0x1400054d4: ret ; \xc3 (1 found)
0x14000557e: ret ; \xc3 (1 found)
0x1400055b7: ret ; \xc3 (1 found)
0x14000567c: ret ; \xc3 (1 found)
0x140005740: ret ; \xc3 (1 found)
0x1400057a0: ret ; \xc3 (1 found)
0x140005812: ret ; \xc3 (1 found)
0x14000581b: ret ; \xc3 (1 found)
0x14000587f: ret ; \xc3 (1 found)
0x140005881: ret ; \xc3 (1 found)
0x1400058d0: ret ; \xc3 (1 found)
0x140005910: ret ; \xc3 (1 found)
0x140005a8c: ret ; \xc3 (1 found)
0x140005aad: ret ; \xc3 (1 found)
0x140005b73: ret ; \xc3 (1 found)
0x140005c1f: ret ; \xc3 (1 found)
0x140005c57: ret ; \xc3 (1 found)
0x140005c5a: ret ; \xc3 (1 found)
0x140005c5d: ret ; \xc3 (1 found)
0x140005e47: ret ; \xc3 (1 found)
0x140005e6e: ret ; \xc3 (1 found)
0x140005e8d: ret ; \xc3 (1 found)
0x140005eac: ret ; \xc3 (1 found)
0x140005eaf: ret ; \xc3 (1 found)
0x140005eca: ret ; \xc3 (1 found)
0x140005fdc: ret ; \xc3 (1 found)
0x140005ff7: ret ; \xc3 (1 found)
0x14000623c: ret ; \xc3 (1 found)
0x14000627c: ret ; \xc3 (1 found)
0x140006280: ret ; \xc3 (1 found)
0x1400063d4: ret ; \xc3 (1 found)
0x1400065e0: ret ; \xc3 (1 found)
0x1400067ec: ret ; \xc3 (1 found)
0x1400069f8: ret ; \xc3 (1 found)
0x140006c04: ret ; \xc3 (1 found)
0x140006e10: ret ; \xc3 (1 found)
0x14000701c: ret ; \xc3 (1 found)
0x140007228: ret ; \xc3 (1 found)
0x140007434: ret ; \xc3 (1 found)
0x140007640: ret ; \xc3 (1 found)
0x1400076c5: ret ; \x40\x40\xc3 (1 found)
0x1400076c6: ret ; \x40\xc3 (1 found)
0x1400076c7: ret ; \xc3 (1 found)
0x140007749: ret ; \x40\x40\xc3 (1 found)
0x14000774a: ret ; \x40\xc3 (1 found)
0x14000774b: ret ; \xc3 (1 found)
0x1400077cd: ret ; \x40\x40\xc3 (1 found)
0x1400077ce: ret ; \x40\xc3 (1 found)
0x1400077cf: ret ; \xc3 (1 found)
0x140007853: ret ; \xc3 (1 found)
0x14000788a: ret ; \x41\x40\xc3 (1 found)
0x14000788b: ret ; \x40\xc3 (1 found)
0x14000788c: ret ; \xc3 (1 found)
0x140007913: ret ; \xc3 (1 found)
0x14000794a: ret ; \x41\x40\xc3 (1 found)
0x14000794b: ret ; \x40\xc3 (1 found)
0x14000794c: ret ; \xc3 (1 found)
0x1400079d3: ret ; \xc3 (1 found)
0x140007a0a: ret ; \x41\x40\xc3 (1 found)
0x140007a0b: ret ; \x40\xc3 (1 found)
0x140007a0c: ret ; \xc3 (1 found)
0x140007a7d: ret ; \xc3 (1 found)
0x140007aad: ret ; \x41\x40\xc3 (1 found)
0x140007aae: ret ; \x40\xc3 (1 found)
0x140007aaf: ret ; \xc3 (1 found)
0x140007b1d: ret ; \xc3 (1 found)
0x140007b4d: ret ; \x41\x40\xc3 (1 found)
0x140007b4e: ret ; \x40\xc3 (1 found)
0x140007b4f: ret ; \xc3 (1 found)
0x140007bbd: ret ; \xc3 (1 found)
0x140007bed: ret ; \x41\x40\xc3 (1 found)
0x140007bee: ret ; \x40\xc3 (1 found)
0x140007bef: ret ; \xc3 (1 found)
0x140007c73: ret ; \x40\x40\xc3 (1 found)
0x140007c74: ret ; \x40\xc3 (1 found)
0x140007c75: ret ; \xc3 (1 found)
0x140007cfb: ret ; \x40\x40\xc3 (1 found)
0x140007cfc: ret ; \x40\xc3 (1 found)
0x140007cfd: ret ; \xc3 (1 found)
0x140007d83: ret ; \x40\x40\xc3 (1 found)
0x140007d84: ret ; \x40\xc3 (1 found)
0x140007d85: ret ; \xc3 (1 found)
0x140007e11: ret ; \xc3 (1 found)
0x140007e48: ret ; \x41\x40\xc3 (1 found)
0x140007e49: ret ; \x40\xc3 (1 found)
0x140007e4a: ret ; \xc3 (1 found)
0x140007ed5: ret ; \xc3 (1 found)
0x140007f0c: ret ; \x41\x40\xc3 (1 found)
0x140007f0d: ret ; \x40\xc3 (1 found)
0x140007f0e: ret ; \xc3 (1 found)
0x140007f99: ret ; \xc3 (1 found)
0x140007fd0: ret ; \x41\x40\xc3 (1 found)
0x140007fd1: ret ; \x40\xc3 (1 found)
0x140007fd2: ret ; \xc3 (1 found)
0x140008041: ret ; \xc3 (1 found)
0x140008071: ret ; \x41\x40\xc3 (1 found)
0x140008072: ret ; \x40\xc3 (1 found)
0x140008073: ret ; \xc3 (1 found)
0x1400080e1: ret ; \xc3 (1 found)
0x140008111: ret ; \x41\x40\xc3 (1 found)
0x140008112: ret ; \x40\xc3 (1 found)
0x140008113: ret ; \xc3 (1 found)
0x140008181: ret ; \xc3 (1 found)
0x1400081b1: ret ; \x41\x40\xc3 (1 found)
0x1400081b2: ret ; \x40\xc3 (1 found)
0x1400081b3: ret ; \xc3 (1 found)
0x1400082a4: ret ; \xc3 (1 found)
0x1400082cf: ret ; \xc3 (1 found)
0x1400083c0: ret ; \xc3 (1 found)
0x1400083eb: ret ; \xc3 (1 found)
0x140008455: ret ; \xc3 (1 found)
0x1400084c0: ret ; \xc3 (1 found)
0x140008555: ret ; \xc3 (1 found)
0x1400085e5: ret ; \xc3 (1 found)
0x140008675: ret ; \xc3 (1 found)
0x140008924: ret ; \xc3 (1 found)
0x140008bf6: ret ; \xc3 (1 found)
0x140008ecd: ret ; \xc3 (1 found)
0x1400090ac: ret ; \xc3 (1 found)
0x14000925c: ret ; \xc3 (1 found)
0x14000940c: ret ; \xc3 (1 found)
0x140009464: ret ; \xc3 (1 found)
0x1400098d2: ret ; \xc3 (1 found)
0x140009928: ret ; \xc3 (1 found)
0x140009d96: ret ; \xc3 (1 found)
0x14000a0ba: ret ; \xc3 (1 found)
0x14000a1fb: ret ; \xc3 (1 found)
0x14000a278: ret ; \xc3 (1 found)
0x14000a2f8: ret ; \xc3 (1 found)
0x14000a378: ret ; \xc3 (1 found)
0x14000a5e2: ret ; \xc3 (1 found)
0x14000a84a: ret ; \xc3 (1 found)
0x14000aab2: ret ; \xc3 (1 found)
0x14000ab77: ret ; \xc3 (1 found)
0x14000ac3b: ret ; \xc3 (1 found)
0x14000acff: ret ; \xc3 (1 found)
0x14000adae: ret ; \xc3 (1 found)
0x14000ae66: ret ; \xc3 (1 found)
0x14000ae8d: ret ; \xc3 (1 found)
0x14000af1e: ret ; \xc3 (1 found)
0x14000afc3: ret ; \xc3 (1 found)
0x14000b05f: ret ; \xc3 (1 found)
0x14000b0fb: ret ; \xc3 (1 found)
0x14000b16e: ret ; \xc3 (1 found)
0x14000b1e2: ret ; \xc3 (1 found)
0x14000b256: ret ; \xc3 (1 found)
0x14000b2d5: ret ; \xc3 (1 found)
0x14000b337: ret ; \xc3 (1 found)
0x14000b37c: ret ; \xc3 (1 found)
0x14000b45c: ret ; \xc3 (1 found)
0x14000b583: ret ; \xc3 (1 found)
0x14000b6a7: ret ; \xc3 (1 found)
0x14000b880: ret ; \xc3 (1 found)
0x14000b982: ret ; \xc3 (1 found)
0x14000b9aa: ret ; \xc3 (1 found)
0x14000b9bc: ret ; \xc3 (1 found)
0x14000b9f9: ret ; \xc3 (1 found)
0x14000ba1a: ret ; \xc3 (1 found)
0x14000bace: ret ; \xc3 (1 found)
0x14000bb6b: ret ; \xc3 (1 found)
0x14000bb9d: ret ; \xc3 (1 found)
0x14000bbe0: ret ; \xc3 (1 found)
0x14000bc4c: ret ; \xc3 (1 found)
0x14000bcac: ret ; \xc3 (1 found)
0x14000bd3b: ret ; \xc3 (1 found)
0x14000bd58: ret ; \xc3 (1 found)
0x14000be0d: ret ; \xc3 (1 found)
0x14000be65: ret ; \xc3 (1 found)
0x14000bedb: ret ; \xc3 (1 found)
0x14000bf30: ret ; \xc3 (1 found)
0x14000bf3b: ret ; \xc3 (1 found)
0x14000bf84: ret ; \xc3 (1 found)
0x14000c05c: ret ; \xc3 (1 found)
0x14000c0cb: ret ; \xc3 (1 found)
0x14000c0e0: ret ; \xc3 (1 found)
0x14000c0f7: ret ; \xc3 (1 found)
0x14000c128: ret ; \xc3 (1 found)
0x14000c163: ret ; \xc3 (1 found)
0x14000c190: ret ; \xc3 (1 found)
0x14000c196: ret ; \xc3 (1 found)
0x14000c1fb: ret ; \xc3 (1 found)
0x14000c201: ret ; \xc3 (1 found)
0x14000c54d: ret ; \xc3 (1 found)
0x14000c65d: ret ; \xc3 (1 found)
0x14000c6bf: ret ; \xc3 (1 found)
0x14000c935: ret ; \xc3 (1 found)
0x14000c9a4: ret ; \xc3 (1 found)
0x14000ca8e: ret ; \xc3 (1 found)
0x14000cbc4: ret ; \xc3 (1 found)
0x14000cc19: ret ; \xc3 (1 found)
0x14000cc59: ret ; \xc3 (1 found)
0x14000cc78: ret ; \xc3 (1 found)
0x14000cc85: ret ; \xc3 (1 found)
0x14000cc8f: ret ; \xc3 (1 found)
0x14000ccb3: ret ; \xc3 (1 found)
0x14000cd09: ret ; \xc3 (1 found)
0x14000cd32: ret ; \xc3 (1 found)
0x14000ce16: ret ; \xc3 (1 found)
0x14000cf42: ret ; \xc3 (1 found)
0x14000cf4a: ret ; \xc3 (1 found)
0x14000cf6b: ret ; \xc3 (1 found)
0x14000cf73: ret ; \xc3 (1 found)
0x14000cf97: ret ; \xc3 (1 found)
0x14000cfd4: ret ; \xc3 (1 found)
0x14000d179: ret ; \xc3 (1 found)
0x14000d1ce: ret ; \xc3 (1 found)
0x14000d1d8: ret ; \xc3 (1 found)
0x14000d35d: ret ; \xc3 (1 found)
0x14000d3cd: ret ; \xc3 (1 found)
0x14000d4be: ret ; \xc3 (1 found)
0x14000d4d7: ret ; \xc3 (1 found)
0x14000d52c: ret ; \xc3 (1 found)
0x14000d570: ret ; \xc3 (1 found)
0x14000d5ad: ret ; \xc3 (1 found)
0x14000d649: ret ; \xc3 (1 found)
0x14000d665: ret ; \xc3 (1 found)
0x14000d6a2: ret ; \xc3 (1 found)
0x14000d735: ret ; \xc3 (1 found)
0x14000d76f: ret ; \xc3 (1 found)
0x14000d780: ret ; \xc3 (1 found)
0x14000d7b7: ret ; \xc3 (1 found)
0x14000d7ca: ret ; \xc3 (1 found)
0x14000d7fb: ret ; \xc3 (1 found)
0x14000d838: ret ; \xc3 (1 found)
0x14000d91f: ret ; \xc3 (1 found)
0x14000d944: ret ; \xc3 (1 found)
0x14000d94a: ret ; \xc3 (1 found)
0x14000d953: ret ; \xc3 (1 found)
0x14000d95b: ret ; \xc3 (1 found)
0x14000d9af: ret ; \xc3 (1 found)
0x14000d9c9: ret ; \xc3 (1 found)
0x14000d9d7: ret ; \xc3 (1 found)
0x14000da05: ret ; \xc3 (1 found)
0x14000da70: ret ; \xc3 (1 found)
0x14000da7b: ret ; \xc3 (1 found)
0x14000daa6: ret ; \xc3 (1 found)
0x14000daaf: ret ; \xc3 (1 found)
0x14000daea: ret ; \xc3 (1 found)
0x14000db26: ret ; \xc3 (1 found)
0x14000dc2b: ret ; \xc3 (1 found)
0x14000dc5a: ret ; \xc3 (1 found)
0x14000dc7c: ret ; \xc3 (1 found)
0x14000dc9a: ret ; \xc3 (1 found)
0x14000dcd7: ret ; \xc3 (1 found)
0x14000ddf7: ret ; \xc3 (1 found)
0x14000de4a: ret ; \xc3 (1 found)
0x14000de54: ret ; \xc3 (1 found)
0x14000de72: ret ; \xc3 (1 found)
0x14000debb: ret ; \xc3 (1 found)
0x14000decc: ret ; \xc3 (1 found)
0x14000def2: ret ; \xc3 (1 found)
0x14000def6: ret ; \xc3 (1 found)
0x14000defa: ret ; \xc3 (1 found)
0x14000df0b: ret ; \xc3 (1 found)
0x14000df0e: ret ; \xc3 (1 found)
0x14000df12: ret ; \xc3 (1 found)
0x14000df50: ret ; \xc3 (1 found)
0x14000df9b: ret ; \xc3 (1 found)
0x14000dff6: ret ; \xc3 (1 found)
0x14000dffa: ret ; \xc3 (1 found)
0x14000e02d: ret ; \xc3 (1 found)
0x14000e09f: ret ; \xc3 (1 found)
0x14000e0a5: ret ; \xc3 (1 found)
0x14000e1af: ret ; \xc3 (1 found)
0x14000e1b4: ret ; \xc3 (1 found)
0x14000e1bc: ret ; \xc3 (1 found)
0x14000e1ef: ret ; \xc3 (1 found)
0x14000e207: ret ; \xc3 (1 found)
0x14000e25a: ret ; \xc3 (1 found)
0x14000e290: ret ; \xc3 (1 found)
0x14000e2ab: ret ; \xc3 (1 found)
0x14000e2d2: ret ; \xc3 (1 found)
0x14000e2d4: ret ; \xc3 (1 found)
0x14000e2da: ret ; \xc3 (1 found)
0x14000e345: ret ; \xc3 (1 found)
0x14000e393: ret ; \xc3 (1 found)
0x14000e4ee: ret ; \xc3 (1 found)
0x14000e4f7: ret ; \xc3 (1 found)
0x14000e592: ret ; \xc3 (1 found)
0x14000e609: ret ; \xc3 (1 found)
0x14000e641: ret ; \xc3 (1 found)
0x14000e67d: ret ; \xc3 (1 found)
0x14000e6f3: ret ; \xc3 (1 found)
0x14000e706: ret ; \xc3 (1 found)
0x14000e70c: ret ; \xc3 (1 found)
0x14000e756: ret ; \xc3 (1 found)
0x14000e779: ret ; \xc3 (1 found)
0x14000e79b: ret ; \xc3 (1 found)
0x14000e7bb: ret ; \xc3 (1 found)
0x14000e7f7: ret ; \xc3 (1 found)
0x14000e833: ret ; \xc3 (1 found)
0x14000e855: ret ; \xc3 (1 found)
0x14000e8ee: ret ; \xc3 (1 found)
0x14000e9bf: ret ; \xc3 (1 found)
0x14000ea2d: ret ; \xc3 (1 found)
0x14000ea60: ret ; \xc3 (1 found)
0x14000ea98: ret ; \xc3 (1 found)
0x14000eacc: ret ; \xc3 (1 found)
0x14000eb04: ret ; \xc3 (1 found)
0x14000eb7a: ret ; \xc3 (1 found)
0x14000ec27: ret ; \xc3 (1 found)
0x14000ec8d: ret ; \xc3 (1 found)
0x14000ee9e: ret ; \xc3 (1 found)
0x14000ef9b: ret ; \xc3 (1 found)
0x14000f004: ret ; \xc3 (1 found)
0x14000f023: ret ; \xc3 (1 found)
0x14000f07f: ret ; \xc3 (1 found)
0x14000f254: ret ; \xc3 (1 found)
0x14000f297: ret ; \xc3 (1 found)
0x14000f2aa: ret ; \xc3 (1 found)
0x14000f385: ret ; \xc3 (1 found)
0x14000f3ad: ret ; \xc3 (1 found)
0x14000f481: ret ; \xc3 (1 found)
0x14000f501: ret ; \xc3 (1 found)
0x14000f619: ret ; \xc3 (1 found)
0x14000f666: ret ; \xc3 (1 found)
0x14000f6c3: ret ; \xc3 (1 found)
0x14000f775: ret ; \xc3 (1 found)
0x14000f798: ret ; \xc3 (1 found)
0x14000f82d: ret ; \xc3 (1 found)
0x14000f861: ret ; \xc3 (1 found)
0x14000f89b: ret ; \xc3 (1 found)
0x14000f8d5: ret ; \xc3 (1 found)
0x14000f8ea: ret ; \xc3 (1 found)
0x14000f9b8: ret ; \xc3 (1 found)
0x14000fa04: ret ; \xc3 (1 found)
0x14000fc2b: ret ; \xc3 (1 found)
0x14000fc52: ret ; \xc3 (1 found)
0x14000fc6b: ret ; \xc3 (1 found)
0x14000fda0: ret ; \xc3 (1 found)
0x14000fdf5: ret ; \xc3 (1 found)
0x14000fe0d: ret ; \xc3 (1 found)
0x14000fe58: ret ; \xc3 (1 found)
0x14000ff22: ret ; \xc3 (1 found)
0x14000ff60: ret ; \xc3 (1 found)
0x14000ffa2: ret ; \xc3 (1 found)
0x14000ffe0: ret ; \xc3 (1 found)
0x140010028: ret ; \xc3 (1 found)
0x14001008a: ret ; \xc3 (1 found)
0x140010158: ret ; \xc3 (1 found)
0x14001017b: ret ; \xc3 (1 found)
0x140010270: ret ; \xc3 (1 found)
0x1400102da: ret ; \xc3 (1 found)
0x1400103a8: ret ; \xc3 (1 found)
0x140010445: ret ; \xc3 (1 found)
0x14001044b: ret ; \xc3 (1 found)
0x14001051b: ret ; \xc3 (1 found)
0x1400105ce: ret ; \xc3 (1 found)
0x1400105d9: ret ; \xc3 (1 found)
0x140010614: ret ; \xc3 (1 found)
0x140010639: ret ; \xc3 (1 found)
0x140010703: ret ; \xc3 (1 found)
0x140010728: ret ; \xc3 (1 found)
0x140010833: ret ; \xc3 (1 found)
0x140010868: ret ; \xc3 (1 found)
0x14001086e: ret ; \xc3 (1 found)
0x140010898: ret ; \xc3 (1 found)
0x1400108af: ret ; \xc3 (1 found)
0x1400108ff: ret ; \xc3 (1 found)
0x140010924: ret ; \xc3 (1 found)
0x1400109ed: ret ; \xc3 (1 found)
0x140010a00: ret ; \xc3 (1 found)
0x140010a52: ret ; \xc3 (1 found)
0x140010a89: ret ; \xc3 (1 found)
0x140010a8c: ret ; \xc3 (1 found)
0x140010b3b: ret ; \xc3 (1 found)
0x140010bd8: ret ; \xc3 (1 found)
0x140010c27: ret ; \xc3 (1 found)
0x140010cb7: ret ; \xc3 (1 found)
0x140010d54: ret ; \xc3 (1 found)
0x140010da3: ret ; \xc3 (1 found)
0x140010e00: ret ; \xc3 (1 found)
0x140010e26: ret ; \xc3 (1 found)
0x140010e49: ret ; \x43\xc3 (1 found)
0x140010e4a: ret ; \xc3 (1 found)
0x140010e53: ret ; \xc3 (1 found)
0x140010e68: ret ; \xc3 (1 found)
0x140010f02: ret ; \xc3 (1 found)
0x140010f1d: ret ; \xc3 (1 found)
0x140010f61: ret ; \xc3 (1 found)
0x140011054: ret ; \xc3 (1 found)
0x1400110d7: ret ; \xc3 (1 found)
0x1400110e2: ret ; \xc3 (1 found)
0x140011174: ret ; \xc3 (1 found)
0x1400115c5: ret ; \xc3 (1 found)
0x1400115ec: ret ; \xc3 (1 found)
0x140011673: ret ; \xc3 (1 found)
0x140011678: ret ; \xc3 (1 found)
0x14001169a: ret ; \xc3 (1 found)
0x1400116b5: ret ; \xc3 (1 found)
0x1400116f1: ret ; \xc3 (1 found)
0x140011785: ret ; \xc3 (1 found)
0x14001178c: ret ; \xc3 (1 found)
0x1400117bd: ret ; \xc3 (1 found)
0x1400117d0: ret ; \xc3 (1 found)
0x14001180c: ret ; \xc3 (1 found)
0x140011953: ret ; \xc3 (1 found)
0x14001197f: ret ; \xc3 (1 found)
0x140011a17: ret ; \xc3 (1 found)
0x140011a6d: ret ; \xc3 (1 found)
0x140011e3d: ret ; \xc3 (1 found)
0x140011e54: ret ; \xc3 (1 found)
0x140011e8a: ret ; \xc3 (1 found)
0x140011e8f: ret ; \xc3 (1 found)
0x140011e95: ret ; \xc3 (1 found)
0x140011eb3: ret ; \xc3 (1 found)
0x140011f9e: ret ; \xc3 (1 found)
0x140012281: ret ; \xc3 (1 found)
0x14001228b: ret ; \xc3 (1 found)
0x1400122a1: ret ; \xc3 (1 found)
0x1400122de: ret ; \xc3 (1 found)
0x14001232f: ret ; \xc3 (1 found)
0x14001233f: ret ; \xc3 (1 found)
0x1400123ab: ret ; \xc3 (1 found)
0x1400123b6: ret ; \xc3 (1 found)
0x140012478: ret ; \xc3 (1 found)
0x140012513: ret ; \xc3 (1 found)
0x140012575: ret ; \xc3 (1 found)
0x1400125e0: ret ; \xc3 (1 found)
0x1400126a3: ret ; \x45\xc3 (1 found)
0x1400126a4: ret ; \xc3 (1 found)
0x14001278d: ret ; \xc3 (1 found)
0x1400127a9: ret ; \xc3 (1 found)
0x140012859: ret ; \xc3 (1 found)
0x140012933: ret ; \xc3 (1 found)
0x140012a34: ret ; \xc3 (1 found)
0x140012a71: ret ; \xc3 (1 found)
0x140012acd: ret ; \xc3 (1 found)
0x140012b8c: ret ; \xc3 (1 found)
0x140012be8: ret ; \xc3 (1 found)
0x140012c14: ret ; \xc3 (1 found)
0x140012d2a: ret ; \xc3 (1 found)
0x140012d33: ret ; \xc3 (1 found)
0x140012d5f: ret ; \xc3 (1 found)
0x140012d72: ret ; \xc3 (1 found)
0x140012d8b: ret ; \xc3 (1 found)
0x140012d9e: ret ; \xc3 (1 found)
0x140012db7: ret ; \xc3 (1 found)
0x140012f33: ret ; \xc3 (1 found)
0x140012fe0: ret ; \xc3 (1 found)
0x14001302b: ret ; \xc3 (1 found)
0x14001307c: ret ; \xc3 (1 found)
0x140013253: ret ; \xc3 (1 found)
0x14001325c: ret ; \xc3 (1 found)
0x140013265: ret ; \xc3 (1 found)
0x1400132ba: ret ; \xc3 (1 found)
0x140013360: ret ; \xc3 (1 found)
0x14001338e: ret ; \xc3 (1 found)
0x1400134b1: ret ; \xc3 (1 found)
0x1400134e5: ret ; \xc3 (1 found)
0x140013561: ret ; \xc3 (1 found)
0x140013607: ret ; \xc3 (1 found)
0x140013641: ret ; \xc3 (1 found)
0x1400136be: ret ; \xc3 (1 found)
0x1400139b5: ret ; \xc3 (1 found)
0x140013a2e: ret ; \xc3 (1 found)
0x140013a34: ret ; \xc3 (1 found)
0x140013a6c: ret ; \xc3 (1 found)
0x140013acf: ret ; \xc3 (1 found)
0x140013b34: ret ; \xc3 (1 found)
0x140013ba6: ret ; \xc3 (1 found)
0x140013cb6: ret ; \xc3 (1 found)
0x140013f26: ret ; \xc3 (1 found)
0x140013fc9: ret ; \xc3 (1 found)
0x140013fd9: ret ; \xc3 (1 found)
0x140014019: ret ; \xc3 (1 found)
0x14001403f: ret ; \xc3 (1 found)
0x1400140f8: ret ; \xc3 (1 found)
0x1400141a7: ret ; \xc3 (1 found)
0x140014318: ret ; \xc3 (1 found)
0x140014474: ret ; \xc3 (1 found)
0x140014527: ret ; \xc3 (1 found)
0x1400146bf: ret ; \xc3 (1 found)
0x140014706: ret ; \xc3 (1 found)
0x140014876: ret ; \xc3 (1 found)
0x1400148cb: ret ; \xc3 (1 found)
0x14001495a: ret ; \xc3 (1 found)
0x140014a28: ret ; \xc3 (1 found)
0x140014a7b: ret ; \xc3 (1 found)
0x140014aad: ret ; \xc3 (1 found)
0x140014ac3: ret ; \xc3 (1 found)
0x140014b13: ret ; \xc3 (1 found)
0x140014b79: ret ; \xc3 (1 found)
0x140014c0a: ret ; \xc3 (1 found)
0x140014ca5: ret ; \xc3 (1 found)
0x140014d45: ret ; \xc3 (1 found)
0x140014d71: ret ; \xc3 (1 found)
0x140014d9a: ret ; \xc3 (1 found)
0x140014e2d: ret ; \xc3 (1 found)
0x140014ea4: ret ; \xc3 (1 found)
0x140014ec0: ret ; \xc3 (1 found)
0x140014ef5: ret ; \xc3 (1 found)
0x140014fcd: ret ; \xc3 (1 found)
0x14001503b: ret ; \xc3 (1 found)
0x14001505c: ret ; \xc3 (1 found)
0x14001506d: ret ; \xc3 (1 found)
0x140015177: ret ; \xc3 (1 found)
0x1400151a8: ret ; \xc3 (1 found)
0x1400151ab: ret ; \xc3 (1 found)
0x14001529a: ret ; \xc3 (1 found)
0x14001533a: ret ; \xc3 (1 found)
0x140015560: ret ; \xc3 (1 found)
0x140015566: ret ; \xc3 (1 found)
0x14001559e: ret ; \xc3 (1 found)
0x1400155be: ret ; \xc3 (1 found)
0x1400155c4: ret ; \xc3 (1 found)
0x14001566f: ret ; \xc3 (1 found)
0x1400156cc: ret ; \xc3 (1 found)
0x1400156d7: ret ; \xc3 (1 found)
0x140015744: ret ; \xc3 (1 found)
0x1400157bd: ret ; \xc3 (1 found)
0x1400157dc: ret ; \xc3 (1 found)
0x1400157fb: ret ; \xc3 (1 found)
0x140015806: ret ; \xc3 (1 found)
0x140015843: ret ; \xc3 (1 found)
0x140015856: ret ; \xc3 (1 found)
0x14001589b: ret ; \xc3 (1 found)
0x1400158e1: ret ; \xc3 (1 found)
0x1400158eb: ret ; \xc3 (1 found)
0x14001591c: ret ; \xc3 (1 found)
0x14001591e: ret ; \xc3 (1 found)
0x140015929: ret ; \xc3 (1 found)
0x14001595c: ret ; \xc3 (1 found)
0x140015962: ret ; \xc3 (1 found)
0x1400159a0: ret ; \xc3 (1 found)
0x1400159ab: ret ; \xc3 (1 found)
0x1400159d9: ret ; \xc3 (1 found)
0x1400159f8: ret ; \xc3 (1 found)
0x140015aac: ret ; \xc3 (1 found)
0x140015d47: ret ; \xc3 (1 found)
0x140015d93: ret ; \xc3 (1 found)
0x140015de0: ret ; \xc3 (1 found)
0x140015e57: ret ; \xc3 (1 found)
0x140015ecc: ret ; \xc3 (1 found)
0x14001610a: ret ; \xc3 (1 found)
0x140016211: ret ; \xc3 (1 found)
0x14001623d: ret ; \xc3 (1 found)
0x1400162e5: ret ; \xc3 (1 found)
0x1400162fb: ret ; \xc3 (1 found)
0x1400163a4: ret ; \xc3 (1 found)
0x1400163cb: ret ; \xc3 (1 found)
0x1400163e9: ret ; \xc3 (1 found)
0x140016411: ret ; \xc3 (1 found)
0x14001655d: ret ; \xc3 (1 found)
0x1400165c4: ret ; \xc3 (1 found)
0x1400166b2: ret ; \xc3 (1 found)
0x1400167e0: ret ; \xc3 (1 found)
0x14001682c: ret ; \xc3 (1 found)
0x140016874: ret ; \xc3 (1 found)
0x140016892: ret ; \xc3 (1 found)
0x1400168d3: ret ; \xc3 (1 found)
0x140016939: ret ; \xc3 (1 found)
0x14001695c: ret ; \xc3 (1 found)
0x140016995: ret ; \xc3 (1 found)
0x1400169a3: ret ; \xc3 (1 found)
0x140016a29: ret ; \xc3 (1 found)
0x140016cf6: ret ; \xc3 (1 found)
0x140016f16: ret ; \xc3 (1 found)
0x14001716a: ret ; \xc3 (1 found)
0x1400171c6: ret ; \xc3 (1 found)
0x140017504: ret ; \xc3 (1 found)
0x140017573: ret ; \xc3 (1 found)
0x1400175c4: ret ; \xc3 (1 found)
0x1400175d3: ret ; \xc3 (1 found)
0x140017612: ret ; \xc3 (1 found)
0x14001763a: ret ; \xc3 (1 found)
0x1400176e5: ret ; \xc3 (1 found)
0x14001770e: ret ; \xc3 (1 found)
0x1400177dd: ret ; \xc3 (1 found)
0x1400177f1: ret ; \xc3 (1 found)
0x140017808: ret ; \xc3 (1 found)
0x140017880: ret ; \xc3 (1 found)
0x140017886: ret ; \xc3 (1 found)
0x1400178b1: ret ; \xc3 (1 found)
0x1400179aa: ret ; \xc3 (1 found)
0x140017aa6: ret ; \xc3 (1 found)
0x140017b23: ret ; \xc3 (1 found)
0x140017bee: ret ; \xc3 (1 found)
0x140017cbb: ret ; \xc3 (1 found)
0x140017d1a: ret ; \xc3 (1 found)
0x140017d9d: ret ; \xc3 (1 found)
0x140017df0: ret ; \xc3 (1 found)
0x140017e46: ret ; \xc3 (1 found)
0x140017e9e: ret ; \xc3 (1 found)
0x140018010: ret ; \xc3 (1 found)
0x1400180ad: ret ; \xc3 (1 found)
0x140018149: ret ; \xc3 (1 found)
0x14001818e: ret ; \xc3 (1 found)
0x14001819d: ret ; \xc3 (1 found)
0x1400181da: ret ; \xc3 (1 found)
0x140018207: ret ; \xc3 (1 found)
0x140018374: ret ; \xc3 (1 found)
0x1400183a1: ret ; \xc3 (1 found)
0x1400183ac: ret ; \xc3 (1 found)
0x140018669: ret ; \xc3 (1 found)
0x140018671: ret ; \xc3 (1 found)
0x1400186a6: ret ; \xc3 (1 found)
0x14001889d: ret ; \xc3 (1 found)
0x1400188ab: ret ; \xc3 (1 found)
0x1400188e2: ret ; \xc3 (1 found)
0x140018984: ret ; \xc3 (1 found)
0x140018aa6: ret ; \xc3 (1 found)
0x140018cab: ret ; \xc3 (1 found)
0x140018d76: ret ; \xc3 (1 found)
0x140018da9: ret ; \xc3 (1 found)
0x140018e16: ret ; \xc3 (1 found)
0x140018f26: ret ; \xc3 (1 found)
0x140018f67: ret ; \xc3 (1 found)
0x140018fbb: ret ; \xc3 (1 found)
0x14001906e: ret ; \xc3 (1 found)
0x140019148: ret ; \xc3 (1 found)
0x14001916d: ret ; \xc3 (1 found)
0x1400191e1: ret ; \xc3 (1 found)
0x1400191fa: ret ; \xc3 (1 found)
0x140019227: ret ; \xc3 (1 found)
0x140019326: ret ; \xc3 (1 found)
0x14001933b: ret ; \xc3 (1 found)
0x14001935d: ret ; \xc3 (1 found)
0x1400193c0: ret ; \xc3 (1 found)
0x140019433: ret ; \xc3 (1 found)
0x140019456: ret ; \xc3 (1 found)
0x140019477: ret ; \xc3 (1 found)
0x1400194cf: ret ; \xc3 (1 found)
0x14001951f: ret ; \xc3 (1 found)
0x1400195e1: ret ; \xc3 (1 found)
0x1400196d9: ret ; \xc3 (1 found)
0x140019771: ret ; \xc3 (1 found)
0x140019813: ret ; \xc3 (1 found)
0x14001981b: ret ; \xc3 (1 found)
0x14001983b: ret ; \xc3 (1 found)
0x140019846: ret ; \xc3 (1 found)
0x1400198ea: ret ; \xc3 (1 found)
0x140019a2e: ret ; \xc3 (1 found)
0x140019a9d: ret ; \xc3 (1 found)
0x140019acd: ret ; \xc3 (1 found)
0x140019ad8: ret ; \xc3 (1 found)
0x140019b30: ret ; \xc3 (1 found)
0x140019b5e: ret ; \xc3 (1 found)
0x140019b9a: ret ; \xc3 (1 found)
0x140019ba4: ret ; \xc3 (1 found)
0x140019c5c: ret ; \xc3 (1 found)
0x140019c89: ret ; \xc3 (1 found)
0x140019ce0: ret ; \xc3 (1 found)
0x140019d5b: ret ; \xc3 (1 found)
0x140019e18: ret ; \xc3 (1 found)
0x140019e8e: ret ; \xc3 (1 found)
0x140019e97: ret ; \xc3 (1 found)
0x140019eab: ret ; \xc3 (1 found)
0x140019f3d: ret ; \xc3 (1 found)
0x140019f40: ret ; \xc3 (1 found)
0x140019fff: ret ; \xc3 (1 found)
0x14001a084: ret ; \xc3 (1 found)
0x14001a0d1: ret ; \xc3 (1 found)
0x14001a0d3: ret ; \xc3 (1 found)
0x14001a0d9: ret ; \xc3 (1 found)
0x14001a0f7: ret ; \xc3 (1 found)
0x14001a1a5: ret ; \xc3 (1 found)
0x14001a1b5: ret ; \xc3 (1 found)
0x14001a24f: ret ; \xc3 (1 found)
0x14001a3e2: ret ; \xc3 (1 found)
0x14001a3f7: ret ; \xf2\xc3 (1 found)
0x14001a3f8: ret ; \xc3 (1 found)
0x14001a48f: ret ; \xc3 (1 found)
0x14001a4b8: ret ; \xc3 (1 found)
0x14001a4d2: ret ; \xc3 (1 found)
0x14001a4e6: ret ; \xc3 (1 found)
0x14001a4f3: ret ; \xc3 (1 found)
0x14001a4ff: ret ; \xc3 (1 found)
0x14001a50c: ret ; \xc3 (1 found)
0x14001a513: ret ; \xc3 (1 found)
0x14001a524: ret ; \xc3 (1 found)
0x14001a5a0: ret ; \xc3 (1 found)
0x14001a61d: ret ; \xc3 (1 found)
0x14001a6df: ret ; \xc3 (1 found)
0x14001a761: ret ; \xc3 (1 found)
0x14001a7c9: ret ; \xc3 (1 found)
0x14001a830: ret ; \xc3 (1 found)
0x14001a8ed: ret ; \xc3 (1 found)
0x14001aa16: ret ; \xc3 (1 found)
0x14001aa30: ret ; \xc3 (1 found)
0x14001aaaf: ret ; \xc3 (1 found)
0x14001aacf: ret ; \xc3 (1 found)
0x14001ab65: ret ; \xc3 (1 found)
0x14001ab8f: ret ; \xc3 (1 found)
0x14001ab99: ret ; \xc3 (1 found)
0x14001abad: ret ; \xc3 (1 found)
0x14001abcc: ret ; \xc3 (1 found)
0x14001abf5: ret ; \x48\xc3 (1 found)
0x14001abf6: ret ; \xc3 (1 found)
0x14001aeff: ret ; \xc3 (1 found)
0x14001af2f: ret ; \xc3 (1 found)
0x14001af46: ret ; \xc3 (1 found)
0x14001af4c: ret ; \xc3 (1 found)
0x14001afcb: ret ; \xc3 (1 found)
0x14001afde: ret ; \xc3 (1 found)
0x14001affc: ret ; \xc3 (1 found)
0x14001b043: ret ; \xc3 (1 found)
0x14001b09c: ret ; \xc3 (1 found)
0x14001b0c7: ret ; \xc3 (1 found)
0x14001b0ca: ret ; \xc3 (1 found)
0x14001b0f0: ret ; \xc3 (1 found)
0x14001b0f6: ret ; \xc3 (1 found)
0x14001b114: ret ; \xc3 (1 found)
0x14001b145: ret ; \xc3 (1 found)
0x14001b1fa: ret ; \xc3 (1 found)
0x14001b25d: ret ; \xc3 (1 found)
0x14001b29a: ret ; \xc3 (1 found)
0x14001b386: ret ; \xc3 (1 found)
0x14001b39f: ret ; \xc3 (1 found)
0x14001b3a3: ret ; \xc3 (1 found)
0x14001b3bc: ret ; \xc3 (1 found)
0x14001b46f: ret ; \xc3 (1 found)
0x14001b492: ret ; \xc3 (1 found)
0x14001b4c2: ret ; \xc3 (1 found)
0x14001b4d0: ret ; \xc3 (1 found)
0x14001b4ec: ret ; \xc3 (1 found)
0x14001b4f8: ret ; \xc3 (1 found)
0x14001b506: ret ; \xc3 (1 found)
0x14001b50f: ret ; \xc3 (1 found)
0x14001b519: ret ; \xc3 (1 found)
0x14001b51e: ret ; \xc3 (1 found)
0x14001b535: ret ; \xc3 (1 found)
0x14001b652: ret ; \xc3 (1 found)
0x14001b715: ret ; \xc3 (1 found)
0x14001b7f7: ret ; \xc3 (1 found)
0x14001b82f: ret ; \xc3 (1 found)
0x14001b85e: ret ; \xc3 (1 found)
0x14001b87f: ret ; \xc3 (1 found)
0x14001b897: ret ; \xc3 (1 found)
0x14001b89e: ret ; \xc3 (1 found)
0x14001b8b7: ret ; \xc3 (1 found)
0x14001b8ce: ret ; \xc3 (1 found)
0x14001b8de: ret ; \xc3 (1 found)
0x14001b8f5: ret ; \xc3 (1 found)
0x14001b904: ret ; \xc3 (1 found)
0x14001b912: ret ; \xc3 (1 found)
0x14001b91f: ret ; \xc3 (1 found)
0x14001b92e: ret ; \xc3 (1 found)
0x14001b93c: ret ; \xc3 (1 found)
0x14001b943: ret ; \xc3 (1 found)
0x14001b949: ret ; \xc3 (1 found)
0x14001b94e: ret ; \xc3 (1 found)
0x14001b96c: ret ; \xc3 (1 found)
0x14001b9c1: ret ; \xc3 (1 found)
0x14001bb2d: ret ; \xc3 (1 found)
0x14001bc60: ret ; \xc3 (1 found)
0x14001bdb6: ret ; \xc3 (1 found)
0x14001be9c: ret ; \xc3 (1 found)
0x14001becc: ret ; \xc3 (1 found)
0x14001bee4: ret ; \xc3 (1 found)
0x14001bf7a: ret ; \xc3 (1 found)
0x14001c022: ret ; \xc3 (1 found)
0x14001c047: ret ; \xc3 (1 found)
0x14001c0cd: ret ; \xc3 (1 found)
0x14001c0e3: ret ; \xc3 (1 found)
0x14001c106: ret ; \xc3 (1 found)
0x14001c14d: ret ; \xc3 (1 found)
0x14001c1e6: ret ; \xc3 (1 found)
0x14001c463: ret ; \xc3 (1 found)
0x14001c4f2: ret ; \xc3 (1 found)
0x14001c51e: ret ; \xc3 (1 found)
0x14001c54a: ret ; \xc3 (1 found)
0x14001c56e: ret ; \xc3 (1 found)
0x140002460: retn 0x0000 ; \xc2\x00\x00 (1 found)
0x140002464: retn 0x0000 ; \xc2\x00\x00 (1 found)
0x140002740: retn 0x0000 ; \xc2\x00\x00 (1 found)
0x140010ee2: retn 0x0000 ; \xc2\x00\x00 (1 found)
0x1400161ba: retn 0x0000 ; \xc2\x00\x00 (1 found)
0x140017662: retn 0x0000 ; \xc2\x00\x00 (1 found)
0x140017681: retn 0x0000 ; \xc2\x00\x00 (1 found)
0x14000dd09: retn 0x0001 ; \xf3\xc2\x01\x00 (1 found)
0x14000dd0a: retn 0x0001 ; \xc2\x01\x00 (1 found)
0x14000dd71: retn 0x0001 ; \xc2\x01\x00 (1 found)
0x14000ddbc: retn 0x0001 ; \x40\xc2\x01\x00 (1 found)
0x14000ddbd: retn 0x0001 ; \xc2\x01\x00 (1 found)
0x14000dec0: retn 0x0001 ; \xc2\x01\x00 (1 found)
0x140010125: retn 0x0001 ; \xc2\x01\x00 (1 found)
0x14000e09a: retn 0x0005 ; \xc2\x05\x00 (1 found)
0x14000d7d6: retn 0x000F ; \xc2\x0f\x00 (1 found)
0x140019c75: retn 0x0025 ; \xc2\x25\x00 (1 found)
0x140018cfa: retn 0x0045 ; \xc2\x45\x00 (1 found)
0x14000abee: retn 0x004E ; \xc2\x4e\x00 (1 found)
0x1400152aa: retn 0x0061 ; \xc2\x61\x00 (1 found)
0x14001bd17: retn 0x0080 ; \xc2\x80\x00 (1 found)
0x140019c1a: retn 0x00B9 ; \xc2\xb9\x00 (1 found)
0x140019d49: retn 0x00BB ; \xc2\xbb\x00 (1 found)
0x14001ba6f: retn 0x0100 ; \xc2\x00\x01 (1 found)
0x14001bb9f: retn 0x0100 ; \xc2\x00\x01 (1 found)
0x140018e3a: retn 0x0111 ; \xc2\x11\x01 (1 found)
0x14000363a: retn 0x019C ; \xc2\x9c\x01 (1 found)
0x1400184f5: retn 0x01B9 ; \xc2\xb9\x01 (1 found)
0x14000b8da: retn 0x01F9 ; \xc2\xf9\x01 (1 found)
0x14000844e: retn 0x0288 ; \xc2\x88\x02 (1 found)
0x14000a538: retn 0x028A ; \xc2\x8a\x02 (1 found)
0x14000a7a0: retn 0x028A ; \xc2\x8a\x02 (1 found)
0x14000aa08: retn 0x028A ; \xc2\x8a\x02 (1 found)
0x140015dd7: retn 0x02EB ; \xc2\xeb\x02 (1 found)
0x14000f03a: retn 0x0348 ; \xc2\x48\x03 (1 found)
0x14000f76e: retn 0x0348 ; \xc2\x48\x03 (1 found)
0x14001299d: retn 0x0348 ; \xc2\x48\x03 (1 found)
0x14001b37a: retn 0x0349 ; \xc2\x49\x03 (1 found)
0x1400161a4: retn 0x034D ; \xc2\x4d\x03 (1 found)
0x140006018: retn 0x0377 ; \xc2\x77\x03 (1 found)
0x14000a077: retn 0x03EB ; \xc2\xeb\x03 (1 found)
0x14000909c: retn 0x0773 ; \xc2\x73\x07 (1 found)
0x14000924c: retn 0x0773 ; \xc2\x73\x07 (1 found)
0x1400093fc: retn 0x0773 ; \xc2\x73\x07 (1 found)
0x14001662f: retn 0x0773 ; \xc2\x73\x07 (1 found)
0x14001671d: retn 0x0773 ; \xc2\x73\x07 (1 found)
0x1400168a1: retn 0x0773 ; \xc2\x73\x07 (1 found)
0x1400168b0: retn 0x0773 ; \xc2\x73\x07 (1 found)
0x140016967: retn 0x0773 ; \xc2\x73\x07 (1 found)
0x140016976: retn 0x0773 ; \xc2\x73\x07 (1 found)
0x140012999: retn 0x0775 ; \xc2\x75\x07 (1 found)
0x1400195d6: retn 0x0874 ; \xc2\x74\x08 (1 found)
0x14001a3ec: retn 0x0974 ; \xc2\x74\x09 (1 found)
0x140002d24: retn 0x0A74 ; \xc2\x74\x0a (1 found)
0x140005d1b: retn 0x0A75 ; \xc2\x75\x0a (1 found)
0x1400131c6: retn 0x0AEB ; \xc2\xeb\x0a (1 found)
0x1400038d5: retn 0x0B74 ; \xc2\x74\x0b (1 found)
0x140012835: retn 0x0B88 ; \xc2\x88\x0b (1 found)
0x1400101bb: retn 0x0C74 ; \xc2\x74\x0c (1 found)
0x140009f5e: retn 0x0C75 ; \xc2\x75\x0c (1 found)
0x14000a5ac: retn 0x0D73 ; \xc2\x73\x0d (1 found)
0x14000a814: retn 0x0D73 ; \xc2\x73\x0d (1 found)
0x14000aa7c: retn 0x0D73 ; \xc2\x73\x0d (1 found)
0x140019d60: retn 0x0D74 ; \xc2\x74\x0d (1 found)
0x14001b2f6: retn 0x0F10 ; \xc2\x10\x0f (1 found)
0x140019bf1: retn 0x0F44 ; \xc2\x44\x0f (1 found)
0x14001338a: retn 0x0F48 ; \xc2\x48\x0f (1 found)
0x140016182: retn 0x0F49 ; \xc2\x49\x0f (1 found)
0x140002b54: retn 0x0F66 ; \xc2\x66\x0f (1 found)
0x1400196f0: retn 0x0F66 ; \xc2\x66\x0f (1 found)
0x140019766: retn 0x0F66 ; \xc2\x66\x0f (1 found)
0x14001b33a: retn 0x0F66 ; \xc2\x66\x0f (1 found)
0x14001b3d5: retn 0x0F66 ; \xc2\x66\x0f (1 found)
0x140002ca3: retn 0x0FF2 ; \xc2\xf2\x0f (1 found)
0x14001974e: retn 0x0FF2 ; \xc2\xf2\x0f (1 found)
0x140019827: retn 0x0FF2 ; \xc2\xf2\x0f (1 found)
0x14000ed56: retn 0x1188 ; \xc2\x88\x11 (1 found)
0x14001b2f1: retn 0x1375 ; \xc2\x75\x13 (1 found)
0x14000d0d3: retn 0x1C75 ; \xc2\x75\x1c (1 found)
0x140012c8b: retn 0x1C75 ; \xc2\x75\x1c (1 found)
0x1400184d5: retn 0x1E74 ; \xc2\x74\x1e (1 found)
0x1400184e9: retn 0x1F75 ; \xc2\x75\x1f (1 found)
0x1400184df: retn 0x2174 ; \xc2\x74\x21 (1 found)
0x140002950: retn 0x2175 ; \xc2\x75\x21 (1 found)
0x1400163ba: retn 0x2175 ; \xc2\x75\x21 (1 found)
0x140019400: retn 0x2341 ; \xc2\x41\x23 (1 found)
0x14001a617: retn 0x2341 ; \xc2\x41\x23 (1 found)
0x14000f71d: retn 0x2348 ; \xc2\x48\x23 (1 found)
0x14001953a: retn 0x2348 ; \xc2\x48\x23 (1 found)
0x140002b3b: retn 0x2349 ; \xc2\x49\x23 (1 found)
0x140002c17: retn 0x2349 ; \xc2\x49\x23 (1 found)
0x14000ecee: retn 0x2349 ; \xc2\x49\x23 (1 found)
0x14000f593: retn 0x2349 ; \xc2\x49\x23 (1 found)
0x140003214: retn 0x2374 ; \xc2\x74\x23 (1 found)
0x140019c07: retn 0x2774 ; \xc2\x74\x27 (1 found)
0x14000f5d0: retn 0x28EB ; \xc2\xeb\x28 (1 found)
0x140016627: retn 0x2B41 ; \xc2\x41\x2b (1 found)
0x140016715: retn 0x2B41 ; \xc2\x41\x2b (1 found)
0x140008cee: retn 0x2B48 ; \xc2\x48\x2b (1 found)
0x1400129e0: retn 0x2B48 ; \xc2\x48\x2b (1 found)
0x14000e8eb: retn 0x2B49 ; \xc2\x49\x2b (1 found)
0x140008ce2: retn 0x2B66 ; \xc2\x66\x2b (1 found)
0x1400095c0: retn 0x2B66 ; \xc2\x66\x2b (1 found)
0x140009a84: retn 0x2B66 ; \xc2\x66\x2b (1 found)
0x1400195a7: retn 0x33B9 ; \xc2\xb9\x33 (1 found)
0x140014264: retn 0x3802 ; \xc2\x02\x38 (1 found)
0x140016241: retn 0x3873 ; \xc2\x73\x38 (1 found)
0x14000d315: retn 0x3948 ; \xc2\x48\x39 (1 found)
0x140008405: retn 0x3A41 ; \xc2\x41\x3a (1 found)
0x140002f4e: retn 0x3B41 ; \xc2\x41\x3b (1 found)
0x140016204: retn 0x3B41 ; \xc2\x41\x3b (1 found)
0x1400174de: retn 0x3B45 ; \xc2\x45\x3b (1 found)
0x140002aeb: retn 0x3B49 ; \xc2\x49\x3b (1 found)
0x140002b33: retn 0x3B49 ; \xc2\x49\x3b (1 found)
0x140002b3e: retn 0x3B49 ; \xc2\x49\x3b (1 found)
0x140002b9f: retn 0x3B49 ; \xc2\x49\x3b (1 found)
0x140002be8: retn 0x3B49 ; \xc2\x49\x3b (1 found)
0x140002c1a: retn 0x3B49 ; \xc2\x49\x3b (1 found)
0x140002c25: retn 0x3B49 ; \xc2\x49\x3b (1 found)
0x1400112e6: retn 0x3B49 ; \xc2\x49\x3b (1 found)
0x140011320: retn 0x3B49 ; \xc2\x49\x3b (1 found)
0x140016155: retn 0x3B4D ; \xc2\x4d\x3b (1 found)
0x14000b3ec: retn 0x3B75 ; \xc2\x75\x3b (1 found)
0x14000a5c2: retn 0x3C80 ; \xc2\x80\x3c (1 found)
0x14000a82a: retn 0x3C80 ; \xc2\x80\x3c (1 found)
0x14000aa92: retn 0x3C80 ; \xc2\x80\x3c (1 found)
0x14000299b: retn 0x4075 ; \xc2\x75\x40 (1 found)
0x1400038dc: retn 0x4114 ; \xc2\x14\x41 (1 found)
0x140007a62: retn 0x4166 ; \xc2\x66\x41 (1 found)
0x140007b02: retn 0x4166 ; \xc2\x66\x41 (1 found)
0x140007ba2: retn 0x4166 ; \xc2\x66\x41 (1 found)
0x140008026: retn 0x4166 ; \xc2\x66\x41 (1 found)
0x1400080c6: retn 0x4166 ; \xc2\x66\x41 (1 found)
0x140008166: retn 0x4166 ; \xc2\x66\x41 (1 found)
0x1400095dc: retn 0x4166 ; \xc2\x66\x41 (1 found)
0x140009aa0: retn 0x4166 ; \xc2\x66\x41 (1 found)
0x14000600d: retn 0x418D ; \xc2\x8d\x41 (1 found)
0x14000d00b: retn 0x4408 ; \xc2\x08\x44 (1 found)
0x140015183: retn 0x4466 ; \xc2\x66\x44 (1 found)
0x14000f11b: retn 0x449C ; \xc2\x9c\x44 (1 found)
0x14000f13c: retn 0x44F6 ; \xc2\xf6\x44 (1 found)
0x14001240c: retn 0x44F6 ; \xc2\xf6\x44 (1 found)
0x1400112b1: retn 0x4589 ; \xc2\x89\x45 (1 found)
0x14000d873: retn 0x4638 ; \x4c\xc2\x38\x46 (1 found)
0x14000d874: retn 0x4638 ; \xc2\x38\x46 (1 found)
0x14000edc6: retn 0x4688 ; \x48\xc2\x88\x46 (1 found)
0x14000edc7: retn 0x4688 ; \xc2\x88\x46 (1 found)
0x140016ee9: retn 0x470F ; \xc2\x0f\x47 (1 found)
0x14000e890: retn 0x4802 ; \xc2\x02\x48 (1 found)
0x14000e8cf: retn 0x4802 ; \xc2\x02\x48 (1 found)
0x14000e965: retn 0x4802 ; \xc2\x02\x48 (1 found)
0x14000e9a4: retn 0x4802 ; \xc2\x02\x48 (1 found)
0x14000ea1d: retn 0x4802 ; \xc2\x02\x48 (1 found)
0x140013c47: retn 0x4802 ; \xc2\x02\x48 (1 found)
0x14000d0ac: retn 0x4808 ; \xc2\x08\x48 (1 found)
0x14000300f: retn 0x4809 ; \xc2\x09\x48 (1 found)
0x140002286: retn 0x4818 ; \xc2\x18\x48 (1 found)
0x14000ee3a: retn 0x489C ; \xc2\x9c\x48 (1 found)
0x14000ee70: retn 0x48F6 ; \xc2\xf6\x48 (1 found)
0x14000cca3: retn 0x4902 ; \xc2\x02\x49 (1 found)
0x140002b66: retn 0x4910 ; \xc2\x10\x49 (1 found)
0x140002c44: retn 0x4910 ; \xc2\x10\x49 (1 found)
0x14000d8ad: retn 0x4A38 ; \x4c\xc2\x38\x4a (1 found)
0x14000d8ae: retn 0x4A38 ; \xc2\x38\x4a (1 found)
0x14000d8c1: retn 0x4A38 ; \x4c\xc2\x38\x4a (1 found)
0x14000d8c2: retn 0x4A38 ; \xc2\x38\x4a (1 found)
0x14000d8df: retn 0x4A38 ; \x4c\xc2\x38\x4a (1 found)
0x14000d8e0: retn 0x4A38 ; \xc2\x38\x4a (1 found)
0x140016256: retn 0x4C8B ; \xc2\x8b\x4c (1 found)
0x140002a56: retn 0x560F ; \xc2\x0f\x56 (1 found)
0x140011591: retn 0x6348 ; \xc2\x48\x63 (1 found)
0x140015fa6: retn 0x6349 ; \xc2\x49\x63 (1 found)
0x140018420: retn 0x6480 ; \xc2\x80\x64 (1 found)
0x1400032b2: retn 0x6774 ; \xc2\x74\x67 (1 found)
0x140006014: retn 0x6D77 ; \xc2\x77\x6d (1 found)
0x140008897: retn 0x7401 ; \xc2\x01\x74 (1 found)
0x140008b74: retn 0x7401 ; \xc2\x01\x74 (1 found)
0x1400097a9: retn 0x7401 ; \xc2\x01\x74 (1 found)
0x140009c6d: retn 0x7401 ; \xc2\x01\x74 (1 found)
0x14000b3c9: retn 0x7401 ; \xc2\x01\x74 (1 found)
0x140017ab6: retn 0x7401 ; \xc2\x01\x74 (1 found)
0x14001b0e0: retn 0x7401 ; \xc2\x01\x74 (1 found)
0x14001ad1d: retn 0x7404 ; \xc2\x04\x74 (1 found)
0x14001ad2a: retn 0x7408 ; \xc2\x08\x74 (1 found)
0x14001ad37: retn 0x7410 ; \xc2\x10\x74 (1 found)
0x14001ad44: retn 0x7420 ; \xc2\x20\x74 (1 found)
0x1400164e8: retn 0x7489 ; \xc2\x89\x74 (1 found)
0x140018e9d: retn 0x79E8 ; \xc2\xe8\x79 (1 found)
0x14000ed0f: retn 0x79FC ; \xc2\xfc\x79 (1 found)
0x14001415d: retn 0x7A8D ; \xc2\x8d\x7a (1 found)
0x140012b24: retn 0x8141 ; \xc2\x41\x81 (1 found)
0x140013aae: retn 0x818A ; \xc2\x8a\x81 (1 found)
0x14001a4e0: retn 0x8341 ; \xc2\x41\x83 (1 found)
0x14001b321: retn 0x8341 ; \xc2\x41\x83 (1 found)
0x14000235f: retn 0x8348 ; \xc2\x48\x83 (1 found)
0x1400039e5: retn 0x8348 ; \xc2\x48\x83 (1 found)
0x14001104f: retn 0x8348 ; \xc2\x48\x83 (1 found)
0x140013520: retn 0x8348 ; \xc2\x48\x83 (1 found)
0x140013881: retn 0x8349 ; \xc2\x49\x83 (1 found)
0x140013926: retn 0x8349 ; \xc2\x49\x83 (1 found)
0x140014269: retn 0x8349 ; \xc2\x49\x83 (1 found)
0x14001b3f1: retn 0x8349 ; \xc2\x49\x83 (1 found)
0x14000623f: retn 0x8366 ; \xc2\x66\x83 (1 found)
0x14000d053: retn 0x8366 ; \xc2\x66\x83 (1 found)
0x14001a620: retn 0x840F ; \xc2\x0f\x84 (1 found)
0x1400163e0: retn 0x850F ; \xc2\x0f\x85 (1 found)
0x140016cb8: retn 0x8545 ; \xc2\x45\x85 (1 found)
0x14001711d: retn 0x8545 ; \xc2\x45\x85 (1 found)
0x1400043dc: retn 0x8948 ; \xc2\x48\x89 (1 found)
0x140004bba: retn 0x8948 ; \xc2\x48\x89 (1 found)
0x14000a029: retn 0x8948 ; \xc2\x48\x89 (1 found)
0x140011fbd: retn 0x8948 ; \xc2\x48\x89 (1 found)
0x1400195c3: retn 0x8948 ; \xc2\x48\x89 (1 found)
0x1400039f0: retn 0x894C ; \xc2\x4c\x89 (1 found)
0x140013b63: retn 0x8A02 ; \xc2\x02\x8a (1 found)
0x140008447: retn 0x8A41 ; \xc2\x41\x8a (1 found)
0x14000a543: retn 0x8A44 ; \xc2\x44\x8a (1 found)
0x14000a7ab: retn 0x8A44 ; \xc2\x44\x8a (1 found)
0x14000aa13: retn 0x8A44 ; \xc2\x44\x8a (1 found)
0x140009fa9: retn 0x8B02 ; \xc2\x02\x8b (1 found)
0x14000d879: retn 0x8B39 ; \xc2\x39\x8b (1 found)
0x140011625: retn 0x8B41 ; \xc2\x41\x8b (1 found)
0x140011729: retn 0x8B41 ; \xc2\x41\x8b (1 found)
0x1400162ab: retn 0x8B41 ; \xc2\x41\x8b (1 found)
0x140019cd6: retn 0x8B41 ; \xc2\x41\x8b (1 found)
0x14001a4ea: retn 0x8B41 ; \x44\xc2\x41\x8b (1 found)
0x14001a4eb: retn 0x8B41 ; \xc2\x41\x8b (1 found)
0x140019bee: retn 0x8B44 ; \xc2\x44\x8b (1 found)
0x140011849: retn 0x8B45 ; \xc2\x45\x8b (1 found)
0x14000b163: retn 0x8B48 ; \xc2\x48\x8b (1 found)
0x14000b1d7: retn 0x8B48 ; \xc2\x48\x8b (1 found)
0x14000b24b: retn 0x8B48 ; \xc2\x48\x8b (1 found)
0x14000ccfe: retn 0x8B48 ; \xc2\x48\x8b (1 found)
0x14000ce3f: retn 0x8B48 ; \xc2\x48\x8b (1 found)
0x1400108b8: retn 0x8B48 ; \xc2\x48\x8b (1 found)
0x140013d45: retn 0x8B48 ; \xc2\x48\x8b (1 found)
0x14001a11b: retn 0x8B48 ; \xc2\x48\x8b (1 found)
0x14001a7b4: retn 0x8B48 ; \xc2\x48\x8b (1 found)
0x14001b462: retn 0x8B48 ; \xc2\x48\x8b (1 found)
0x14000536a: retn 0x8B49 ; \xc2\x49\x8b (1 found)
0x14000dc20: retn 0x8B49 ; \xc2\x49\x8b (1 found)
0x140012ef0: retn 0x8B49 ; \xc2\x49\x8b (1 found)
0x140002a22: retn 0x8B4C ; \xc2\x4c\x8b (1 found)
0x140002c82: retn 0x8B4C ; \xc2\x4c\x8b (1 found)
0x140007a49: retn 0x8B4C ; \xc2\x4c\x8b (1 found)
0x140007ae9: retn 0x8B4C ; \xc2\x4c\x8b (1 found)
0x140007b89: retn 0x8B4C ; \xc2\x4c\x8b (1 found)
0x14000800d: retn 0x8B4C ; \xc2\x4c\x8b (1 found)
0x1400080ad: retn 0x8B4C ; \xc2\x4c\x8b (1 found)
0x14000814d: retn 0x8B4C ; \xc2\x4c\x8b (1 found)
0x140014d1e: retn 0x8B4C ; \xc2\x4c\x8b (1 found)
0x140019ee8: retn 0x8B4C ; \xc2\x4c\x8b (1 found)
0x140019bcb: retn 0x8D41 ; \xc2\x41\x8d (1 found)
0x140004c3b: retn 0x8D48 ; \xc2\x48\x8d (1 found)
0x140004c97: retn 0x8D48 ; \xc2\x48\x8d (1 found)
0x1400169d6: retn 0x8D48 ; \xc2\x48\x8d (1 found)
0x140017945: retn 0x8D48 ; \xc2\x48\x8d (1 found)
0x140017a41: retn 0x8D48 ; \xc2\x48\x8d (1 found)
0x14000e8f5: retn 0x8D49 ; \xc2\x49\x8d (1 found)
0x14000e9c9: retn 0x8D49 ; \xc2\x49\x8d (1 found)
0x14000b152: retn 0x8D4C ; \xc2\x4c\x8d (1 found)
0x14000b1c6: retn 0x8D4C ; \xc2\x4c\x8d (1 found)
0x14000b23a: retn 0x8D4C ; \xc2\x4c\x8d (1 found)
0x140010fd1: retn 0x8D4C ; \xc2\x4c\x8d (1 found)
0x140013a5e: retn 0x8D4C ; \xc2\x4c\x8d (1 found)
0x14000e9b8: retn 0x8D4D ; \xc2\x4d\x8d (1 found)
0x14001b79d: retn 0x8D4D ; \xc2\x4d\x8d (1 found)
0x1400112c1: retn 0x8F0F ; \xc2\x0f\x8f (1 found)
0x1400062b3: retn 0x920F ; \xc2\x0f\x92 (1 found)
0x140009f80: retn 0x940F ; \xc2\x0f\x94 (1 found)
0x14001b30c: retn 0xA5E9 ; \xc2\xe9\xa5 (1 found)
0x140017cf9: retn 0xB60F ; \xc2\x0f\xb6 (1 found)
0x14000227f: retn 0xB70F ; \xc2\x0f\xb7 (1 found)
0x14000f6f2: retn 0xB841 ; \xc2\x41\xb8 (1 found)
0x1400029a3: retn 0xC148 ; \xc2\x48\xc1 (1 found)
0x14000edee: retn 0xC148 ; \xc2\x48\xc1 (1 found)
0x14000ee27: retn 0xC148 ; \xc2\x48\xc1 (1 found)
0x14000ee5d: retn 0xC148 ; \xc2\x48\xc1 (1 found)
0x14000f6d0: retn 0xC148 ; \xc2\x48\xc1 (1 found)
0x14001111c: retn 0xC148 ; \xc2\x48\xc1 (1 found)
0x140014d0f: retn 0xC148 ; \xc2\x48\xc1 (1 found)
0x14001793a: retn 0xC148 ; \xc2\x48\xc1 (1 found)
0x140017a36: retn 0xC148 ; \xc2\x48\xc1 (1 found)
0x140007836: retn 0xC166 ; \xc2\x66\xc1 (1 found)
0x1400078f6: retn 0xC166 ; \xc2\x66\xc1 (1 found)
0x1400079b6: retn 0xC166 ; \xc2\x66\xc1 (1 found)
0x140007df4: retn 0xC166 ; \xc2\x66\xc1 (1 found)
0x140007eb8: retn 0xC166 ; \xc2\x66\xc1 (1 found)
0x140007f7c: retn 0xC166 ; \xc2\x66\xc1 (1 found)
0x14000294e: retn 0xC23A ; \xc2\x3a\xc2 (1 found)
0x140002999: retn 0xC23A ; \xc2\x3a\xc2 (1 found)
0x140019c9a: retn 0xC28B ; \xc2\x8b\xc2 (1 found)
0x1400039e2: retn 0xC2FF ; \x44\xc2\xff\xc2 (1 found)
0x1400039e3: retn 0xC2FF ; \xc2\xff\xc2 (1 found)
0x14000f750: retn 0xC641 ; \xc2\x41\xc6 (1 found)
0x1400161f4: retn 0xC88B ; \xc2\x8b\xc8 (1 found)
0x140019e2c: retn 0xC91B ; \xc2\x1b\xc9 (1 found)
0x140002da9: retn 0xCCC3 ; \xc2\xc3\xcc (1 found)
0x14000ea2c: retn 0xCCC3 ; \xc2\xc3\xcc (1 found)
0x140019c88: retn 0xCCC3 ; \xc2\xc3\xcc (1 found)
0x140019af9: retn 0xD1C5 ; \xc2\xc5\xd1 (1 found)
0x14000c901: retn 0xD233 ; \xc2\x33\xd2 (1 found)
0x1400055fc: retn 0xD348 ; \xc2\x48\xd3 (1 found)
0x14000f58d: retn 0xD348 ; \xc2\x48\xd3 (1 found)
0x140012cb8: retn 0xD374 ; \xc2\x74\xd3 (1 found)
0x140012172: retn 0xD8F6 ; \xc2\xf6\xd8 (1 found)
0x140011566: retn 0xDF7C ; \xc2\x7c\xdf (1 found)
0x14000dc3d: retn 0xE083 ; \xc2\x83\xe0 (1 found)
0x14000dc80: retn 0xE083 ; \xc2\x83\xe0 (1 found)
0x14000dc9e: retn 0xE083 ; \xc2\x83\xe0 (1 found)
0x140019c9c: retn 0xE083 ; \xc2\x83\xe0 (1 found)
0x140019cb5: retn 0xE083 ; \xc2\x83\xe0 (1 found)
0x140019cc0: retn 0xE083 ; \xc2\x83\xe0 (1 found)
0x140019e25: retn 0xE083 ; \xc2\x83\xe0 (1 found)
0x140019e44: retn 0xE083 ; \xc2\x83\xe0 (1 found)
0x140019e52: retn 0xE083 ; \xc2\x83\xe0 (1 found)
0x14001b35e: retn 0xE0D3 ; \xc2\xd3\xe0 (1 found)
0x140010987: retn 0xE0E9 ; \xc2\xe9\xe0 (1 found)
0x140019fd6: retn 0xE183 ; \xc2\x83\xe1 (1 found)
0x140014b30: retn 0xE283 ; \xc2\x83\xe2 (1 found)
0x140014c18: retn 0xE283 ; \xc2\x83\xe2 (1 found)
0x140006445: retn 0xE8C1 ; \xc2\xc1\xe8 (1 found)
0x140006457: retn 0xE8C1 ; \xc2\xc1\xe8 (1 found)
0x140006490: retn 0xE8C1 ; \xc2\xc1\xe8 (1 found)
0x1400064b8: retn 0xE8C1 ; \xc2\xc1\xe8 (1 found)
0x140006538: retn 0xE8C1 ; \xc2\xc1\xe8 (1 found)
0x140006651: retn 0xE8C1 ; \xc2\xc1\xe8 (1 found)
0x140006663: retn 0xE8C1 ; \xc2\xc1\xe8 (1 found)
0x14000669c: retn 0xE8C1 ; \xc2\xc1\xe8 (1 found)
0x1400066c4: retn 0xE8C1 ; \xc2\xc1\xe8 (1 found)
0x140006744: retn 0xE8C1 ; \xc2\xc1\xe8 (1 found)
0x14000685d: retn 0xE8C1 ; \xc2\xc1\xe8 (1 found)
0x14000686f: retn 0xE8C1 ; \xc2\xc1\xe8 (1 found)
0x1400068a8: retn 0xE8C1 ; \xc2\xc1\xe8 (1 found)
0x1400068d0: retn 0xE8C1 ; \xc2\xc1\xe8 (1 found)
0x140006950: retn 0xE8C1 ; \xc2\xc1\xe8 (1 found)
0x140006a69: retn 0xE8C1 ; \xc2\xc1\xe8 (1 found)
0x140006a7b: retn 0xE8C1 ; \xc2\xc1\xe8 (1 found)
0x140006ab4: retn 0xE8C1 ; \xc2\xc1\xe8 (1 found)
0x140006adc: retn 0xE8C1 ; \xc2\xc1\xe8 (1 found)
0x140006b5c: retn 0xE8C1 ; \xc2\xc1\xe8 (1 found)
0x140006c75: retn 0xE8C1 ; \xc2\xc1\xe8 (1 found)
0x140006c87: retn 0xE8C1 ; \xc2\xc1\xe8 (1 found)
0x140006cc0: retn 0xE8C1 ; \xc2\xc1\xe8 (1 found)
0x140006ce8: retn 0xE8C1 ; \xc2\xc1\xe8 (1 found)
0x140006d68: retn 0xE8C1 ; \xc2\xc1\xe8 (1 found)
0x140006e81: retn 0xE8C1 ; \xc2\xc1\xe8 (1 found)
0x140006e93: retn 0xE8C1 ; \xc2\xc1\xe8 (1 found)
0x140006ecc: retn 0xE8C1 ; \xc2\xc1\xe8 (1 found)
0x140006ef4: retn 0xE8C1 ; \xc2\xc1\xe8 (1 found)
0x140006f74: retn 0xE8C1 ; \xc2\xc1\xe8 (1 found)
0x14000708d: retn 0xE8C1 ; \xc2\xc1\xe8 (1 found)
0x14000709f: retn 0xE8C1 ; \xc2\xc1\xe8 (1 found)
0x1400070d8: retn 0xE8C1 ; \xc2\xc1\xe8 (1 found)
0x140007100: retn 0xE8C1 ; \xc2\xc1\xe8 (1 found)
0x140007180: retn 0xE8C1 ; \xc2\xc1\xe8 (1 found)
0x140007299: retn 0xE8C1 ; \xc2\xc1\xe8 (1 found)
0x1400072ab: retn 0xE8C1 ; \xc2\xc1\xe8 (1 found)
0x1400072e4: retn 0xE8C1 ; \xc2\xc1\xe8 (1 found)
0x14000730c: retn 0xE8C1 ; \xc2\xc1\xe8 (1 found)
0x14000738c: retn 0xE8C1 ; \xc2\xc1\xe8 (1 found)
0x1400074a5: retn 0xE8C1 ; \xc2\xc1\xe8 (1 found)
0x1400074b7: retn 0xE8C1 ; \xc2\xc1\xe8 (1 found)
0x1400074f0: retn 0xE8C1 ; \xc2\xc1\xe8 (1 found)
0x140007518: retn 0xE8C1 ; \xc2\xc1\xe8 (1 found)
0x140007598: retn 0xE8C1 ; \xc2\xc1\xe8 (1 found)
0x14000f111: retn 0xE8C1 ; \xc2\xc1\xe8 (1 found)
0x14000f132: retn 0xE8C1 ; \xc2\xc1\xe8 (1 found)
0x140016ecb: retn 0xE8C1 ; \xc2\xc1\xe8 (1 found)
0x14001769c: retn 0xEAC1 ; \xc2\xc1\xea (1 found)
0x1400022b4: retn 0xEB28 ; \xc2\x28\xeb (1 found)
0x14000d8d5: retn 0xEB38 ; \x4c\xc2\x38\xeb (1 found)
0x14000d8d6: retn 0xEB38 ; \xc2\x38\xeb (1 found)
0x140019a12: retn 0xEBC5 ; \xc2\xc5\xeb (1 found)
0x140017650: retn 0xF800 ; \xc2\x00\xf8 (1 found)
0x140005ff9: retn 0xF883 ; \xc2\x83\xf8 (1 found)
0x140017d58: retn 0xF8D1 ; \xc2\xd1\xf8 (1 found)
0x14001521e: retn 0xF8E8 ; \xc2\xe8\xf8 (1 found)
0x140019a23: retn 0xF9C5 ; \xc2\xc5\xf9 (1 found)
0x14000edfe: retn 0xFC18 ; \xc2\x18\xfc (1 found)
0x14001c296: retn 0xFF1F ; \xc2\x1f\xff (1 found)
0x1400143c9: retn 0xFF33 ; \xc2\x33\xff (1 found)
0x14000cfa7: retn 0xFF48 ; \xc2\x48\xff (1 found)
0x140013c8b: retn 0xFF48 ; \xc2\x48\xff (1 found)
0x140002b84: retn 0xFF49 ; \xc2\x49\xff (1 found)
0x140002c6d: retn 0xFF49 ; \xc2\x49\xff (1 found)
0x14001127d: retn 0xFF49 ; \xc2\x49\xff (1 found)
0x14001c1d2: retn 0xFF5C ; \xc2\x5c\xff (1 found)
0x140017644: retn 0xFF80 ; \xc2\x80\xff (1 found)
0x140015ad6: retn 0xFF8C ; \xc2\x8c\xff (1 found)
0x1400154f6: retn 0xFF92 ; \xc2\x92\xff (1 found)
0x1400101f6: retn 0xFFE5 ; \xc2\xe5\xff (1 found)
0x140012749: retn 0xFFFE ; \xc2\xfe\xff (1 found)
0x140005a99: retn 0xFFFF ; \xc2\xff\xff (1 found)
0x1400109f7: retn 0xFFFF ; \xc2\xff\xff (1 found)
0x140010a0d: retn 0xFFFF ; \xc2\xff\xff (1 found)
0x140014046: retn 0xFFFF ; \xc2\xff\xff (1 found)
0x14001462a: retn 0xFFFF ; \xc2\xff\xff (1 found)
0x14001465a: retn 0xFFFF ; \xc2\xff\xff (1 found)
0x1400149cd: retn 0xFFFF ; \xc2\xff\xff (1 found)
0x140018a17: retn 0xFFFF ; \xc2\xff\xff (1 found)
0x14001bd10: rol  [rax+0x48000000], 0xFFFFFF81 ; retn 0x0080 ; \xc1\x80\x00\x00\x00\x48\x81\xc2\x80\x00 (1 found)
0x14000e95f: rol  [rax], 0x00000000 ; add byte [rax-0x7D], cl ; retn 0x4802 ; \xc1\x00\x00\x00\x48\x83\xc2\x02\x48 (1 found)
0x140002ce5: rol  [rbp+0x0FE074D2], 1 ; mov esp, 0xD00349D2 ; cmp byte [rdx], r10L ; cmove r9, rdx ; mov rax, r9 ; ret ; \xd1\x85\xd2\x74\xe0\x0f\xbc\xd2\x49\x03\xd0\x44\x38\x12\x4c\x0f\x44\xca\x49\x8b\xc1\xc3 (1 found)
0x140002b5f: rol  [rbp+0x480A75C0], 0xFFFFFF83 ; retn 0x4910 ; \xc1\x85\xc0\x75\x0a\x48\x83\xc2\x10\x49 (1 found)
0x140019cd3: rol  [rbx+rcx-0x3E], 0x41 ; mov eax, eax ; shl eax, 0x18 ; or eax, r8d ; ret ; \xc1\x44\x0b\xc2\x41\x8b\xc0\xc1\xe0\x18\x41\x0b\xc0\xc3 (1 found)
0x14001af73: rol  [rcx-0x007F8037], 1 ; jmp qword [rbx] ; \xd1\x81\xc9\x7f\x80\xff\xff\x23 (1 found)
0x14000de62: rol  [rcx], 0x00000000 ; mov qword [rcx], rax ; mov qword [rcx+0x08], rax ; mov qword [rcx+0x10], rax ; xor eax, eax ; ret ; \xc1\x01\x00\x48\x89\x01\x48\x89\x41\x08\x48\x89\x41\x10\x33\xc0\xc3 (1 found)
0x14000e6f5: rol  [rdi+rdi*8-0x01], 0xFFFFFFFF ; mov eax, 0x00000016 ; cmp ecx, 0x0E ; cmovbe eax, r8d ; ret ; \xc1\x44\xff\xff\xff\xb8\x16\x00\x00\x00\x83\xf9\x0e\x41\x0f\x46\xc0\xc3 (1 found)
0x1400151a1: rol  [rdx], 0xFFFFFFEB ; salc ; mov rax, rcx ; ret ; \xc1\x02\xeb\xd6\x48\x8b\xc1\xc3 (1 found)
0x14000e704: rol bl, 0x41 ; mov eax,  [rcx+rax*8+0x04] ; ret ; \x46\xc0\xc3\x41\x8b\x44\xc1\x04\xc3 (1 found)
0x14000e705: rol bl, 0x41 ; mov eax,  [rcx+rax*8+0x04] ; ret ; \xc0\xc3\x41\x8b\x44\xc1\x04\xc3 (1 found)
0x140002496: rol bl, 0x48 ; lea eax,  [0x0000000140046C58] ; ret ; \xc0\xc3\x48\x8d\x05\xb9\x47\x04\x00\xc3 (1 found)
0x14000cf6a: rol bl, 0x48 ; mov  [0x000000014002B2B0], ecx ; ret ; \xc0\xc3\x48\x89\x0d\x3d\xe3\x01\x00\xc3 (1 found)
0x14000e1b3: rol bl, 0x48 ; sbb eax, eax ; or rax, 0x01 ; ret ; \xc0\xc3\x48\x1b\xc0\x48\x83\xc8\x01\xc3 (1 found)
0x140002a92: rol bl, 0x49 ; mov eax, eax ; ret ; \xc0\xc3\x49\x8b\xc0\xc3 (1 found)
0x140002d2f: rol bl, 0x66 ; cmp  [r8], r9d ; cmove rcx, r8 ; mov rax, rcx ; ret ; \xc0\xc3\x66\x45\x39\x08\x49\x0f\x44\xc8\x48\x8b\xc1\xc3 (1 found)
0x140005c56: rol bl, 0xB0 ; add ebx, eax ; xor al, al ; ret ; \xc0\xc3\xb0\x01\xc3\x32\xc0\xc3 (1 found)
0x14000242d: rol bl, 0xCC ; mov eax, 0x00000001 ; ret ; \xc0\xc3\xcc\xb8\x01\x00\x00\x00\xc3 (1 found)
0x140002439: rol bl, 0xCC ; mov eax, 0x00004000 ; ret ; \xc0\xc3\xcc\xb8\x00\x40\x00\x00\xc3 (1 found)
0x140002445: rol bl, 0xCC ; xor eax, eax ; ret ; \xc0\xc3\xcc\x33\xc0\xc3 (1 found)
0x14001a3f1: rol byte [rax+0x7500083C], 0xF2 ; ret ; \xc0\x80\x3c\x08\x00\x75\xf2\xc3 (1 found)
0x140002cef: rol byte [rax+rdi+0x12], 1 ; cmove r9, rdx ; mov rax, r9 ; ret ; \xd0\x44\x38\x12\x4c\x0f\x44\xca\x49\x8b\xc1\xc3 (1 found)
0x140002356: rol byte [rbp+0x440F48C0], cl ; ror  [rax-0x75], cl ; retn 0x8348 ; \xd2\x85\xc0\x48\x0f\x44\xd3\x48\x8b\xc2\x48\x83 (1 found)
0x14001b399: rol byte [rbp-0x742C8B25], 1 ; ret ; \xd0\x85\xdb\x74\xd3\x8b\xc3 (1 found)
0x14001b08a: rol byte [rbx+0x02EB01E0], 1 ; xor eax, eax ; mov rbx, qword [rsp+0x30] ; add rsp, 0x20 ; pop rdi ; ret ; \xd0\x83\xe0\x01\xeb\x02\x33\xc0\x48\x8b\x5c\x24\x30\x48\x83\xc4\x20\x5f\xc3 (1 found)
0x140019e3d: rol byte [rbx-0x37F4EF20], 0x8B ; retn 0xE083 ; \xc0\x83\xe0\x10\x0b\xc8\x8b\xc2\x83\xe0 (1 found)
0x140019e4b: rol byte [rbx-0x37F4F720], 0x8B ; retn 0xE083 ; \xc0\x83\xe0\x08\x0b\xc8\x8b\xc2\x83\xe0 (1 found)
0x140019e7f: rol byte [rbx-0x3EF4C01F], 0x89 ; and al, 0x08 ; ldmxcsr  [rsp+0x08] ; ret ; \xc0\x83\xe1\x3f\x0b\xc1\x89\x44\x24\x08\x0f\xae\x54\x24\x08\xc3 (1 found)
0x14000f034: rol byte [rbx-0x6BF0D2C2], cl ; retn 0x0348 ; \xd2\x83\x3e\x2d\x0f\x94\xc2\x48\x03 (1 found)
0x140003021: rol byte [rcx+rcx*8-0x3FCC0D8B], 0xC3 ; sbb eax, eax ; or eax, 0x01 ; ret ; \xc0\x84\xc9\x75\xf2\x33\xc0\xc3\x1b\xc0\x83\xc8\x01\xc3 (1 found)
0x1400062b0: rol byte [rcx-0x75], 1 ; retn 0x920F ; \xd0\x41\x8b\xc2\x0f\x92 (1 found)
0x14000d86f: rol byte [rdx+0x0F], 0xB6 ; retn 0x4638 ; \xc0\x42\x0f\xb6\x4c\xc2\x38\x46 (1 found)
0x140007882: rol byte [rdx], 0x45 ; mov  [rcx+0x48], eax ; mov qword [r9+0x40], rax ; ret ; \xc0\x02\x45\x89\x41\x48\x49\x89\x41\x40\xc3 (1 found)
0x140007942: rol byte [rdx], 0x45 ; mov  [rcx+0x48], eax ; mov qword [r9+0x40], rax ; ret ; \xc0\x02\x45\x89\x41\x48\x49\x89\x41\x40\xc3 (1 found)
0x140007a02: rol byte [rdx], 0x45 ; mov  [rcx+0x48], eax ; mov qword [r9+0x40], rax ; ret ; \xc0\x02\x45\x89\x41\x48\x49\x89\x41\x40\xc3 (1 found)
0x140007e40: rol byte [rdx], 0x45 ; mov  [rcx+0x48], eax ; mov qword [r9+0x40], rax ; ret ; \xc0\x02\x45\x89\x41\x48\x49\x89\x41\x40\xc3 (1 found)
0x140007f04: rol byte [rdx], 0x45 ; mov  [rcx+0x48], eax ; mov qword [r9+0x40], rax ; ret ; \xc0\x02\x45\x89\x41\x48\x49\x89\x41\x40\xc3 (1 found)
0x140007fc8: rol byte [rdx], 0x45 ; mov  [rcx+0x48], eax ; mov qword [r9+0x40], rax ; ret ; \xc0\x02\x45\x89\x41\x48\x49\x89\x41\x40\xc3 (1 found)
0x1400076ba: rol byte [rdx], 0x48 ; sar ecx, 1 ; mov  [r8+0x48], ecx ; mov qword [r8+0x40], rax ; ret ; \xc0\x02\x48\xd1\xf9\x41\x89\x48\x48\x49\x89\x40\x40\xc3 (1 found)
0x14000773e: rol byte [rdx], 0x48 ; sar ecx, 1 ; mov  [r8+0x48], ecx ; mov qword [r8+0x40], rax ; ret ; \xc0\x02\x48\xd1\xf9\x41\x89\x48\x48\x49\x89\x40\x40\xc3 (1 found)
0x1400077c2: rol byte [rdx], 0x48 ; sar ecx, 1 ; mov  [r8+0x48], ecx ; mov qword [r8+0x40], rax ; ret ; \xc0\x02\x48\xd1\xf9\x41\x89\x48\x48\x49\x89\x40\x40\xc3 (1 found)
0x140007c68: rol byte [rdx], 0x48 ; sar ecx, 1 ; mov  [r8+0x48], ecx ; mov qword [r8+0x40], rax ; ret ; \xc0\x02\x48\xd1\xf9\x41\x89\x48\x48\x49\x89\x40\x40\xc3 (1 found)
0x140007cf0: rol byte [rdx], 0x48 ; sar ecx, 1 ; mov  [r8+0x48], ecx ; mov qword [r8+0x40], rax ; ret ; \xc0\x02\x48\xd1\xf9\x41\x89\x48\x48\x49\x89\x40\x40\xc3 (1 found)
0x140007d78: rol byte [rdx], 0x48 ; sar ecx, 1 ; mov  [r8+0x48], ecx ; mov qword [r8+0x40], rax ; ret ; \xc0\x02\x48\xd1\xf9\x41\x89\x48\x48\x49\x89\x40\x40\xc3 (1 found)
0x140007aa3: rol byte [rdx], 0x48 ; sar edx, 1 ; mov  [rcx+0x48], edx ; mov qword [rcx+0x40], rax ; ret ; \xc0\x02\x48\xd1\xfa\x89\x51\x48\x48\x89\x41\x40\xc3 (1 found)
0x140007b43: rol byte [rdx], 0x48 ; sar edx, 1 ; mov  [rcx+0x48], edx ; mov qword [rcx+0x40], rax ; ret ; \xc0\x02\x48\xd1\xfa\x89\x51\x48\x48\x89\x41\x40\xc3 (1 found)
0x140007be3: rol byte [rdx], 0x48 ; sar edx, 1 ; mov  [rcx+0x48], edx ; mov qword [rcx+0x40], rax ; ret ; \xc0\x02\x48\xd1\xfa\x89\x51\x48\x48\x89\x41\x40\xc3 (1 found)
0x140008067: rol byte [rdx], 0x48 ; sar edx, 1 ; mov  [rcx+0x48], edx ; mov qword [rcx+0x40], rax ; ret ; \xc0\x02\x48\xd1\xfa\x89\x51\x48\x48\x89\x41\x40\xc3 (1 found)
0x140008107: rol byte [rdx], 0x48 ; sar edx, 1 ; mov  [rcx+0x48], edx ; mov qword [rcx+0x40], rax ; ret ; \xc0\x02\x48\xd1\xfa\x89\x51\x48\x48\x89\x41\x40\xc3 (1 found)
0x1400081a7: rol byte [rdx], 0x48 ; sar edx, 1 ; mov  [rcx+0x48], edx ; mov qword [rcx+0x40], rax ; ret ; \xc0\x02\x48\xd1\xfa\x89\x51\x48\x48\x89\x41\x40\xc3 (1 found)
0x140019ac9: rol ebp, 0xFFFFFFFB ; pop rax ; ret ; \xc1\xc5\xfb\x58\xc3 (1 found)
0x140002a8f: rol ebx, 0x33 ; rol bl, 0x49 ; mov eax, eax ; ret ; \xc1\xc3\x33\xc0\xc3\x49\x8b\xc0\xc3 (1 found)
0x140019e96: rol ebx, 0x48 ; and  [rcx], 0x00000000 ; or rax, 0xFFFFFFFFFFFFFFFF ; mov byte [rdx+0x30], 0x01 ; mov  [rdx+0x2C], 0x0000002A ; ret ; \xc1\xc3\x48\x83\x21\x00\x48\x83\xc8\xff\xc6\x42\x30\x01\xc7\x42\x2c\x2a\x00\x00\x00\xc3 (1 found)
0x140014d1b: ror  [rax+0x63], cl ; retn 0x8B4C ; \xd3\x48\x63\xc2\x4c\x8b (1 found)
0x1400023fe: ror  [rax-0x47], 0x33 ; mov byte [0x3B4800002B992DDF], al ; ret ; \xc1\x48\xb9\x33\xa2\xdf\x2d\x99\x2b\x00\x00\x48\x3b\xc3 (1 found)
0x14001b3b6: ror  [rax-0x75], 0x5C ; and al, 0x08 ; ret ; \xc1\x48\x8b\x5c\x24\x08\xc3 (1 found)
0x1400188df: ror  [rax-0x75], cl ; ret ; \xd3\x48\x8b\xc3 (1 found)
0x14000235b: ror  [rax-0x75], cl ; retn 0x8348 ; \x44\xd3\x48\x8b\xc2\x48\x83 (1 found)
0x14000235c: ror  [rax-0x75], cl ; retn 0x8348 ; \xd3\x48\x8b\xc2\x48\x83 (1 found)
0x14000daa1: ror  [rax-0x7D], 0xFFFFFFC4 ; sub bl, al ; int3 ; lea rax, qword [0x000000014002B528] ; ret ; \xc1\x48\x83\xc4\x28\xc3\xcc\x48\x8d\x05\x79\xda\x01\x00\xc3 (1 found)
0x140004cef: ror  [rax], 0xFFFFFFE8 ; mov edx, 0xF6000007 ; ret ; \xc1\x08\xe8\xba\x07\x00\x00\xf6\xc3 (1 found)
0x14000cd2f: ror  [rbp-0x75], 1 ; ret ; \xd1\x4d\x8b\xc3 (1 found)
0x14001b39d: ror  [rbx+0x23D8F7C3], cl ; ret ; \xd3\x8b\xc3\xf7\xd8\x23\xc3 (1 found)
0x1400022ac: ror  [rbx+rdi-0x40], 0x72 ; or byte [rax-0x7D], cl ; retn 0xEB28 ; \xc1\x4c\x3b\xc0\x72\x08\x48\x83\xc2\x28\xeb (1 found)
0x14001c566: ror  [rbx-0x3B7CB73F], 0x20 ; pop rbp ; ret ; \xc1\x8b\xc1\x48\x83\xc4\x20\x5d\xc3 (1 found)
0x1400191f3: ror  [rbx-0x3B7CB73F], 0x28 ; ret ; \xc1\x8b\xc1\x48\x83\xc4\x28\xc3 (1 found)
0x140014eb6: ror  [rcx+0x016EEA05], 0x00000000 ; xor eax, eax ; ret ; \x44\xc1\x89\x05\xea\x6e\x01\x00\x33\xc0\xc3 (1 found)
0x140014eb7: ror  [rcx+0x016EEA05], 0x00000000 ; xor eax, eax ; ret ; \xc1\x89\x05\xea\x6e\x01\x00\x33\xc0\xc3 (1 found)
0x1400030f2: ror  [rcx+0x03], 0xFFFFFFC0 ; ret ; \xc1\x49\x03\xc0\xc3 (1 found)
0x140019e0e: ror  [rcx+0x0F082444], 0xFFFFFFAE ; push rsp ; and al, 0x08 ; ret ; \xc1\x89\x44\x24\x08\x0f\xae\x54\x24\x08\xc3 (1 found)
0x140019e84: ror  [rcx+0x0F082444], 0xFFFFFFAE ; push rsp ; and al, 0x08 ; ret ; \xc1\x89\x44\x24\x08\x0f\xae\x54\x24\x08\xc3 (1 found)
0x14001b142: ror  [rcx+0x63], 1 ; ret ; \xd1\x49\x63\xc3 (1 found)
0x14000537f: ror  [rcx-0x01], 0xFFFFFFE2 ; int3 ; cmp qword [rcx+0x08], 0x0000000000000000 ; lea rax, qword [0x000000014001E3C0] ; cmovne rax, qword [rcx+0x08] ; ret ; \xc1\x49\xff\xe2\xcc\x48\x83\x79\x08\x00\x48\x8d\x05\x30\x90\x01\x00\x48\x0f\x45\x41\x08\xc3 (1 found)
0x140002d80: ror  [rcx-0x73], 0x04 ; ret ; \xc1\x49\x8d\x04\x40\xc3 (1 found)
0x14000586b: ror  [rdx-0x352CB738], 0x49 ; xor edx, eax ; mov qword [0x000000014002B288], rdx ; add rsp, 0x28 ; ret ; \xc1\x8a\xc8\x48\xd3\xca\x49\x33\xd0\x48\x89\x15\x0d\x5a\x02\x00\x48\x83\xc4\x28\xc3 (1 found)
0x140002358: ror byte [rax+0x0F], 0x44 ; ror  [rax-0x75], cl ; retn 0x8348 ; \xc0\x48\x0f\x44\xd3\x48\x8b\xc2\x48\x83 (1 found)
0x14001335c: ror byte [rax+0x0F], 0xA3 ; ret ; \xc0\x48\x0f\xa3\xc3 (1 found)
0x1400195c0: ror byte [rax+0x23], 1 ; retn 0x8948 ; \xd0\x48\x23\xc2\x48\x89 (1 found)
0x14001325e: ror byte [rax+0x3B], 0xCA ; setnbe al ; ret ; \xc0\x48\x3b\xca\x0f\x97\xc0\xc3 (1 found)
0x14000ea26: ror byte [rax-0x2F], 1 ; cli ; mov rax, rdx ; ret ; \xd0\x48\xd1\xfa\x48\x8b\xc2\xc3 (1 found)
0x140002c74: ror byte [rax-0x75], 0x5C ; and al, 0x08 ; mov rdi, qword [rsp+0x10] ; ret ; \xc0\x48\x8b\x5c\x24\x08\x48\x8b\x7c\x24\x10\xc3 (1 found)
0x14000d7bf: ror byte [rax-0x75], 0x5C ; and al, 0x30 ; add rsp, 0x20 ; pop rdi ; ret ; \xc0\x48\x8b\x5c\x24\x30\x48\x83\xc4\x20\x5f\xc3 (1 found)
0x14000ff17: ror byte [rax-0x75], 0x5C ; and al, 0x30 ; add rsp, 0x20 ; pop rdi ; ret ; \xc0\x48\x8b\x5c\x24\x30\x48\x83\xc4\x20\x5f\xc3 (1 found)
0x140015739: ror byte [rax-0x75], 0x5C ; and al, 0x30 ; add rsp, 0x20 ; pop rdi ; ret ; \xc0\x48\x8b\x5c\x24\x30\x48\x83\xc4\x20\x5f\xc3 (1 found)
0x1400193b5: ror byte [rax-0x75], 0x5C ; and al, 0x30 ; add rsp, 0x20 ; pop rdi ; ret ; \xc0\x48\x8b\x5c\x24\x30\x48\x83\xc4\x20\x5f\xc3 (1 found)
0x14001b091: ror byte [rax-0x75], 0x5C ; and al, 0x30 ; add rsp, 0x20 ; pop rdi ; ret ; \xc0\x48\x8b\x5c\x24\x30\x48\x83\xc4\x20\x5f\xc3 (1 found)
0x14000ca7e: ror byte [rax-0x75], 0x5C ; and al, 0x30 ; mov rsi, qword [rsp+0x38] ; add rsp, 0x20 ; pop rdi ; ret ; \xc0\x48\x8b\x5c\x24\x30\x48\x8b\x74\x24\x38\x48\x83\xc4\x20\x5f\xc3 (1 found)
0x1400125d0: ror byte [rax-0x75], 0x5C ; and al, 0x30 ; mov rsi, qword [rsp+0x38] ; add rsp, 0x20 ; pop rdi ; ret ; \xc0\x48\x8b\x5c\x24\x30\x48\x8b\x74\x24\x38\x48\x83\xc4\x20\x5f\xc3 (1 found)
0x14000c158: ror byte [rax-0x75], 0x5C ; and al, 0x38 ; add rsp, 0x20 ; pop rdi ; ret ; \xc0\x48\x8b\x5c\x24\x38\x48\x83\xc4\x20\x5f\xc3 (1 found)
0x140018974: ror byte [rax-0x75], 0x5C ; and al, 0x38 ; mov rbp, qword [rsp+0x40] ; add rsp, 0x20 ; pop rdi ; ret ; \xc0\x48\x8b\x5c\x24\x38\x48\x8b\x6c\x24\x40\x48\x83\xc4\x20\x5f\xc3 (1 found)
0x140005873: ror byte [rax-0x77], 1 ; adc eax, 0x00025A0D ; add rsp, 0x28 ; ret ; \xd0\x48\x89\x15\x0d\x5a\x02\x00\x48\x83\xc4\x28\xc3 (1 found)
0x14000241e: ror byte [rax-0x77], 1 ; add eax, 0x00027C1A ; add rsp, 0x30 ; pop rbp ; ret ; \xd0\x48\x89\x05\x1a\x7c\x02\x00\x48\x83\xc4\x30\x5d\xc3 (1 found)
0x1400157f6: ror byte [rax-0x7D], 0xC4 ; sub bl, al ; and qword [0x000000014002BDB8], 0x0000000000000000 ; mov al, 0x01 ; ret ; \xc0\x48\x83\xc4\x28\xc3\x48\x83\x25\xb4\x65\x01\x00\x00\xb0\x01\xc3 (1 found)
0x14000fc5c: ror byte [rax-0x7D], 0xC9 ; add  [rax+0x39], ecx ; or eax, 0x0001BB40 ; sete al ; ret ; \xc0\x48\x83\xc9\x01\x48\x39\x0d\x40\xbb\x01\x00\x0f\x94\xc0\xc3 (1 found)
0x140007aa0: ror byte [rax-0x7D], 1 ; rol byte [rdx], 0x48 ; sar edx, 1 ; mov  [rcx+0x48], edx ; mov qword [rcx+0x40], rax ; ret ; \xd0\x48\x83\xc0\x02\x48\xd1\xfa\x89\x51\x48\x48\x89\x41\x40\xc3 (1 found)
0x140007b40: ror byte [rax-0x7D], 1 ; rol byte [rdx], 0x48 ; sar edx, 1 ; mov  [rcx+0x48], edx ; mov qword [rcx+0x40], rax ; ret ; \xd0\x48\x83\xc0\x02\x48\xd1\xfa\x89\x51\x48\x48\x89\x41\x40\xc3 (1 found)
0x140007be0: ror byte [rax-0x7D], 1 ; rol byte [rdx], 0x48 ; sar edx, 1 ; mov  [rcx+0x48], edx ; mov qword [rcx+0x40], rax ; ret ; \xd0\x48\x83\xc0\x02\x48\xd1\xfa\x89\x51\x48\x48\x89\x41\x40\xc3 (1 found)
0x140008064: ror byte [rax-0x7D], 1 ; rol byte [rdx], 0x48 ; sar edx, 1 ; mov  [rcx+0x48], edx ; mov qword [rcx+0x40], rax ; ret ; \xd0\x48\x83\xc0\x02\x48\xd1\xfa\x89\x51\x48\x48\x89\x41\x40\xc3 (1 found)
0x140008104: ror byte [rax-0x7D], 1 ; rol byte [rdx], 0x48 ; sar edx, 1 ; mov  [rcx+0x48], edx ; mov qword [rcx+0x40], rax ; ret ; \xd0\x48\x83\xc0\x02\x48\xd1\xfa\x89\x51\x48\x48\x89\x41\x40\xc3 (1 found)
0x1400081a4: ror byte [rax-0x7D], 1 ; rol byte [rdx], 0x48 ; sar edx, 1 ; mov  [rcx+0x48], edx ; mov qword [rcx+0x40], rax ; ret ; \xd0\x48\x83\xc0\x02\x48\xd1\xfa\x89\x51\x48\x48\x89\x41\x40\xc3 (1 found)
0x14000edf5: ror byte [rbp-0x77BEE8FC], 1 ; add  [rax+0x69], ecx ; retn 0xFC18 ; \xd0\x8d\x04\x17\x41\x88\x01\x48\x69\xc2\x18\xfc (1 found)
0x140005376: ror byte [rbx+rcx*4-0x2E], 0x48 ; mov edx, eax ; mov r8d, r9d ; jmp r10 ; \xc0\x4c\x8b\xd2\x48\x8b\xd0\x45\x8b\xc1\x49\xff\xe2 (1 found)
0x140012c10: ror byte [rbx-0x75], 0x04 ; ret ; \xc0\x4b\x8b\x04\xc3 (1 found)
0x140002cec: ror byte [rcx+0x03], cl ; rol byte [rax+rdi+0x12], 1 ; cmove r9, rdx ; mov rax, r9 ; ret ; \xd2\x49\x03\xd0\x44\x38\x12\x4c\x0f\x44\xca\x49\x8b\xc1\xc3 (1 found)
0x14001c141: ror byte [rcx+0x458B2045], 0x20 ; add rsp, 0x20 ; pop rbp ; ret ; \xc0\x89\x45\x20\x8b\x45\x20\x48\x83\xc4\x20\x5d\xc3 (1 found)
0x140016201: ror byte [rcx-0x01], cl ; retn 0x3B41 ; \xd2\x49\xff\xc2\x41\x3b (1 found)
0x14000787c: ror byte [rcx-0x2F], 0xF8 ; add rax, 0x02 ; mov  [r9+0x48], r8d ; mov qword [r9+0x40], rax ; ret ; \xc0\x49\xd1\xf8\x48\x83\xc0\x02\x45\x89\x41\x48\x49\x89\x41\x40\xc3 (1 found)
0x14000793c: ror byte [rcx-0x2F], 0xF8 ; add rax, 0x02 ; mov  [r9+0x48], r8d ; mov qword [r9+0x40], rax ; ret ; \xc0\x49\xd1\xf8\x48\x83\xc0\x02\x45\x89\x41\x48\x49\x89\x41\x40\xc3 (1 found)
0x1400079fc: ror byte [rcx-0x2F], 0xF8 ; add rax, 0x02 ; mov  [r9+0x48], r8d ; mov qword [r9+0x40], rax ; ret ; \xc0\x49\xd1\xf8\x48\x83\xc0\x02\x45\x89\x41\x48\x49\x89\x41\x40\xc3 (1 found)
0x140007e3a: ror byte [rcx-0x2F], 0xF8 ; add rax, 0x02 ; mov  [r9+0x48], r8d ; mov qword [r9+0x40], rax ; ret ; \xc0\x49\xd1\xf8\x48\x83\xc0\x02\x45\x89\x41\x48\x49\x89\x41\x40\xc3 (1 found)
0x140007efe: ror byte [rcx-0x2F], 0xF8 ; add rax, 0x02 ; mov  [r9+0x48], r8d ; mov qword [r9+0x40], rax ; ret ; \xc0\x49\xd1\xf8\x48\x83\xc0\x02\x45\x89\x41\x48\x49\x89\x41\x40\xc3 (1 found)
0x140007fc2: ror byte [rcx-0x2F], 0xF8 ; add rax, 0x02 ; mov  [r9+0x48], r8d ; mov qword [r9+0x40], rax ; ret ; \xc0\x49\xd1\xf8\x48\x83\xc0\x02\x45\x89\x41\x48\x49\x89\x41\x40\xc3 (1 found)
0x14001b523: ror byte [rcx-0x7D], 0xF8 ; and byte [rdi+0x0C], dh ; movdqu  [rcx], xmm0 ; movdqu  [rcx+r8-0x10], xmm0 ; ret ; \xc0\x49\x83\xf8\x20\x77\x0c\xf3\x0f\x7f\x01\xf3\x42\x0f\x7f\x44\x01\xf0\xc3 (1 found)
0x14001b3af: ror byte [rdi+rcx+0x45], cl ; leave ; mov rax, r9 ; mov rbx, qword [rsp+0x08] ; ret ; \xd2\x4c\x0f\x45\xc9\x49\x8b\xc1\x48\x8b\x5c\x24\x08\xc3 (1 found)
0x140014eb4: ror byte [rdi], 0x44 ; ror  [rcx+0x016EEA05], 0x00000000 ; xor eax, eax ; ret ; \xc0\x0f\x44\xc1\x89\x05\xea\x6e\x01\x00\x33\xc0\xc3 (1 found)
0x1400010a9: ror byte [rdi], 0x48 ; ret ; \xc0\x0f\x48\xc3 (1 found)
0x14000175f: ror byte [rdi], 0x84 ; pop qword [0x00000000CB441768] ; ret ; \xc0\x0f\x84\x8f\x05\x00\x00\x44\x8b\xc3 (1 found)
0x14001c563: ror byte [rdi], 0x94 ; ror  [rbx-0x3B7CB73F], 0x20 ; pop rbp ; ret ; \xc0\x0f\x94\xc1\x8b\xc1\x48\x83\xc4\x20\x5d\xc3 (1 found)
0x1400191f0: ror byte [rdi], 0x94 ; ror  [rbx-0x3B7CB73F], 0x28 ; ret ; \xc0\x0f\x94\xc1\x8b\xc1\x48\x83\xc4\x28\xc3 (1 found)
0x140005794: ror byte [rdi], 0x94 ; shr bl, 0x02 ; xor al, al ; add rsp, 0x28 ; ret ; \xc0\x0f\x94\xc0\xeb\x02\x32\xc0\x48\x83\xc4\x28\xc3 (1 found)
0x140015919: ror byte [rdi], 0x95 ; ret ; \xc0\x0f\x95\xc3 (1 found)
0x14000cf67: ror byte [rdi], cl ; xchg eax, ebp ; rol bl, 0x48 ; mov  [0x000000014002B2B0], ecx ; ret ; \xd2\x0f\x95\xc0\xc3\x48\x89\x0d\x3d\xe3\x01\x00\xc3 (1 found)
0x14000cfc8: ror ecx, cl ; xor r9, r8 ; mov qword [0x000000014002B2B0], r9 ; ret ; \xd3\xc9\x4d\x33\xc8\x4c\x89\x0d\xdc\xe2\x01\x00\xc3 (1 found)
0x14000cf63: ror edx, cl ; test rdx, rdx ; setne al ; ret ; \xd3\xca\x48\x85\xd2\x0f\x95\xc0\xc3 (1 found)
0x14000586f: ror edx, cl ; xor rdx, r8 ; mov qword [0x000000014002B288], rdx ; add rsp, 0x28 ; ret ; \xd3\xca\x49\x33\xd0\x48\x89\x15\x0d\x5a\x02\x00\x48\x83\xc4\x28\xc3 (1 found)
0x14000cfc7: ror r9, cl ; xor r9, r8 ; mov qword [0x000000014002B2B0], r9 ; ret ; \x49\xd3\xc9\x4d\x33\xc8\x4c\x89\x0d\xdc\xe2\x01\x00\xc3 (1 found)
0x14000cf62: ror rdx, cl ; test rdx, rdx ; setne al ; ret ; \x48\xd3\xca\x48\x85\xd2\x0f\x95\xc0\xc3 (1 found)
0x14000586e: ror rdx, cl ; xor rdx, r8 ; mov qword [0x000000014002B288], rdx ; add rsp, 0x28 ; ret ; \x48\xd3\xca\x49\x33\xd0\x48\x89\x15\x0d\x5a\x02\x00\x48\x83\xc4\x28\xc3 (1 found)
0x14001b24d: sal  [rbp-0x10], cl ; mov r10, qword [rsp+0x00] ; mov r11, qword [rsp+0x08] ; add rsp, 0x10 ; ret ; \xd3\x75\xf0\x4c\x8b\x14\x24\x4c\x8b\x5c\x24\x08\x48\x83\xc4\x10\xc3 (1 found)
0x1400022a5: sal  [rdx+0x0A], 0xFFFFFF8B ; or byte [rbx], al ; ror  [rbx+rdi-0x40], 0x72 ; or byte [rax-0x7D], cl ; retn 0xEB28 ; \xc1\x72\x0a\x8b\x42\x08\x03\xc1\x4c\x3b\xc0\x72\x08\x48\x83\xc2\x28\xeb (1 found)
0x140002375: sal bh, 0xD8 ; dec eax ; add rsp, 0x28 ; ret ; \xc0\xf7\xd8\xff\xc8\x48\x83\xc4\x28\xc3 (1 found)
0x14001b7dd: sal bl, 0x42 ; movq qword [rcx+rcx-0x30], mm0 ; movdqu  [rcx+r9-0x20], xmm0 ; movdqu  [rcx+r8-0x10], xmm0 ; movdqu  [rax], xmm0 ; ret ; \xc0\xf3\x42\x0f\x7f\x44\x09\xd0\xf3\x42\x0f\x7f\x44\x09\xe0\xf3\x42\x0f\x7f\x44\x01\xf0\xf3\x0f\x7f\x00\xc3 (1 found)
0x14001bd9c: sal bl, 1 ; movq mm1, qword [rdx+r9-0x20] ; movdqu  [rcx+r9-0x20], xmm1 ; movdqu  [rcx+r8-0x10], xmm5 ; movdqu  [rax], xmm0 ; ret ; \xd0\xf3\x42\x0f\x6f\x4c\x0a\xe0\xf3\x42\x0f\x7f\x4c\x09\xe0\xf3\x42\x0f\x7f\x6c\x01\xf0\xf3\x0f\x7f\x00\xc3 (1 found)
0x14001b7e4: sal bl, 1 ; movq qword [rcx+r9-0x20], mm0 ; movdqu  [rcx+r8-0x10], xmm0 ; movdqu  [rax], xmm0 ; ret ; \xd0\xf3\x42\x0f\x7f\x44\x09\xe0\xf3\x42\x0f\x7f\x44\x01\xf0\xf3\x0f\x7f\x00\xc3 (1 found)
0x140002ce7: sal byte [rax+0x0F], cl ; mov esp, 0xD00349D2 ; cmp byte [rdx], r10L ; cmove r9, rdx ; mov rax, r9 ; ret ; \xd2\x74\xe0\x0f\xbc\xd2\x49\x03\xd0\x44\x38\x12\x4c\x0f\x44\xca\x49\x8b\xc1\xc3 (1 found)
0x140003563: sal byte [rax+rbp*4+0x48], 0x8B ; enter 0x8749, 0x8C ; call qword [rax-0x4E] ; \xc0\x74\xa8\x48\x8b\xc8\x49\x87\x8c\xff\x50\xb2 (1 found)
0x140001b01: sal byte [rax+rcx+0x48], 0xFF ; ret ; \xc0\x74\x08\x48\xff\xc3 (1 found)
0x14000cf92: sal byte [rbp+0x03], cl ; xor eax, eax ; ret ; \xd2\x75\x03\x33\xc0\xc3 (1 found)
0x140001df2: sal byte [rbp+0x06], 0x48 ; add esp, 0x20 ; pop rbx ; ret ; \xc0\x75\x06\x48\x83\xc4\x20\x5b\xc3 (1 found)
0x140015ad2: sal byte [rbp+0x12], 0xE8 ; retn 0xFF8C ; \xc0\x75\x12\xe8\xc2\x8c\xff (1 found)
0x140015dd2: sal byte [rbp+rax+0x48], 0xFF ; retn 0x02EB ; \xc0\x74\x05\x48\xff\xc2\xeb\x02 (1 found)
0x14000ea21: sal byte [rbp-0x0E], 1 ; sub rdx, r8 ; sar rdx, 1 ; mov rax, rdx ; ret ; \xd0\x75\xf2\x49\x2b\xd0\x48\xd1\xfa\x48\x8b\xc2\xc3 (1 found)
0x1400030c3: sal byte [rbp-0x0E], cl ; lea eax,  [rdx+0x01] ; add rsp, 0x20 ; pop rbx ; ret ; \xd2\x75\xf2\x8d\x42\x01\x48\x83\xc4\x20\x5b\xc3 (1 found)
0x14000d694: sal byte [rbp-0x16], 0x48 ; mov eax,  [0x000000014002B4D8] ; add rsp, 0x28 ; ret ; \xc0\x75\xea\x48\x8b\x05\x3a\xde\x01\x00\x48\x83\xc4\x28\xc3 (1 found)
0x14000d720: sal byte [rbp-0x16], 0x48 ; mov eax,  [0x000000014002B4D8] ; mov qword [0x000000014002B4E0], rax ; add rsp, 0x28 ; ret ; \xc0\x75\xea\x48\x8b\x05\xae\xdd\x01\x00\x48\x89\x05\xaf\xdd\x01\x00\x48\x83\xc4\x28\xc3 (1 found)
0x14000c156: sal byte [rbx], 1 ; ror byte [rax-0x75], 0x5C ; and al, 0x38 ; add rsp, 0x20 ; pop rdi ; ret ; \xd0\x33\xc0\x48\x8b\x5c\x24\x38\x48\x83\xc4\x20\x5f\xc3 (1 found)
0x14001583e: sal byte [rcx+rcx+0x48], 0x83 ; ret ; \xc0\x74\x09\x48\x83\xc3 (1 found)
0x1400033c9: sal byte [rcx+rdx-0x01], 0x05 ; idiv byte [rbp+0x02] ; add bh, bh ; ret ; \xc0\x74\x11\xff\x05\xf6\x7d\x02\x00\xff\xc3 (1 found)
0x140011273: sal byte [rdi+0x38400002], 1 ; cmp  [rsi+rcx-0x01], esi ; retn 0xFF49 ; \xd0\xb7\x02\x00\x40\x38\x39\x74\x0e\xff\xc2\x49\xff (1 found)
0x1400129d7: sal byte [rdi+0x4C880002], 1 ; clc ; cmp al, 0x8B ; retn 0x2B48 ; \xd0\xb7\x02\x00\x88\x4c\xf8\x3c\x8b\xc2\x48\x2b (1 found)
0x1400032f2: sal byte [rdx+rdx+0x48], 0x8B ; ret ; \xc0\x74\x12\x48\x8b\xc3 (1 found)
0x140017875: sal byte [rsi+rcx*4+0x48], 0x83 ; clc ; add al, 0x75 ; add ecx,  [rax-0x01] ; ret ; \xc0\x74\x8e\x48\x83\xf8\x04\x75\x03\x48\xff\xc3 (1 found)
0x1400109fb: sal byte [rsp+rbp+0x44], 0x8B ; ret ; \xc0\x74\x2c\x44\x8b\xc3 (1 found)
0x140005c4e: sal byte [rsp+rcx+0x48], 1 ; test ecx, ecx ; sete al ; ret ; \xd0\x74\x0c\x48\x85\xc9\x0f\x94\xc0\xc3 (1 found)
0x140019837: sal edx, 0x0F ; pop rax ; ret ; \xc1\xf2\x0f\x58\xc3 (1 found)
0x1400151a4: salc ; mov rax, rcx ; ret ; \xd6\x48\x8b\xc1\xc3 (1 found)
0x14001aba0: sar bh, 0xFF ; jmp qword [rcx] ; \xc0\xff\xff\xff\x21 (1 found)
0x1400011b9: sar bh, cl ; adc eax, 0x0001BED8 ; add rsp, 0x48 ; ret ; \xd2\xff\x15\xd8\xbe\x01\x00\x48\x83\xc4\x48\xc3 (1 found)
0x140019fcc: sar byte [rax+rax*4], 0x0F ; test  [rcx-0x75000000], ecx ; retn 0xE183 ; \xc0\x3c\x80\x0f\x85\x89\x00\x00\x00\x8b\xc2\x83\xe1 (1 found)
0x14001b0ba: sar byte [rcx+0x0000020B], 0x66 ; cmp  [rdx+0x18], ecx ; sete al ; ret ; \xc0\xb9\x0b\x02\x00\x00\x66\x39\x4a\x18\x0f\x94\xc0\xc3 (1 found)
0x14000248d: sar byte [rcx], 0x05 ; mov eax, 0x0F00027B ; xchg eax, esp ; rol bl, 0x48 ; lea eax,  [0x0000000140046C58] ; ret ; \xc0\x39\x05\xb8\x7b\x02\x00\x0f\x94\xc0\xc3\x48\x8d\x05\xb9\x47\x04\x00\xc3 (1 found)
0x14000787e: sar eax, 1 ; add rax, 0x02 ; mov  [r9+0x48], r8d ; mov qword [r9+0x40], rax ; ret ; \xd1\xf8\x48\x83\xc0\x02\x45\x89\x41\x48\x49\x89\x41\x40\xc3 (1 found)
0x14000793e: sar eax, 1 ; add rax, 0x02 ; mov  [r9+0x48], r8d ; mov qword [r9+0x40], rax ; ret ; \xd1\xf8\x48\x83\xc0\x02\x45\x89\x41\x48\x49\x89\x41\x40\xc3 (1 found)
0x1400079fe: sar eax, 1 ; add rax, 0x02 ; mov  [r9+0x48], r8d ; mov qword [r9+0x40], rax ; ret ; \xd1\xf8\x48\x83\xc0\x02\x45\x89\x41\x48\x49\x89\x41\x40\xc3 (1 found)
0x140007e3c: sar eax, 1 ; add rax, 0x02 ; mov  [r9+0x48], r8d ; mov qword [r9+0x40], rax ; ret ; \xd1\xf8\x48\x83\xc0\x02\x45\x89\x41\x48\x49\x89\x41\x40\xc3 (1 found)
0x140007f00: sar eax, 1 ; add rax, 0x02 ; mov  [r9+0x48], r8d ; mov qword [r9+0x40], rax ; ret ; \xd1\xf8\x48\x83\xc0\x02\x45\x89\x41\x48\x49\x89\x41\x40\xc3 (1 found)
0x140007fc4: sar eax, 1 ; add rax, 0x02 ; mov  [r9+0x48], r8d ; mov qword [r9+0x40], rax ; ret ; \xd1\xf8\x48\x83\xc0\x02\x45\x89\x41\x48\x49\x89\x41\x40\xc3 (1 found)
0x1400076bd: sar ecx, 1 ; mov  [r8+0x48], ecx ; mov qword [r8+0x40], rax ; ret ; \xd1\xf9\x41\x89\x48\x48\x49\x89\x40\x40\xc3 (1 found)
0x140007741: sar ecx, 1 ; mov  [r8+0x48], ecx ; mov qword [r8+0x40], rax ; ret ; \xd1\xf9\x41\x89\x48\x48\x49\x89\x40\x40\xc3 (1 found)
0x1400077c5: sar ecx, 1 ; mov  [r8+0x48], ecx ; mov qword [r8+0x40], rax ; ret ; \xd1\xf9\x41\x89\x48\x48\x49\x89\x40\x40\xc3 (1 found)
0x140007c6b: sar ecx, 1 ; mov  [r8+0x48], ecx ; mov qword [r8+0x40], rax ; ret ; \xd1\xf9\x41\x89\x48\x48\x49\x89\x40\x40\xc3 (1 found)
0x140007cf3: sar ecx, 1 ; mov  [r8+0x48], ecx ; mov qword [r8+0x40], rax ; ret ; \xd1\xf9\x41\x89\x48\x48\x49\x89\x40\x40\xc3 (1 found)
0x140007d7b: sar ecx, 1 ; mov  [r8+0x48], ecx ; mov qword [r8+0x40], rax ; ret ; \xd1\xf9\x41\x89\x48\x48\x49\x89\x40\x40\xc3 (1 found)
0x14001246e: sar edi, 0xFFFFFFFF ; or eax, 0xFFFFFFFF ; add rsp, 0x58 ; ret ; \xc1\xff\xff\x83\xc8\xff\x48\x83\xc4\x58\xc3 (1 found)
0x140010e82: sar edi, cl ; call qword [rax+0x000003BB] ; \xd3\xff\xff\x90\xbb\x03\x00\x00 (1 found)
0x140010f0c: sar edi, cl ; dec  [rbx+0x48202444] ; mov ebx,  [rsp+0x48] ; add rsp, 0x30 ; pop rdi ; ret ; \xd3\xff\xff\x8b\x44\x24\x20\x48\x8b\x5c\x24\x48\x48\x83\xc4\x30\x5f\xc3 (1 found)
0x140007aa6: sar edx, 1 ; mov  [rcx+0x48], edx ; mov qword [rcx+0x40], rax ; ret ; \xd1\xfa\x89\x51\x48\x48\x89\x41\x40\xc3 (1 found)
0x140007b46: sar edx, 1 ; mov  [rcx+0x48], edx ; mov qword [rcx+0x40], rax ; ret ; \xd1\xfa\x89\x51\x48\x48\x89\x41\x40\xc3 (1 found)
0x140007be6: sar edx, 1 ; mov  [rcx+0x48], edx ; mov qword [rcx+0x40], rax ; ret ; \xd1\xfa\x89\x51\x48\x48\x89\x41\x40\xc3 (1 found)
0x14000806a: sar edx, 1 ; mov  [rcx+0x48], edx ; mov qword [rcx+0x40], rax ; ret ; \xd1\xfa\x89\x51\x48\x48\x89\x41\x40\xc3 (1 found)
0x14000810a: sar edx, 1 ; mov  [rcx+0x48], edx ; mov qword [rcx+0x40], rax ; ret ; \xd1\xfa\x89\x51\x48\x48\x89\x41\x40\xc3 (1 found)
0x1400081aa: sar edx, 1 ; mov  [rcx+0x48], edx ; mov qword [rcx+0x40], rax ; ret ; \xd1\xfa\x89\x51\x48\x48\x89\x41\x40\xc3 (1 found)
0x14000ea28: sar edx, 1 ; mov rax, rdx ; ret ; \xd1\xfa\x48\x8b\xc2\xc3 (1 found)
0x140010f0b: sar r15, cl ; dec  [rbx+0x48202444] ; mov ebx,  [rsp+0x48] ; add rsp, 0x30 ; pop rdi ; ret ; \x4d\xd3\xff\xff\x8b\x44\x24\x20\x48\x8b\x5c\x24\x48\x48\x83\xc4\x30\x5f\xc3 (1 found)
0x14000787d: sar r8, 1 ; add rax, 0x02 ; mov  [r9+0x48], r8d ; mov qword [r9+0x40], rax ; ret ; \x49\xd1\xf8\x48\x83\xc0\x02\x45\x89\x41\x48\x49\x89\x41\x40\xc3 (1 found)
0x14000793d: sar r8, 1 ; add rax, 0x02 ; mov  [r9+0x48], r8d ; mov qword [r9+0x40], rax ; ret ; \x49\xd1\xf8\x48\x83\xc0\x02\x45\x89\x41\x48\x49\x89\x41\x40\xc3 (1 found)
0x1400079fd: sar r8, 1 ; add rax, 0x02 ; mov  [r9+0x48], r8d ; mov qword [r9+0x40], rax ; ret ; \x49\xd1\xf8\x48\x83\xc0\x02\x45\x89\x41\x48\x49\x89\x41\x40\xc3 (1 found)
0x140007e3b: sar r8, 1 ; add rax, 0x02 ; mov  [r9+0x48], r8d ; mov qword [r9+0x40], rax ; ret ; \x49\xd1\xf8\x48\x83\xc0\x02\x45\x89\x41\x48\x49\x89\x41\x40\xc3 (1 found)
0x140007eff: sar r8, 1 ; add rax, 0x02 ; mov  [r9+0x48], r8d ; mov qword [r9+0x40], rax ; ret ; \x49\xd1\xf8\x48\x83\xc0\x02\x45\x89\x41\x48\x49\x89\x41\x40\xc3 (1 found)
0x140007fc3: sar r8, 1 ; add rax, 0x02 ; mov  [r9+0x48], r8d ; mov qword [r9+0x40], rax ; ret ; \x49\xd1\xf8\x48\x83\xc0\x02\x45\x89\x41\x48\x49\x89\x41\x40\xc3 (1 found)
0x1400076bc: sar rcx, 1 ; mov  [r8+0x48], ecx ; mov qword [r8+0x40], rax ; ret ; \x48\xd1\xf9\x41\x89\x48\x48\x49\x89\x40\x40\xc3 (1 found)
0x140007740: sar rcx, 1 ; mov  [r8+0x48], ecx ; mov qword [r8+0x40], rax ; ret ; \x48\xd1\xf9\x41\x89\x48\x48\x49\x89\x40\x40\xc3 (1 found)
0x1400077c4: sar rcx, 1 ; mov  [r8+0x48], ecx ; mov qword [r8+0x40], rax ; ret ; \x48\xd1\xf9\x41\x89\x48\x48\x49\x89\x40\x40\xc3 (1 found)
0x140007c6a: sar rcx, 1 ; mov  [r8+0x48], ecx ; mov qword [r8+0x40], rax ; ret ; \x48\xd1\xf9\x41\x89\x48\x48\x49\x89\x40\x40\xc3 (1 found)
0x140007cf2: sar rcx, 1 ; mov  [r8+0x48], ecx ; mov qword [r8+0x40], rax ; ret ; \x48\xd1\xf9\x41\x89\x48\x48\x49\x89\x40\x40\xc3 (1 found)
0x140007d7a: sar rcx, 1 ; mov  [r8+0x48], ecx ; mov qword [r8+0x40], rax ; ret ; \x48\xd1\xf9\x41\x89\x48\x48\x49\x89\x40\x40\xc3 (1 found)
0x140007aa5: sar rdx, 1 ; mov  [rcx+0x48], edx ; mov qword [rcx+0x40], rax ; ret ; \x48\xd1\xfa\x89\x51\x48\x48\x89\x41\x40\xc3 (1 found)
0x140007b45: sar rdx, 1 ; mov  [rcx+0x48], edx ; mov qword [rcx+0x40], rax ; ret ; \x48\xd1\xfa\x89\x51\x48\x48\x89\x41\x40\xc3 (1 found)
0x140007be5: sar rdx, 1 ; mov  [rcx+0x48], edx ; mov qword [rcx+0x40], rax ; ret ; \x48\xd1\xfa\x89\x51\x48\x48\x89\x41\x40\xc3 (1 found)
0x140008069: sar rdx, 1 ; mov  [rcx+0x48], edx ; mov qword [rcx+0x40], rax ; ret ; \x48\xd1\xfa\x89\x51\x48\x48\x89\x41\x40\xc3 (1 found)
0x140008109: sar rdx, 1 ; mov  [rcx+0x48], edx ; mov qword [rcx+0x40], rax ; ret ; \x48\xd1\xfa\x89\x51\x48\x48\x89\x41\x40\xc3 (1 found)
0x1400081a9: sar rdx, 1 ; mov  [rcx+0x48], edx ; mov qword [rcx+0x40], rax ; ret ; \x48\xd1\xfa\x89\x51\x48\x48\x89\x41\x40\xc3 (1 found)
0x14000ea27: sar rdx, 1 ; mov rax, rdx ; ret ; \x48\xd1\xfa\x48\x8b\xc2\xc3 (1 found)
0x14000300c: sbb  [rax-0x7D], ecx ; retn 0x4809 ; \x19\x48\x83\xc2\x09\x48 (1 found)
0x140015559: sbb  [rcx+rax+0x00], 0xC3C0FF00 ; mov eax, 0x7FFFFFFF ; ret ; \x81\x5c\x01\x00\x00\xff\xc0\xc3\xb8\xff\xff\xff\x7f\xc3 (1 found)
0x1400155b7: sbb  [rcx+rax+0x00], 0xC3C8FF00 ; mov eax, 0x7FFFFFFF ; ret ; \x81\x5c\x01\x00\x00\xff\xc8\xc3\xb8\xff\xff\xff\x7f\xc3 (1 found)
0x14001ab86: sbb al, 0x24 ; mov eax,  [rsp+0x00] ; add rsp, 0x08 ; ret ; \x1c\x24\x8b\x04\x24\x48\x83\xc4\x08\xc3 (1 found)
0x140011eaa: sbb al, 0x48 ; mov  [rcx+0x28], eax ; xchg  [rcx+0x14], eax ; ret ; \x41\x1c\x48\x89\x41\x28\x87\x41\x14\xc3 (1 found)
0x140011eab: sbb al, 0x48 ; mov  [rcx+0x28], eax ; xchg  [rcx+0x14], eax ; ret ; \x1c\x48\x89\x41\x28\x87\x41\x14\xc3 (1 found)
0x140003d10: sbb al, 0x48 ; mov  [rsp+0x40], ecx ; mov eax,  [rax+rcx+0x04] ; add rsp, 0x20 ; pop rbx ; ret ; \x43\x1c\x48\x89\x4c\x24\x40\x8b\x44\x08\x04\x48\x83\xc4\x20\x5b\xc3 (1 found)
0x140003d11: sbb al, 0x48 ; mov  [rsp+0x40], ecx ; mov eax,  [rax+rcx+0x04] ; add rsp, 0x20 ; pop rbx ; ret ; \x1c\x48\x89\x4c\x24\x40\x8b\x44\x08\x04\x48\x83\xc4\x20\x5b\xc3 (1 found)
0x140003d27: sbb al, 0x48 ; mov eax,  [rcx] ; mov  [rdx+rax], r8d ; ret ; \x1c\x48\x8b\x01\x44\x89\x04\x02\xc3 (1 found)
0x140019d5d: sbb al, byte [rcx+0x3B] ; retn 0x0D74 ; \x1a\x41\x3b\xc2\x74\x0d (1 found)
0x14000e098: sbb al, ch ; retn 0x0005 ; \x18\xe8\xc2\x05\x00 (1 found)
0x140002422: sbb bh, byte [rdx+rax+0x00] ; add rsp, 0x30 ; pop rbp ; ret ; \x1a\x7c\x02\x00\x48\x83\xc4\x30\x5d\xc3 (1 found)
0x14001767f: sbb bh, dh ; retn 0x0000 ; \x18\xf7\xc2\x00\x00 (1 found)
0x14000fc4b: sbb byte [r8+0x28C48348], dl ; ret ; \x41\x18\x90\x48\x83\xc4\x28\xc3 (1 found)
0x14000ae87: sbb byte [r8-0x75], cl ; cmp ch, al ; ret ; \x41\x18\x48\x8b\x3a\xe8\xc3 (1 found)
0x14000fc4c: sbb byte [rax+0x28C48348], dl ; ret ; \x18\x90\x48\x83\xc4\x28\xc3 (1 found)
0x14000ea54: sbb byte [rax+rax+0x00], ch ; mov qword [rbx], rax ; add rsp, 0x20 ; pop rbx ; ret ; \x18\x6c\x00\x00\x48\x89\x03\x48\x83\xc4\x20\x5b\xc3 (1 found)
0x14001abbc: sbb byte [rax+rax-0x0DF58A00], ch ; cvtps2pi mm1, xmm0 ; cvtsi2sd xmm0, rcx ; ret ; \x18\xac\x00\x00\x76\x0a\xf2\x48\x0f\x2d\xc8\xf2\x48\x0f\x2a\xc1\xc3 (1 found)
0x140003dc7: sbb byte [rax+rcx*2], al ; add esp, 0x20 ; pop rbx ; ret ; \x18\x04\x48\x83\xc4\x20\x5b\xc3 (1 found)
0x140003dc6: sbb byte [rax+rcx*2], r8L ; add esp, 0x20 ; pop rbx ; ret ; \x44\x18\x04\x48\x83\xc4\x20\x5b\xc3 (1 found)
0x14000ae88: sbb byte [rax-0x75], cl ; cmp ch, al ; ret ; \x18\x48\x8b\x3a\xe8\xc3 (1 found)
0x140017872: sbb byte [rax-0x7B], cl ; sal byte [rsi+rcx*4+0x48], 0x83 ; clc ; add al, 0x75 ; add ecx,  [rax-0x01] ; ret ; \x18\x48\x85\xc0\x74\x8e\x48\x83\xf8\x04\x75\x03\x48\xff\xc3 (1 found)
0x14000229f: sbb byte [rbx+0x3B4C0C4A], cl ; sal  [rdx+0x0A], 0xFFFFFF8B ; or byte [rbx], al ; ror  [rbx+rdi-0x40], 0x72 ; or byte [rax-0x7D], cl ; retn 0xEB28 ; \x18\x8b\x4a\x0c\x4c\x3b\xc1\x72\x0a\x8b\x42\x08\x03\xc1\x4c\x3b\xc0\x72\x08\x48\x83\xc2\x28\xeb (1 found)
0x14000bf2e: sbb byte [rbx+0x5C8B48C3], cl ; and al, 0x30 ; add rsp, 0x20 ; pop rdi ; ret ; \x18\x8b\xc3\x48\x8b\x5c\x24\x30\x48\x83\xc4\x20\x5f\xc3 (1 found)
0x14000a073: sbb byte [rsp+rax-0x01], dh ; retn 0x03EB ; \x18\x74\x04\xff\xc2\xeb\x03 (1 found)
0x14000df8f: sbb eax, 0x0001DE04 ; mov al, 0x01 ; add rsp, 0x20 ; pop rbx ; ret ; \x1d\x04\xde\x01\x00\xb0\x01\x48\x83\xc4\x20\x5b\xc3 (1 found)
0x14001c45a: sbb eax, 0x4890FFFF ; add esp, 0x20 ; pop rbp ; ret ; \x1d\xff\xff\x90\x48\x83\xc4\x20\x5d\xc3 (1 found)
0x14000d04e: sbb eax, 0x75C98445 ; retn 0x8366 ; \x1d\x45\x84\xc9\x75\xc2\x66\x83 (1 found)
0x140002374: sbb eax, eax ; neg eax ; dec eax ; add rsp, 0x28 ; ret ; \x1b\xc0\xf7\xd8\xff\xc8\x48\x83\xc4\x28\xc3 (1 found)
0x140003029: sbb eax, eax ; or eax, 0x01 ; ret ; \x1b\xc0\x83\xc8\x01\xc3 (1 found)
0x14000e1b6: sbb eax, eax ; or rax, 0x01 ; ret ; \x1b\xc0\x48\x83\xc8\x01\xc3 (1 found)
0x140002e39: sbb ecx,  [rbx+0x490CCB44] ; mov edx, ebp ; add rax, r12 ; lea rcx, qword [rsp+0x30] ; call rax ; \x1b\x8b\x44\xcb\x0c\x49\x8b\xd5\x49\x03\xc4\x48\x8d\x4c\x24\x30\xff\xd0 (1 found)
0x14001c0d9: sbb esi,  [rax-0x02] ; call qword [rax+0x20C48348] ; \x1b\x70\xfe\xff\x90\x48\x83\xc4\x20 (1 found)
0x14000e1b5: sbb rax, rax ; or rax, 0x01 ; ret ; \x48\x1b\xc0\x48\x83\xc8\x01\xc3 (1 found)
0x14001b710: scasb ; clc ; vzeroupper ; ret ; \xae\xf8\xc5\xf8\x77\xc3 (1 found)
0x14001bc5b: scasb ; clc ; vzeroupper ; ret ; \xae\xf8\xc5\xf8\x77\xc3 (1 found)
0x14000d726: scasb ; fld qword [rcx] ; add byte [rax-0x77], cl ; add eax, 0x0001DDAF ; add rsp, 0x28 ; ret ; \xae\xdd\x01\x00\x48\x89\x05\xaf\xdd\x01\x00\x48\x83\xc4\x28\xc3 (1 found)
0x140019e14: scasb ; push rsp ; and al, 0x08 ; ret ; \xae\x54\x24\x08\xc3 (1 found)
0x140019e8a: scasb ; push rsp ; and al, 0x08 ; ret ; \xae\x54\x24\x08\xc3 (1 found)
0x14001ab95: scasb ; push rsp ; and al, 0x08 ; ret ; \xae\x54\x24\x08\xc3 (1 found)
0x14001aba9: scasb ; push rsp ; and al, 0x08 ; ret ; \xae\x54\x24\x08\xc3 (1 found)
0x14001ab85: scasb ; sbb al, 0x24 ; mov eax,  [rsp+0x00] ; add rsp, 0x08 ; ret ; \xae\x1c\x24\x8b\x04\x24\x48\x83\xc4\x08\xc3 (1 found)
0x14001a8e5: sete al ; add rsp, 0x20 ; pop rdi ; ret ; \x0f\x94\xc0\x48\x83\xc4\x20\x5f\xc3 (1 found)
0x14001c13f: sete al ; mov  [rbp+0x20], eax ; mov eax,  [rbp+0x20] ; add rsp, 0x20 ; pop rbp ; ret ; \x0f\x94\xc0\x89\x45\x20\x8b\x45\x20\x48\x83\xc4\x20\x5d\xc3 (1 found)
0x140002494: sete al ; ret ; \x0f\x94\xc0\xc3 (1 found)
0x140005c54: sete al ; ret ; \x0f\x94\xc0\xc3 (1 found)
0x14000fc68: sete al ; ret ; \x0f\x94\xc0\xc3 (1 found)
0x14001b0c4: sete al ; ret ; \x0f\x94\xc0\xc3 (1 found)
0x14001c564: sete cl ; mov eax, ecx ; add rsp, 0x20 ; pop rbp ; ret ; \x0f\x94\xc1\x8b\xc1\x48\x83\xc4\x20\x5d\xc3 (1 found)
0x1400191f1: sete cl ; mov eax, ecx ; add rsp, 0x28 ; ret ; \x0f\x94\xc1\x8b\xc1\x48\x83\xc4\x28\xc3 (1 found)
0x14001bede: sete cl ; mov eax, ecx ; pop rbp ; ret ; \x0f\x94\xc1\x8b\xc1\x5d\xc3 (1 found)
0x140013262: setnbe al ; ret ; \x0f\x97\xc0\xc3 (1 found)
0x1400037dd: setne al ; add rsp, 0x20 ; pop rbx ; ret ; \x0f\x95\xc0\x48\x83\xc4\x20\x5b\xc3 (1 found)
0x1400157f4: setne al ; add rsp, 0x28 ; ret ; \x0f\x95\xc0\x48\x83\xc4\x28\xc3 (1 found)
0x140002a18: setne al ; ret ; \x0f\x95\xc0\xc3 (1 found)
0x14000cf68: setne al ; ret ; \x0f\x95\xc0\xc3 (1 found)
0x14000e2d0: setne bl ; mov eax, ebx ; add rsp, 0x20 ; pop rbx ; ret ; \x0f\x95\xc3\x8b\xc3\x48\x83\xc4\x20\x5b\xc3 (1 found)
0x14001a0cf: setne bl ; mov eax, ebx ; add rsp, 0x40 ; pop rbx ; ret ; \x0f\x95\xc3\x8b\xc3\x48\x83\xc4\x40\x5b\xc3 (1 found)
0x14001591a: setne bl ; mov eax, ebx ; mov rbx, qword [rsp+0x30] ; add rsp, 0x20 ; pop rdi ; ret ; \x0f\x95\xc3\x8b\xc3\x48\x8b\x5c\x24\x30\x48\x83\xc4\x20\x5f\xc3 (1 found)
0x14001b70f: sfence ; vzeroupper ; ret ; \x0f\xae\xf8\xc5\xf8\x77\xc3 (1 found)
0x14001bc5a: sfence ; vzeroupper ; ret ; \x0f\xae\xf8\xc5\xf8\x77\xc3 (1 found)
0x140019bc7: shl  [rsi+0x41], 0x23 ; retn 0x8D41 ; \xc1\x66\x41\x23\xc2\x41\x8d (1 found)
0x140002a84: shl  [rsi+0x41], 0x39 ; adc byte [rbp+0x0F], cl ; enter 0x8B49, 0xC1 ; ret ; \xc1\x66\x41\x39\x10\x4d\x0f\x44\xc8\x49\x8b\xc1\xc3 (1 found)
0x14000316b: shl byte [rax], 0x48 ; add esp, 0x28 ; ret ; \xc0\x20\x48\x83\xc4\x28\xc3 (1 found)
0x14000e7b5: shl byte [rax], 0x48 ; add esp, 0x28 ; ret ; \xc0\x20\x48\x83\xc4\x28\xc3 (1 found)
0x140019a1c: shl byte [rbx-0x043B0000], 1 ; pop rax ; retn 0xF9C5 ; \xd0\xa3\x00\x00\xc5\xfb\x58\xc2\xc5\xf9 (1 found)
0x14001839c: shl byte [rdx-0x01], 0xFF ; mov eax, ebx ; mov rbx, qword [rsp+0x60] ; add rsp, 0x50 ; pop rdi ; ret ; \xc0\x62\xff\xff\x8b\xc3\x48\x8b\x5c\x24\x60\x48\x83\xc4\x50\x5f\xc3 (1 found)
0x1400198dd: shl byte [rsi-0x70], 0x66 ; movq mm6, qword [rsp+0x20] ; add rsp, 0x58 ; ret ; \xc0\x66\x90\x66\x0f\x6f\x74\x24\x20\x48\x83\xc4\x58\xc3 (1 found)
0x140010044: shl cl, 0xFF ; call qword [rax+0x48078B48] ; \xc0\xe1\xff\xff\x90\x48\x8b\x07\x48 (1 found)
0x140019c84: shl eax, 0x16 ; or eax, edx ; ret ; \xc1\xe0\x16\x0b\xc2\xc3 (1 found)
0x140019cda: shl eax, 0x18 ; or eax, r8d ; ret ; \xc1\xe0\x18\x41\x0b\xc0\xc3 (1 found)
0x14000c0dd: shr al, 0x7D ; ret ; \xc0\xe8\x7d\xc3 (1 found)
0x14000c0c8: shr al, 0x92 ; ret ; \xc0\xe8\x92\xc3 (1 found)
0x14000fe4e: shr bl, 0x02 ; mov al, 0x01 ; add rsp, 0x20 ; pop rbx ; ret ; \xc0\xeb\x02\xb0\x01\x48\x83\xc4\x20\x5b\xc3 (1 found)
0x1400022d2: shr bl, 0x02 ; xor al, al ; add rsp, 0x18 ; ret ; \xc0\xeb\x02\x32\xc0\x48\x83\xc4\x18\xc3 (1 found)
0x140017b19: shr bl, 0x02 ; xor al, al ; add rsp, 0x20 ; pop rbx ; ret ; \xc0\xeb\x02\x32\xc0\x48\x83\xc4\x20\x5b\xc3 (1 found)
0x14000264b: shr bl, 0x02 ; xor al, al ; add rsp, 0x28 ; ret ; \xc0\xeb\x02\x32\xc0\x48\x83\xc4\x28\xc3 (1 found)
0x140005797: shr bl, 0x02 ; xor al, al ; add rsp, 0x28 ; ret ; \xc0\xeb\x02\x32\xc0\x48\x83\xc4\x28\xc3 (1 found)
0x14001c511: shr bl, 0x05 ; mov eax, 0x00000001 ; add rsp, 0x20 ; pop rbp ; ret ; \xc0\xeb\x05\xb8\x01\x00\x00\x00\x48\x83\xc4\x20\x5d\xc3 (1 found)
0x14001c53d: shr bl, 0x05 ; mov eax, 0x00000001 ; add rsp, 0x20 ; pop rbp ; ret ; \xc0\xeb\x05\xb8\x01\x00\x00\x00\x48\x83\xc4\x20\x5d\xc3 (1 found)
0x140019512: shr bl, 0x05 ; mov eax, 0x00000001 ; add rsp, 0x20 ; pop rbx ; ret ; \xc0\xeb\x05\xb8\x01\x00\x00\x00\x48\x83\xc4\x20\x5b\xc3 (1 found)
0x14000317f: shr byte [rax], 0x48 ; add esp, 0x28 ; ret ; \xc0\x28\x48\x83\xc4\x28\xc3 (1 found)
0x14000e28b: shr eax, 0x08 ; and al, 0x01 ; ret ; \xc1\xe8\x08\x24\x01\xc3 (1 found)
0x14000e2a8: shr eax, 0x1F ; ret ; \xc1\xe8\x1f\xc3 (1 found)
0x14001b105: shr eax, 1 ; or eax, 0xB8000000 ; add  [rax], eax ; add byte [rax], al ; add rsp, 0x28 ; ret ; \xd1\xe8\x0d\x00\x00\x00\xb8\x01\x00\x00\x00\x48\x83\xc4\x28\xc3 (1 found)
0x14001b7aa: shr ebx, 0x04 ; mov r11d,  [r10+r11*4+0x000263E8] ; add r11, r10 ; jmp r11 ; \xc1\xeb\x04\x47\x8b\x9c\x9a\xe8\x63\x02\x00\x4d\x03\xda\x41\xff\xe3 (1 found)
0x14001bd38: shr ebx, 0x04 ; mov r11d,  [r10+r11*4+0x00026498] ; add r11, r10 ; jmp r11 ; \xc1\xeb\x04\x47\x8b\x9c\x9a\x98\x64\x02\x00\x4d\x03\xda\x41\xff\xe3 (1 found)
0x14001b5f6: shr ebx, 0x05 ; mov r11d,  [r10+r11*4+0x000263A0] ; add r11, r10 ; jmp r11 ; \xc1\xeb\x05\x47\x8b\x9c\x9a\xa0\x63\x02\x00\x4d\x03\xda\x41\xff\xe3 (1 found)
0x14001b6b6: shr ebx, 0x05 ; mov r11d,  [r10+r11*4+0x000263C4] ; add r11, r10 ; jmp r11 ; \xc1\xeb\x05\x47\x8b\x9c\x9a\xc4\x63\x02\x00\x4d\x03\xda\x41\xff\xe3 (1 found)
0x14001ba94: shr ebx, 0x05 ; mov r11d,  [r10+r11*4+0x00026450] ; add r11, r10 ; jmp r11 ; \xc1\xeb\x05\x47\x8b\x9c\x9a\x50\x64\x02\x00\x4d\x03\xda\x41\xff\xe3 (1 found)
0x14001bbc4: shr ebx, 0x05 ; mov r11d,  [r10+r11*4+0x00026474] ; add r11, r10 ; jmp r11 ; \xc1\xeb\x05\x47\x8b\x9c\x9a\x74\x64\x02\x00\x4d\x03\xda\x41\xff\xe3 (1 found)
0x140002c70: shr ebx, 0xFFFFFFA2 ; xor eax, eax ; mov rbx, qword [rsp+0x08] ; mov rdi, qword [rsp+0x10] ; ret ; \xc1\xeb\xa2\x33\xc0\x48\x8b\x5c\x24\x08\x48\x8b\x7c\x24\x10\xc3 (1 found)
0x14001b7a9: shr r11, 0x04 ; mov r11d,  [r10+r11*4+0x000263E8] ; add r11, r10 ; jmp r11 ; \x49\xc1\xeb\x04\x47\x8b\x9c\x9a\xe8\x63\x02\x00\x4d\x03\xda\x41\xff\xe3 (1 found)
0x14001bd37: shr r11, 0x04 ; mov r11d,  [r10+r11*4+0x00026498] ; add r11, r10 ; jmp r11 ; \x49\xc1\xeb\x04\x47\x8b\x9c\x9a\x98\x64\x02\x00\x4d\x03\xda\x41\xff\xe3 (1 found)
0x14001b5f5: shr r11, 0x05 ; mov r11d,  [r10+r11*4+0x000263A0] ; add r11, r10 ; jmp r11 ; \x49\xc1\xeb\x05\x47\x8b\x9c\x9a\xa0\x63\x02\x00\x4d\x03\xda\x41\xff\xe3 (1 found)
0x14001b6b5: shr r11, 0x05 ; mov r11d,  [r10+r11*4+0x000263C4] ; add r11, r10 ; jmp r11 ; \x49\xc1\xeb\x05\x47\x8b\x9c\x9a\xc4\x63\x02\x00\x4d\x03\xda\x41\xff\xe3 (1 found)
0x14001ba93: shr r11, 0x05 ; mov r11d,  [r10+r11*4+0x00026450] ; add r11, r10 ; jmp r11 ; \x49\xc1\xeb\x05\x47\x8b\x9c\x9a\x50\x64\x02\x00\x4d\x03\xda\x41\xff\xe3 (1 found)
0x14001bbc3: shr r11, 0x05 ; mov r11d,  [r10+r11*4+0x00026474] ; add r11, r10 ; jmp r11 ; \x49\xc1\xeb\x05\x47\x8b\x9c\x9a\x74\x64\x02\x00\x4d\x03\xda\x41\xff\xe3 (1 found)
0x14000c0dc: shr r8L, 0x7D ; ret ; \x4d\xc0\xe8\x7d\xc3 (1 found)
0x14000c0c7: shr r8L, 0x92 ; ret ; \x4d\xc0\xe8\x92\xc3 (1 found)
0x140019b23: sldt word [rax] ; vmovdqa xmm6,  [rsp+0x20] ; add rsp, 0x58 ; ret ; \x0f\x00\x00\xc5\xf9\x6f\x74\x24\x20\x48\x83\xc4\x58\xc3 (1 found)
0x140019b51: sldt word [rax] ; vmovdqa xmm6,  [rsp+0x20] ; add rsp, 0x58 ; ret ; \x0f\x00\x00\xc5\xf9\x6f\x74\x24\x20\x48\x83\xc4\x58\xc3 (1 found)
0x1400076be: stc ; mov  [r8+0x48], ecx ; mov qword [r8+0x40], rax ; ret ; \xf9\x41\x89\x48\x48\x49\x89\x40\x40\xc3 (1 found)
0x140007742: stc ; mov  [r8+0x48], ecx ; mov qword [r8+0x40], rax ; ret ; \xf9\x41\x89\x48\x48\x49\x89\x40\x40\xc3 (1 found)
0x1400077c6: stc ; mov  [r8+0x48], ecx ; mov qword [r8+0x40], rax ; ret ; \xf9\x41\x89\x48\x48\x49\x89\x40\x40\xc3 (1 found)
0x140007c6c: stc ; mov  [r8+0x48], ecx ; mov qword [r8+0x40], rax ; ret ; \xf9\x41\x89\x48\x48\x49\x89\x40\x40\xc3 (1 found)
0x140007cf4: stc ; mov  [r8+0x48], ecx ; mov qword [r8+0x40], rax ; ret ; \xf9\x41\x89\x48\x48\x49\x89\x40\x40\xc3 (1 found)
0x140007d7c: stc ; mov  [r8+0x48], ecx ; mov qword [r8+0x40], rax ; ret ; \xf9\x41\x89\x48\x48\x49\x89\x40\x40\xc3 (1 found)
0x14001b465: stc ; mov rcx, r8 ; rep stosb ; mov rax, r9 ; pop rdi ; ret ; \xf9\x49\x8b\xc8\xf3\xaa\x49\x8b\xc1\x5f\xc3 (1 found)
0x14001b4b8: stc ; mov word [rcx-0x03], r11w ; mov byte [rcx-0x01], r11L ; ret ; \xf9\x66\x44\x89\x59\xfd\x44\x88\x59\xff\xc3 (1 found)
0x14001282f: stc ; or eax, 0x8B480774 ; retn 0x0B88 ; \xf9\x0d\x74\x07\x48\x8b\xc2\x88\x0b (1 found)
0x14000e700: stc ; push cs ; cmovbe eax, r8d ; ret ; \xf9\x0e\x41\x0f\x46\xc0\xc3 (1 found)
0x14001b4bd: std ; mov byte [rcx-0x01], r11L ; ret ; \xfd\x44\x88\x59\xff\xc3 (1 found)
0x14001b501: std ; mov byte [rcx-0x01], r11L ; ret ; \xfd\x44\x88\x59\xff\xc3 (1 found)
0x140013a2c: std ; mov eax, ebx ; add rsp, 0x40 ; pop rbx ; ret ; \xfd\x8b\xc3\x48\x83\xc4\x40\x5b\xc3 (1 found)
0x14001104c: std ; movzx eax, dx ; add rsp, 0x58 ; ret ; \xfd\x0f\xb7\xc2\x48\x83\xc4\x58\xc3 (1 found)
0x14001b4e7: sti ; mov byte [rcx-0x01], r11L ; ret ; \xfb\x44\x88\x59\xff\xc3 (1 found)
0x140019acb: sti ; pop rax ; ret ; \xfb\x58\xc3 (1 found)
0x140019a21: sti ; pop rax ; retn 0xF9C5 ; \xfb\x58\xc2\xc5\xf9 (1 found)
0x140019ac7: sti ; pop rax ; rol ebp, 0xFFFFFFFB ; pop rax ; ret ; \xfb\x58\xc1\xc5\xfb\x58\xc3 (1 found)
0x140019a9b: sti ; pop rsp ; ret ; \xfb\x5c\xc3 (1 found)
0x14001ab84: stmxcsr  [rsp+0x00] ; mov eax,  [rsp+0x00] ; add rsp, 0x08 ; ret ; \x0f\xae\x1c\x24\x8b\x04\x24\x48\x83\xc4\x08\xc3 (1 found)
0x14001ab9a: stmxcsr  [rsp+0x08] ; mov ecx, 0xFFFFFFC0 ; and  [rsp+0x08], ecx ; ldmxcsr  [rsp+0x08] ; ret ; \x0f\xae\x5c\x24\x08\xb9\xc0\xff\xff\xff\x21\x4c\x24\x08\x0f\xae\x54\x24\x08\xc3 (1 found)
0x140002663: stosb ; add  [rax], eax ; int3 ; int3 ; xor eax, eax ; ret ; \xaa\x01\x00\xcc\xcc\x33\xc0\xc3 (1 found)
0x14001b46a: stosb ; mov rax, r9 ; pop rdi ; ret ; \xaa\x49\x8b\xc1\x5f\xc3 (1 found)
0x1400163e3: stosd ; add byte [rax], al ; add byte [rax-0x75], cl ; ret ; \xab\x00\x00\x00\x48\x8b\xc3 (1 found)
0x140010e1e: stosd ; mov rdi, qword [rsp+0x08] ; mov al, 0x01 ; ret ; \xab\x48\x8b\x7c\x24\x08\xb0\x01\xc3 (1 found)
0x140010e1d: stosq ; mov rdi, qword [rsp+0x08] ; mov al, 0x01 ; ret ; \x48\xab\x48\x8b\x7c\x24\x08\xb0\x01\xc3 (1 found)
0x1400163b6: str word [rax+0x23] ; retn 0x2175 ; \x0f\x00\x48\x23\xc2\x75\x21 (1 found)
0x14000f6ee: str word [rax-0x75] ; retn 0xB841 ; \x0f\x00\x48\x8b\xc2\x41\xb8 (1 found)
0x140008545: sub al, 0x48 ; mov ebx,  [rsp+0x48] ; mov rbp, qword [rsp+0x50] ; add rsp, 0x30 ; pop rdi ; ret ; \x2c\x48\x8b\x5c\x24\x48\x48\x8b\x6c\x24\x50\x48\x83\xc4\x30\x5f\xc3 (1 found)
0x1400085d5: sub al, 0x48 ; mov ebx,  [rsp+0x48] ; mov rbp, qword [rsp+0x50] ; add rsp, 0x30 ; pop rdi ; ret ; \x2c\x48\x8b\x5c\x24\x48\x48\x8b\x6c\x24\x50\x48\x83\xc4\x30\x5f\xc3 (1 found)
0x140008665: sub al, 0x48 ; mov ebx,  [rsp+0x48] ; mov rbp, qword [rsp+0x50] ; add rsp, 0x30 ; pop rdi ; ret ; \x2c\x48\x8b\x5c\x24\x48\x48\x8b\x6c\x24\x50\x48\x83\xc4\x30\x5f\xc3 (1 found)
0x14001639c: sub al, 0x52 ; xor byte [rax], al ; add byte [rax-0x75], cl ; ret ; \x80\xe8\x52\x30\x00\x00\x48\x8b\xc3 (1 found)
0x14000f9b6: sub al, 0x8B ; ret ; \x2c\x8b\xc3 (1 found)
0x14000e76e: sub al, 0xC6 ; xor byte [r9], al ; add rsp, 0x20 ; pop rbx ; ret ; \x43\x2c\xc6\x43\x30\x01\x48\x83\xc4\x20\x5b\xc3 (1 found)
0x14000e76f: sub al, 0xC6 ; xor byte [r9], al ; add rsp, 0x20 ; pop rbx ; ret ; \x2c\xc6\x43\x30\x01\x48\x83\xc4\x20\x5b\xc3 (1 found)
0x140019ea7: sub al, byte [rax] ; add byte [rax], al ; ret ; \x2a\x00\x00\x00\xc3 (1 found)
0x140003163: sub al, ch ; add byte [rax], al ; add byte [rax-0x7D], cl ; shl byte [rax], 0x48 ; add esp, 0x28 ; ret ; \x28\xe8\xf3\x00\x00\x00\x48\x83\xc0\x20\x48\x83\xc4\x28\xc3 (1 found)
0x140003177: sub al, ch ; fild word [rax] ; add byte [rax], al ; add rax, 0x28 ; add rsp, 0x28 ; ret ; \x28\xe8\xdf\x00\x00\x00\x48\x83\xc0\x28\x48\x83\xc4\x28\xc3 (1 found)
0x140003bfb: sub al, ch ; pop rbx ; idiv bh ; dec  [rax-0x75] ; push 0x28C48348 ; ret ; \x28\xe8\x5b\xf6\xff\xff\x48\x8b\x40\x68\x48\x83\xc4\x28\xc3 (1 found)
0x140014043: sub al, ch ; xchg eax, ebx ; retn 0xFFFF ; \x28\xe8\x93\xc2\xff\xff (1 found)
0x14001abca: sub al, cl ; ret ; \x2a\xc1\xc3 (1 found)
0x1400157fa: sub bl, al ; and qword [0x000000014002BDB8], 0x0000000000000000 ; mov al, 0x01 ; ret ; \x28\xc3\x48\x83\x25\xb4\x65\x01\x00\x00\xb0\x01\xc3 (1 found)
0x14000d943: sub bl, al ; int3 ; int3 ; int3 ; mov al, 0x01 ; ret ; \x28\xc3\xcc\xcc\xcc\xb0\x01\xc3 (1 found)
0x14000daa5: sub bl, al ; int3 ; lea rax, qword [0x000000014002B528] ; ret ; \x28\xc3\xcc\x48\x8d\x05\x79\xda\x01\x00\xc3 (1 found)
0x14000def1: sub bl, al ; int3 ; mov al, 0x01 ; ret ; \x28\xc3\xcc\xb0\x01\xc3 (1 found)
0x14000dff5: sub bl, al ; int3 ; mov al, 0x01 ; ret ; \x28\xc3\xcc\xb0\x01\xc3 (1 found)
0x140002489: sub bl, al ; int3 ; xor eax, eax ; cmp  [0x000000014002A04C], eax ; sete al ; ret ; \x28\xc3\xcc\x33\xc0\x39\x05\xb8\x7b\x02\x00\x0f\x94\xc0\xc3 (1 found)
0x14000df0a: sub bl, al ; mov al, 0x01 ; ret ; \x28\xc3\xb0\x01\xc3 (1 found)
0x14000b2c3: sub byte [r10], r8L ; mov rbx, qword [rsp+0x30] ; mov rsi, qword [rsp+0x38] ; add rsp, 0x20 ; pop rdi ; ret ; \x47\x28\x02\x48\x8b\x5c\x24\x30\x48\x8b\x74\x24\x38\x48\x83\xc4\x20\x5f\xc3 (1 found)
0x14000da5a: sub byte [rax-0x14FFFFFD], 0x07 ; or  [0x000000014002AA40], 0xFFFFFFFF ; lea eax,  [rcx+0x02] ; add rsp, 0x20 ; pop rbx ; ret ; \x80\xa8\x03\x00\x00\xeb\x07\x83\x0d\xd8\xcf\x01\x00\xff\x8d\x41\x02\x48\x83\xc4\x20\x5b\xc3 (1 found)
0x140012570: sub byte [rax], al ; add byte [rax+0x3B], cl ; ret ; \x28\x00\x00\x48\x3b\xc3 (1 found)
0x14000bf2a: sub byte [rax], al ; add byte [rbx+0x48C38B18], cl ; mov ebx,  [rsp+0x30] ; add rsp, 0x20 ; pop rdi ; ret ; \x28\x00\x00\x8b\x18\x8b\xc3\x48\x8b\x5c\x24\x30\x48\x83\xc4\x20\x5f\xc3 (1 found)
0x1400123a7: sub byte [rax], al ; add byte [rbx+0x5C8B48C3], cl ; and al, 0x30 ; add rsp, 0x20 ; pop rdi ; ret ; \x28\x00\x00\x8b\xc3\x48\x8b\x5c\x24\x30\x48\x83\xc4\x20\x5f\xc3 (1 found)
0x14001bf77: sub byte [rbp+0x5B], bl ; ret ; \x28\x5d\x5b\xc3 (1 found)
0x14001c0ca: sub byte [rbp+0x5B], bl ; ret ; \x28\x5d\x5b\xc3 (1 found)
0x14000d176: sub byte [rcx+0x5F], al ; ret ; \x28\x41\x5f\xc3 (1 found)
0x140004d48: sub byte [rcx+rax+0x00], ah ; mov rbx, qword [rsp+0x30] ; mov rax, rdi ; add rsp, 0x20 ; pop rdi ; ret ; \x28\x64\x01\x00\x48\x8b\x5c\x24\x30\x48\x8b\xc7\x48\x83\xc4\x20\x5f\xc3 (1 found)
0x140004bb7: sub byte [rcx-0x75], cl ; retn 0x8948 ; \x28\x49\x8b\xc2\x48\x89 (1 found)
0x140003390: sub byte [rdx], al ; add byte [rax], al ; or  [0x000000014002A070], 0xFFFFFFFF ; mov al, 0x01 ; add rsp, 0x28 ; ret ; \x28\x02\x00\x00\x83\x0d\xd5\x6c\x02\x00\xff\xb0\x01\x48\x83\xc4\x28\xc3 (1 found)
0x14000b2c4: sub byte [rdx], al ; mov rbx, qword [rsp+0x30] ; mov rsi, qword [rsp+0x38] ; add rsp, 0x20 ; pop rdi ; ret ; \x28\x02\x48\x8b\x5c\x24\x30\x48\x8b\x74\x24\x38\x48\x83\xc4\x20\x5f\xc3 (1 found)
0x14001ab5d: sub byte [rsp+0x50], dh ; add rsp, 0x68 ; ret ; \x28\x74\x24\x50\x48\x83\xc4\x68\xc3 (1 found)
0x14001ab5a: sub dh, al ; movaps xmm6,  [rsp+0x50] ; add rsp, 0x68 ; ret ; \x28\xc6\x0f\x28\x74\x24\x50\x48\x83\xc4\x68\xc3 (1 found)
0x14000f032: sub dh, byte [rbx] ; rol byte [rbx-0x6BF0D2C2], cl ; retn 0x0348 ; \x2a\x33\xd2\x83\x3e\x2d\x0f\x94\xc2\x48\x03 (1 found)
0x14000239b: sub eax,  [rax] ; add byte [rax+0x3B], cl ; ret ; \x2b\x00\x00\x48\x3b\xc3 (1 found)
0x140002406: sub eax,  [rax] ; add byte [rax+0x3B], cl ; ret ; \x2b\x00\x00\x48\x3b\xc3 (1 found)
0x14001abc5: sub eax, 0x0F48F2C8 ; sub al, cl ; ret ; \x2d\xc8\xf2\x48\x0f\x2a\xc1\xc3 (1 found)
0x14000f8d7: sub eax, 0x48FFFFF2 ; mov ebx,  [rsp+0x60] ; mov rsi, qword [rsp+0x68] ; add rsp, 0x50 ; pop rdi ; ret ; \x2d\xf2\xff\xff\x48\x8b\x5c\x24\x60\x48\x8b\x74\x24\x68\x48\x83\xc4\x50\x5f\xc3 (1 found)
0x140013357: sub eax, 0xB70F0977 ; ror byte [rax+0x0F], 0xA3 ; ret ; \x2d\x77\x09\x0f\xb7\xc0\x48\x0f\xa3\xc3 (1 found)
0x140013385: sub eax, 0xB70F0B77 ; retn 0x0F48 ; \x2d\x77\x0b\x0f\xb7\xc2\x48\x0f (1 found)
0x14000787b: sub eax, eax ; sar r8, 1 ; add rax, 0x02 ; mov  [r9+0x48], r8d ; mov qword [r9+0x40], rax ; ret ; \x2b\xc0\x49\xd1\xf8\x48\x83\xc0\x02\x45\x89\x41\x48\x49\x89\x41\x40\xc3 (1 found)
0x14000793b: sub eax, eax ; sar r8, 1 ; add rax, 0x02 ; mov  [r9+0x48], r8d ; mov qword [r9+0x40], rax ; ret ; \x2b\xc0\x49\xd1\xf8\x48\x83\xc0\x02\x45\x89\x41\x48\x49\x89\x41\x40\xc3 (1 found)
0x1400079fb: sub eax, eax ; sar r8, 1 ; add rax, 0x02 ; mov  [r9+0x48], r8d ; mov qword [r9+0x40], rax ; ret ; \x2b\xc0\x49\xd1\xf8\x48\x83\xc0\x02\x45\x89\x41\x48\x49\x89\x41\x40\xc3 (1 found)
0x140007e39: sub eax, eax ; sar r8, 1 ; add rax, 0x02 ; mov  [r9+0x48], r8d ; mov qword [r9+0x40], rax ; ret ; \x2b\xc0\x49\xd1\xf8\x48\x83\xc0\x02\x45\x89\x41\x48\x49\x89\x41\x40\xc3 (1 found)
0x140007efd: sub eax, eax ; sar r8, 1 ; add rax, 0x02 ; mov  [r9+0x48], r8d ; mov qword [r9+0x40], rax ; ret ; \x2b\xc0\x49\xd1\xf8\x48\x83\xc0\x02\x45\x89\x41\x48\x49\x89\x41\x40\xc3 (1 found)
0x140007fc1: sub eax, eax ; sar r8, 1 ; add rax, 0x02 ; mov  [r9+0x48], r8d ; mov qword [r9+0x40], rax ; ret ; \x2b\xc0\x49\xd1\xf8\x48\x83\xc0\x02\x45\x89\x41\x48\x49\x89\x41\x40\xc3 (1 found)
0x14000ccb1: sub eax, ecx ; ret ; \x2b\xc1\xc3 (1 found)
0x1400076b6: sub ecx, eax ; add rax, 0x02 ; sar rcx, 1 ; mov  [r8+0x48], ecx ; mov qword [r8+0x40], rax ; ret ; \x2b\xc8\x48\x83\xc0\x02\x48\xd1\xf9\x41\x89\x48\x48\x49\x89\x40\x40\xc3 (1 found)
0x14000773a: sub ecx, eax ; add rax, 0x02 ; sar rcx, 1 ; mov  [r8+0x48], ecx ; mov qword [r8+0x40], rax ; ret ; \x2b\xc8\x48\x83\xc0\x02\x48\xd1\xf9\x41\x89\x48\x48\x49\x89\x40\x40\xc3 (1 found)
0x1400077be: sub ecx, eax ; add rax, 0x02 ; sar rcx, 1 ; mov  [r8+0x48], ecx ; mov qword [r8+0x40], rax ; ret ; \x2b\xc8\x48\x83\xc0\x02\x48\xd1\xf9\x41\x89\x48\x48\x49\x89\x40\x40\xc3 (1 found)
0x140007c64: sub ecx, eax ; add rax, 0x02 ; sar rcx, 1 ; mov  [r8+0x48], ecx ; mov qword [r8+0x40], rax ; ret ; \x2b\xc8\x48\x83\xc0\x02\x48\xd1\xf9\x41\x89\x48\x48\x49\x89\x40\x40\xc3 (1 found)
0x140007cec: sub ecx, eax ; add rax, 0x02 ; sar rcx, 1 ; mov  [r8+0x48], ecx ; mov qword [r8+0x40], rax ; ret ; \x2b\xc8\x48\x83\xc0\x02\x48\xd1\xf9\x41\x89\x48\x48\x49\x89\x40\x40\xc3 (1 found)
0x140007d74: sub ecx, eax ; add rax, 0x02 ; sar rcx, 1 ; mov  [r8+0x48], ecx ; mov qword [r8+0x40], rax ; ret ; \x2b\xc8\x48\x83\xc0\x02\x48\xd1\xf9\x41\x89\x48\x48\x49\x89\x40\x40\xc3 (1 found)
0x14000cfc5: sub ecx, edx ; ror r9, cl ; xor r9, r8 ; mov qword [0x000000014002B2B0], r9 ; ret ; \x2b\xca\x49\xd3\xc9\x4d\x33\xc8\x4c\x89\x0d\xdc\xe2\x01\x00\xc3 (1 found)
0x140007a9f: sub edx, eax ; add rax, 0x02 ; sar rdx, 1 ; mov  [rcx+0x48], edx ; mov qword [rcx+0x40], rax ; ret ; \x2b\xd0\x48\x83\xc0\x02\x48\xd1\xfa\x89\x51\x48\x48\x89\x41\x40\xc3 (1 found)
0x140007b3f: sub edx, eax ; add rax, 0x02 ; sar rdx, 1 ; mov  [rcx+0x48], edx ; mov qword [rcx+0x40], rax ; ret ; \x2b\xd0\x48\x83\xc0\x02\x48\xd1\xfa\x89\x51\x48\x48\x89\x41\x40\xc3 (1 found)
0x140007bdf: sub edx, eax ; add rax, 0x02 ; sar rdx, 1 ; mov  [rcx+0x48], edx ; mov qword [rcx+0x40], rax ; ret ; \x2b\xd0\x48\x83\xc0\x02\x48\xd1\xfa\x89\x51\x48\x48\x89\x41\x40\xc3 (1 found)
0x140008063: sub edx, eax ; add rax, 0x02 ; sar rdx, 1 ; mov  [rcx+0x48], edx ; mov qword [rcx+0x40], rax ; ret ; \x2b\xd0\x48\x83\xc0\x02\x48\xd1\xfa\x89\x51\x48\x48\x89\x41\x40\xc3 (1 found)
0x140008103: sub edx, eax ; add rax, 0x02 ; sar rdx, 1 ; mov  [rcx+0x48], edx ; mov qword [rcx+0x40], rax ; ret ; \x2b\xd0\x48\x83\xc0\x02\x48\xd1\xfa\x89\x51\x48\x48\x89\x41\x40\xc3 (1 found)
0x1400081a3: sub edx, eax ; add rax, 0x02 ; sar rdx, 1 ; mov  [rcx+0x48], edx ; mov qword [rcx+0x40], rax ; ret ; \x2b\xd0\x48\x83\xc0\x02\x48\xd1\xfa\x89\x51\x48\x48\x89\x41\x40\xc3 (1 found)
0x14000ea25: sub edx, eax ; sar rdx, 1 ; mov rax, rdx ; ret ; \x2b\xd0\x48\xd1\xfa\x48\x8b\xc2\xc3 (1 found)
0x14001ab81: sub esp, 0x08 ; stmxcsr  [rsp+0x00] ; mov eax,  [rsp+0x00] ; add rsp, 0x08 ; ret ; \x83\xec\x08\x0f\xae\x1c\x24\x8b\x04\x24\x48\x83\xc4\x08\xc3 (1 found)
0x14000787a: sub r8, rax ; sar r8, 1 ; add rax, 0x02 ; mov  [r9+0x48], r8d ; mov qword [r9+0x40], rax ; ret ; \x4c\x2b\xc0\x49\xd1\xf8\x48\x83\xc0\x02\x45\x89\x41\x48\x49\x89\x41\x40\xc3 (1 found)
0x14000793a: sub r8, rax ; sar r8, 1 ; add rax, 0x02 ; mov  [r9+0x48], r8d ; mov qword [r9+0x40], rax ; ret ; \x4c\x2b\xc0\x49\xd1\xf8\x48\x83\xc0\x02\x45\x89\x41\x48\x49\x89\x41\x40\xc3 (1 found)
0x1400079fa: sub r8, rax ; sar r8, 1 ; add rax, 0x02 ; mov  [r9+0x48], r8d ; mov qword [r9+0x40], rax ; ret ; \x4c\x2b\xc0\x49\xd1\xf8\x48\x83\xc0\x02\x45\x89\x41\x48\x49\x89\x41\x40\xc3 (1 found)
0x140007e38: sub r8, rax ; sar r8, 1 ; add rax, 0x02 ; mov  [r9+0x48], r8d ; mov qword [r9+0x40], rax ; ret ; \x4c\x2b\xc0\x49\xd1\xf8\x48\x83\xc0\x02\x45\x89\x41\x48\x49\x89\x41\x40\xc3 (1 found)
0x140007efc: sub r8, rax ; sar r8, 1 ; add rax, 0x02 ; mov  [r9+0x48], r8d ; mov qword [r9+0x40], rax ; ret ; \x4c\x2b\xc0\x49\xd1\xf8\x48\x83\xc0\x02\x45\x89\x41\x48\x49\x89\x41\x40\xc3 (1 found)
0x140007fc0: sub r8, rax ; sar r8, 1 ; add rax, 0x02 ; mov  [r9+0x48], r8d ; mov qword [r9+0x40], rax ; ret ; \x4c\x2b\xc0\x49\xd1\xf8\x48\x83\xc0\x02\x45\x89\x41\x48\x49\x89\x41\x40\xc3 (1 found)
0x14001639b: sub r8L, 0x52 ; xor byte [rax], al ; add byte [rax-0x75], cl ; ret ; \x4d\x80\xe8\x52\x30\x00\x00\x48\x8b\xc3 (1 found)
0x1400076b5: sub rcx, rax ; add rax, 0x02 ; sar rcx, 1 ; mov  [r8+0x48], ecx ; mov qword [r8+0x40], rax ; ret ; \x48\x2b\xc8\x48\x83\xc0\x02\x48\xd1\xf9\x41\x89\x48\x48\x49\x89\x40\x40\xc3 (1 found)
0x140007739: sub rcx, rax ; add rax, 0x02 ; sar rcx, 1 ; mov  [r8+0x48], ecx ; mov qword [r8+0x40], rax ; ret ; \x48\x2b\xc8\x48\x83\xc0\x02\x48\xd1\xf9\x41\x89\x48\x48\x49\x89\x40\x40\xc3 (1 found)
0x1400077bd: sub rcx, rax ; add rax, 0x02 ; sar rcx, 1 ; mov  [r8+0x48], ecx ; mov qword [r8+0x40], rax ; ret ; \x48\x2b\xc8\x48\x83\xc0\x02\x48\xd1\xf9\x41\x89\x48\x48\x49\x89\x40\x40\xc3 (1 found)
0x140007c63: sub rcx, rax ; add rax, 0x02 ; sar rcx, 1 ; mov  [r8+0x48], ecx ; mov qword [r8+0x40], rax ; ret ; \x48\x2b\xc8\x48\x83\xc0\x02\x48\xd1\xf9\x41\x89\x48\x48\x49\x89\x40\x40\xc3 (1 found)
0x140007ceb: sub rcx, rax ; add rax, 0x02 ; sar rcx, 1 ; mov  [r8+0x48], ecx ; mov qword [r8+0x40], rax ; ret ; \x48\x2b\xc8\x48\x83\xc0\x02\x48\xd1\xf9\x41\x89\x48\x48\x49\x89\x40\x40\xc3 (1 found)
0x140007d73: sub rcx, rax ; add rax, 0x02 ; sar rcx, 1 ; mov  [r8+0x48], ecx ; mov qword [r8+0x40], rax ; ret ; \x48\x2b\xc8\x48\x83\xc0\x02\x48\xd1\xf9\x41\x89\x48\x48\x49\x89\x40\x40\xc3 (1 found)
0x14000ea23: sub rdx, r8 ; sar rdx, 1 ; mov rax, rdx ; ret ; \xf2\x49\x2b\xd0\x48\xd1\xfa\x48\x8b\xc2\xc3 (1 found)
0x14000ea24: sub rdx, r8 ; sar rdx, 1 ; mov rax, rdx ; ret ; \x49\x2b\xd0\x48\xd1\xfa\x48\x8b\xc2\xc3 (1 found)
0x140007a9e: sub rdx, rax ; add rax, 0x02 ; sar rdx, 1 ; mov  [rcx+0x48], edx ; mov qword [rcx+0x40], rax ; ret ; \x48\x2b\xd0\x48\x83\xc0\x02\x48\xd1\xfa\x89\x51\x48\x48\x89\x41\x40\xc3 (1 found)
0x140007b3e: sub rdx, rax ; add rax, 0x02 ; sar rdx, 1 ; mov  [rcx+0x48], edx ; mov qword [rcx+0x40], rax ; ret ; \x48\x2b\xd0\x48\x83\xc0\x02\x48\xd1\xfa\x89\x51\x48\x48\x89\x41\x40\xc3 (1 found)
0x140007bde: sub rdx, rax ; add rax, 0x02 ; sar rdx, 1 ; mov  [rcx+0x48], edx ; mov qword [rcx+0x40], rax ; ret ; \x48\x2b\xd0\x48\x83\xc0\x02\x48\xd1\xfa\x89\x51\x48\x48\x89\x41\x40\xc3 (1 found)
0x140008062: sub rdx, rax ; add rax, 0x02 ; sar rdx, 1 ; mov  [rcx+0x48], edx ; mov qword [rcx+0x40], rax ; ret ; \x48\x2b\xd0\x48\x83\xc0\x02\x48\xd1\xfa\x89\x51\x48\x48\x89\x41\x40\xc3 (1 found)
0x140008102: sub rdx, rax ; add rax, 0x02 ; sar rdx, 1 ; mov  [rcx+0x48], edx ; mov qword [rcx+0x40], rax ; ret ; \x48\x2b\xd0\x48\x83\xc0\x02\x48\xd1\xfa\x89\x51\x48\x48\x89\x41\x40\xc3 (1 found)
0x1400081a2: sub rdx, rax ; add rax, 0x02 ; sar rdx, 1 ; mov  [rcx+0x48], edx ; mov qword [rcx+0x40], rax ; ret ; \x48\x2b\xd0\x48\x83\xc0\x02\x48\xd1\xfa\x89\x51\x48\x48\x89\x41\x40\xc3 (1 found)
0x14001ab80: sub rsp, 0x08 ; stmxcsr  [rsp+0x00] ; mov eax,  [rsp+0x00] ; add rsp, 0x08 ; ret ; \x48\x83\xec\x08\x0f\xae\x1c\x24\x8b\x04\x24\x48\x83\xc4\x08\xc3 (1 found)
0x14001b50a: test  [rax+rcx*4+0x59], 0x894CC3FF ; pop rcx ; mul byte [rsi+0x44] ; mov  [rcx-0x02], ebx ; ret ; \xf7\x44\x88\x59\xff\xc3\x4c\x89\x59\xf6\x66\x44\x89\x59\xfe\xc3 (1 found)
0x1400133fb: test  [rax-0x3F], 0x8B4C03FE ; out 0x33, al ; jmp qword [rsi-0x7D] ; \xf7\x48\xc1\xfe\x03\x4c\x8b\xe6\x33\xff\x66\x83 (1 found)
0x14001c4e0: test  [rax-0x75000000], eax ; or al, ch ; and byte [rdi+0x4890FFFF], al ; add esp, 0x40 ; pop rbp ; ret ; \x85\x80\x00\x00\x00\x8b\x08\xe8\x20\x87\xff\xff\x90\x48\x83\xc4\x40\x5d\xc3 (1 found)
0x14000d934: test  [rax], 0x05894800 ; fcmovu st0, st3 ; add  [rax], eax ; mov al, 0x01 ; add rsp, 0x28 ; ret ; \xf7\x00\x00\x48\x89\x05\xda\xdb\x01\x00\xb0\x01\x48\x83\xc4\x28\xc3 (1 found)
0x140019fd0: test  [rcx-0x75000000], ecx ; retn 0xE183 ; \x85\x89\x00\x00\x00\x8b\xc2\x83\xe1 (1 found)
0x140011048: test al, 0x03 ; add byte [rax], al ; std ; movzx eax, dx ; add rsp, 0x58 ; ret ; \xa8\x03\x00\x00\xfd\x0f\xb7\xc2\x48\x83\xc4\x58\xc3 (1 found)
0x14000460e: test al, 0xE8 ; ret ; \x4d\xa8\xe8\xc3 (1 found)
0x14000460f: test al, 0xE8 ; ret ; \xa8\xe8\xc3 (1 found)
0x1400191ef: test al, al ; sete cl ; mov eax, ecx ; add rsp, 0x28 ; ret ; \x84\xc0\x0f\x94\xc1\x8b\xc1\x48\x83\xc4\x28\xc3 (1 found)
0x1400129d5: test bl, ch ; sal byte [rdi+0x4C880002], 1 ; clc ; cmp al, 0x8B ; retn 0x2B48 ; \x84\xeb\xd0\xb7\x02\x00\x88\x4c\xf8\x3c\x8b\xc2\x48\x2b (1 found)
0x140016235: test byte [rax+rdi*2], ah ; add al, byte [rax] ; add byte [rcx-0x7D], cl ; ret ; \x84\x24\x78\x02\x00\x00\x49\x83\xc3 (1 found)
0x1400028e4: test byte [rax], 0x00 ; add byte [rax-0x75], cl ; and byte [r10], r12L ; ret ; \xf6\x00\x00\x00\x48\x8b\x45\x20\x22\xc3 (1 found)
0x14001b40a: test byte [rax], al ; add byte [rax], al ; add byte [rax], al ; jmp rax ; \x84\x00\x00\x00\x00\x00\xff\xe0 (1 found)
0x14001b84a: test byte [rax], al ; add byte [rax], al ; add byte [rax], al ; mov r9d,  [r10+r8*4+0x00026410] ; add r9, r10 ; jmp r9 ; \x84\x00\x00\x00\x00\x00\x47\x8b\x8c\x82\x10\x64\x02\x00\x4d\x03\xca\x41\xff\xe1 (1 found)
0x140005808: test byte [rcx+0x01], bh ; add byte [rax+0x30C48348], dl ; pop rbx ; ret ; \x84\x79\x01\x00\x90\x48\x83\xc4\x30\x5b\xc3 (1 found)
0x14000e95e: test cl, al ; add byte [rax], al ; add byte [rax-0x7D], cl ; retn 0x4802 ; \x84\xc1\x00\x00\x00\x48\x83\xc2\x02\x48 (1 found)
0x14000da9c: test dl, bl ; add  [rax], eax ; mov eax, ecx ; add rsp, 0x28 ; ret ; \x84\xda\x01\x00\x8b\xc1\x48\x83\xc4\x28\xc3 (1 found)
0x1400024a3: test eax, 0xC3000447 ; and  [0x000000014002B108], 0x00000000 ; ret ; \xa9\x47\x04\x00\xc3\x83\x25\x59\x8c\x02\x00\x00\xc3 (1 found)
0x140014eb3: test eax, eax ; cmove eax, ecx ; mov  [0x000000014002BDA8], eax ; xor eax, eax ; ret ; \x85\xc0\x0f\x44\xc1\x89\x05\xea\x6e\x01\x00\x33\xc0\xc3 (1 found)
0x140002357: test eax, eax ; cmove rdx, rbx ; mov rax, rdx ; add rsp, 0x20 ; pop rbx ; ret ; \x85\xc0\x48\x0f\x44\xd3\x48\x8b\xc2\x48\x83\xc4\x20\x5b\xc3 (1 found)
0x1400010a8: test eax, eax ; cmovs eax, ebx ; mov rbx, qword [rsp+0x50] ; add rsp, 0x40 ; pop rdi ; ret ; \x85\xc0\x0f\x48\xc3\x48\x8b\x5c\x24\x50\x48\x83\xc4\x40\x5f\xc3 (1 found)
0x1400157eb: test eax, eax ; mov qword [0x000000014002BDB8], rax ; setne al ; add rsp, 0x28 ; ret ; \x85\xc0\x48\x89\x05\xc4\x65\x01\x00\x0f\x95\xc0\x48\x83\xc4\x28\xc3 (1 found)
0x1400037db: test eax, eax ; setne al ; add rsp, 0x20 ; pop rbx ; ret ; \x85\xc0\x0f\x95\xc0\x48\x83\xc4\x20\x5b\xc3 (1 found)
0x14001a8de: test ebx, ebx ; mov rbx, qword [rsp+0x30] ; sete al ; add rsp, 0x20 ; pop rdi ; ret ; \x85\xdb\x48\x8b\x5c\x24\x30\x0f\x94\xc0\x48\x83\xc4\x20\x5f\xc3 (1 found)
0x140001d3e: test ecx, 0x0175FFFF ; ret ; \xf7\xc1\xff\xff\x75\x01\xc3 (1 found)
0x140005c52: test ecx, ecx ; sete al ; ret ; \x85\xc9\x0f\x94\xc0\xc3 (1 found)
0x14001b3ae: test edx, edx ; cmovne r9, rcx ; mov rax, r9 ; mov rbx, qword [rsp+0x08] ; ret ; \x85\xd2\x4c\x0f\x45\xc9\x49\x8b\xc1\x48\x8b\x5c\x24\x08\xc3 (1 found)
0x14000cf66: test edx, edx ; setne al ; ret ; \x85\xd2\x0f\x95\xc0\xc3 (1 found)
0x1400157ea: test rax, rax ; mov qword [0x000000014002BDB8], rax ; setne al ; add rsp, 0x28 ; ret ; \x48\x85\xc0\x48\x89\x05\xc4\x65\x01\x00\x0f\x95\xc0\x48\x83\xc4\x28\xc3 (1 found)
0x1400037da: test rax, rax ; setne al ; add rsp, 0x20 ; pop rbx ; ret ; \x48\x85\xc0\x0f\x95\xc0\x48\x83\xc4\x20\x5b\xc3 (1 found)
0x140005c51: test rcx, rcx ; sete al ; ret ; \x48\x85\xc9\x0f\x94\xc0\xc3 (1 found)
0x14000cf65: test rdx, rdx ; setne al ; ret ; \x48\x85\xd2\x0f\x95\xc0\xc3 (1 found)
0x140019ac6: vaddsd xmm0, xmm0, xmm1 ; vaddsd xmm0, xmm0, xmm3 ; vmovdqa xmm6,  [rsp+0x20] ; add rsp, 0x58 ; ret ; \xc5\xfb\x58\xc1\xc5\xfb\x58\xc3\xc5\xf9\x6f\x74\x24\x20\x48\x83\xc4\x58\xc3 (1 found)
0x140019a20: vaddsd xmm0, xmm0, xmm2 ; vmovdqa xmm6,  [rsp+0x20] ; add rsp, 0x58 ; ret ; \xc5\xfb\x58\xc2\xc5\xf9\x6f\x74\x24\x20\x48\x83\xc4\x58\xc3 (1 found)
0x140019aca: vaddsd xmm0, xmm0, xmm3 ; vmovdqa xmm6,  [rsp+0x20] ; add rsp, 0x58 ; ret ; \xc5\xfb\x58\xc3\xc5\xf9\x6f\x74\x24\x20\x48\x83\xc4\x58\xc3 (1 found)
0x140019ac2: vaddsd xmm0, xmm0, xmm4 ; vaddsd xmm0, xmm0, xmm1 ; vaddsd xmm0, xmm0, xmm3 ; vmovdqa xmm6,  [rsp+0x20] ; add rsp, 0x58 ; ret ; \xc5\xfb\x58\xc4\xc5\xfb\x58\xc1\xc5\xfb\x58\xc3\xc5\xf9\x6f\x74\x24\x20\x48\x83\xc4\x58\xc3 (1 found)
0x140019a13: vaddsd xmm2, xmm2, xmm5 ; vfmadd231sd xmm0, xmm6,  [0x0000000140023DF0] ; vaddsd xmm0, xmm0, xmm2 ; vmovdqa xmm6,  [rsp+0x20] ; add rsp, 0x58 ; ret ; \xc5\xeb\x58\xd5\xc4\xe2\xc9\xb9\x05\xd0\xa3\x00\x00\xc5\xfb\x58\xc2\xc5\xf9\x6f\x74\x24\x20\x48\x83\xc4\x58\xc3 (1 found)
0x140019a17: vfmadd231sd xmm0, xmm6,  [0x0000000140023DF0] ; vaddsd xmm0, xmm0, xmm2 ; vmovdqa xmm6,  [rsp+0x20] ; add rsp, 0x58 ; ret ; \xc4\xe2\xc9\xb9\x05\xd0\xa3\x00\x00\xc5\xfb\x58\xc2\xc5\xf9\x6f\x74\x24\x20\x48\x83\xc4\x58\xc3 (1 found)
0x140019a24: vmovdqa xmm6,  [rsp+0x20] ; add rsp, 0x58 ; ret ; \xc5\xf9\x6f\x74\x24\x20\x48\x83\xc4\x58\xc3 (1 found)
0x140019ace: vmovdqa xmm6,  [rsp+0x20] ; add rsp, 0x58 ; ret ; \xc5\xf9\x6f\x74\x24\x20\x48\x83\xc4\x58\xc3 (1 found)
0x140019b26: vmovdqa xmm6,  [rsp+0x20] ; add rsp, 0x58 ; ret ; \xc5\xf9\x6f\x74\x24\x20\x48\x83\xc4\x58\xc3 (1 found)
0x140019b54: vmovdqa xmm6,  [rsp+0x20] ; add rsp, 0x58 ; ret ; \xc5\xf9\x6f\x74\x24\x20\x48\x83\xc4\x58\xc3 (1 found)
0x140019b90: vmovdqa xmm6,  [rsp+0x20] ; add rsp, 0x58 ; ret ; \xc5\xf9\x6f\x74\x24\x20\x48\x83\xc4\x58\xc3 (1 found)
0x14001b70b: vmovdqu  [rax], ymm0 ; sfence ; vzeroupper ; ret ; \xc5\xfe\x7f\x00\x0f\xae\xf8\xc5\xf8\x77\xc3 (1 found)
0x14001bc56: vmovdqu  [rax], ymm0 ; sfence ; vzeroupper ; ret ; \xc5\xfe\x7f\x00\x0f\xae\xf8\xc5\xf8\x77\xc3 (1 found)
0x14001b64b: vmovdqu  [rax], ymm0 ; vzeroupper ; ret ; \xc5\xfe\x7f\x00\xc5\xf8\x77\xc3 (1 found)
0x14001bb26: vmovdqu  [rax], ymm0 ; vzeroupper ; ret ; \xc5\xfe\x7f\x00\xc5\xf8\x77\xc3 (1 found)
0x14001b704: vmovdqu  [rcx+r8-0x20], ymm0 ; vmovdqu  [rax], ymm0 ; sfence ; vzeroupper ; ret ; \xc4\xa1\x7e\x7f\x44\x01\xe0\xc5\xfe\x7f\x00\x0f\xae\xf8\xc5\xf8\x77\xc3 (1 found)
0x14001b644: vmovdqu  [rcx+r8-0x20], ymm0 ; vmovdqu  [rax], ymm0 ; vzeroupper ; ret ; \xc4\xa1\x7e\x7f\x44\x01\xe0\xc5\xfe\x7f\x00\xc5\xf8\x77\xc3 (1 found)
0x14001bc4f: vmovdqu  [rcx+r8-0x20], ymm5 ; vmovdqu  [rax], ymm0 ; sfence ; vzeroupper ; ret ; \xc4\xa1\x7e\x7f\x6c\x01\xe0\xc5\xfe\x7f\x00\x0f\xae\xf8\xc5\xf8\x77\xc3 (1 found)
0x14001bb1f: vmovdqu  [rcx+r8-0x20], ymm5 ; vmovdqu  [rax], ymm0 ; vzeroupper ; ret ; \xc4\xa1\x7e\x7f\x6c\x01\xe0\xc5\xfe\x7f\x00\xc5\xf8\x77\xc3 (1 found)
0x14001b63d: vmovdqu  [rcx+r9-0x40], ymm0 ; vmovdqu  [rcx+r8-0x20], ymm0 ; vmovdqu  [rax], ymm0 ; vzeroupper ; ret ; \xc4\xa1\x7e\x7f\x44\x09\xc0\xc4\xa1\x7e\x7f\x44\x01\xe0\xc5\xfe\x7f\x00\xc5\xf8\x77\xc3 (1 found)
0x14001bb18: vmovdqu  [rcx+r9-0x40], ymm1 ; vmovdqu  [rcx+r8-0x20], ymm5 ; vmovdqu  [rax], ymm0 ; vzeroupper ; ret ; \xc4\xa1\x7e\x7f\x4c\x09\xc0\xc4\xa1\x7e\x7f\x6c\x01\xe0\xc5\xfe\x7f\x00\xc5\xf8\x77\xc3 (1 found)
0x14001b636: vmovdqu  [rcx+r9-0x60], ymm0 ; vmovdqu  [rcx+r9-0x40], ymm0 ; vmovdqu  [rcx+r8-0x20], ymm0 ; vmovdqu  [rax], ymm0 ; vzeroupper ; ret ; \xc4\xa1\x7e\x7f\x44\x09\xa0\xc4\xa1\x7e\x7f\x44\x09\xc0\xc4\xa1\x7e\x7f\x44\x01\xe0\xc5\xfe\x7f\x00\xc5\xf8\x77\xc3 (1 found)
0x14001bb11: vmovdqu ymm1,  [rdx+r9-0x40] ; vmovdqu  [rcx+r9-0x40], ymm1 ; vmovdqu  [rcx+r8-0x20], ymm5 ; vmovdqu  [rax], ymm0 ; vzeroupper ; ret ; \xc4\xa1\x7e\x6f\x4c\x0a\xc0\xc4\xa1\x7e\x7f\x4c\x09\xc0\xc4\xa1\x7e\x7f\x6c\x01\xe0\xc5\xfe\x7f\x00\xc5\xf8\x77\xc3 (1 found)
0x14001b6fd: vmovntdq  [rcx+r9-0x40], ymm0 ; vmovdqu  [rcx+r8-0x20], ymm0 ; vmovdqu  [rax], ymm0 ; sfence ; vzeroupper ; ret ; \xc4\xa1\x7d\xe7\x44\x09\xc0\xc4\xa1\x7e\x7f\x44\x01\xe0\xc5\xfe\x7f\x00\x0f\xae\xf8\xc5\xf8\x77\xc3 (1 found)
0x14001bc48: vmovntdq  [rcx+r9-0x40], ymm1 ; vmovdqu  [rcx+r8-0x20], ymm5 ; vmovdqu  [rax], ymm0 ; sfence ; vzeroupper ; ret ; \xc4\xa1\x7d\xe7\x4c\x09\xc0\xc4\xa1\x7e\x7f\x6c\x01\xe0\xc5\xfe\x7f\x00\x0f\xae\xf8\xc5\xf8\x77\xc3 (1 found)
0x14001b64f: vzeroupper ; ret ; \xc5\xf8\x77\xc3 (1 found)
0x14001b712: vzeroupper ; ret ; \xc5\xf8\x77\xc3 (1 found)
0x14001bb2a: vzeroupper ; ret ; \xc5\xf8\x77\xc3 (1 found)
0x14001bc5d: vzeroupper ; ret ; \xc5\xf8\x77\xc3 (1 found)
0x1400155b5: xadd  [rcx+0x0000015C], eax ; dec eax ; ret ; \x0f\xc1\x81\x5c\x01\x00\x00\xff\xc8\xc3 (1 found)
0x140015557: xadd  [rcx+0x0000015C], eax ; inc eax ; ret ; \x0f\xc1\x81\x5c\x01\x00\x00\xff\xc0\xc3 (1 found)
0x1400022f4: xchg  [0x000000014002B0A8], edx ; add rsp, 0x20 ; pop rbx ; ret ; \x87\x15\xae\x8d\x02\x00\x48\x83\xc4\x20\x5b\xc3 (1 found)
0x14000d9d1: xchg  [0x000000014002B520], eax ; ret ; \x87\x05\x49\xdb\x01\x00\xc3 (1 found)
0x14000da9a: xchg  [0x000000014002B524], ecx ; mov eax, ecx ; add rsp, 0x28 ; ret ; \x87\x0d\x84\xda\x01\x00\x8b\xc1\x48\x83\xc4\x28\xc3 (1 found)
0x1400198d5: xchg  [rax+rax+0x0F486600], esp ; outsb ; shl byte [rsi-0x70], 0x66 ; movq mm6, qword [rsp+0x20] ; add rsp, 0x58 ; ret ; \x87\xa4\x00\x00\x66\x48\x0f\x6e\xc0\x66\x90\x66\x0f\x6f\x74\x24\x20\x48\x83\xc4\x58\xc3 (1 found)
0x140015f9f: xchg  [rbx+rax+0x00], eax ; add byte [rbp-0x75], al ; retn 0x6349 ; \x87\x44\x03\x00\x00\x45\x8b\xc2\x49\x63 (1 found)
0x140011eb0: xchg  [rcx+0x14], eax ; ret ; \x87\x41\x14\xc3 (1 found)
0x14001b83f: xchg  [rcx+rax], ecx ; add byte [rax], al ; nop word [rax+rax+0x00000000] ; mov r9d,  [r10+r8*4+0x00026410] ; add r9, r10 ; jmp r9 ; \x87\x0c\x01\x00\x00\x66\x66\x66\x66\x0f\x1f\x84\x00\x00\x00\x00\x00\x47\x8b\x8c\x82\x10\x64\x02\x00\x4d\x03\xca\x41\xff\xe1 (1 found)
0x14001c0a5: xchg  [rdi-0x02], ebp ; call qword [rax-0x018E5218] ; \x87\x6f\xfe\xff\x90\xe8\xad\x71\xfe (1 found)
0x140015b25: xchg bh, bh ; call qword [rax+0x45378B48] ; \x86\xff\xff\x90\x48\x8b\x37\x45 (1 found)
0x14001b0ea: xchg byte [rax], al ; add byte [rax], al ; mov rax, rbx ; add rsp, 0x20 ; pop rbx ; ret ; \x86\x00\x00\x00\x48\x8b\xc3\x48\x83\xc4\x20\x5b\xc3 (1 found)
0x14000e2d1: xchg eax, ebp ; ret ; \x95\xc3 (1 found)
0x14001591b: xchg eax, ebp ; ret ; \x95\xc3 (1 found)
0x140019f3c: xchg eax, ebp ; ret ; \x95\xc3 (1 found)
0x14001a0d0: xchg eax, ebp ; ret ; \x95\xc3 (1 found)
0x14000cf69: xchg eax, ebp ; rol bl, 0x48 ; mov  [0x000000014002B2B0], ecx ; ret ; \x95\xc0\xc3\x48\x89\x0d\x3d\xe3\x01\x00\xc3 (1 found)
0x1400157f5: xchg eax, ebp ; ror byte [rax-0x7D], 0xC4 ; sub bl, al ; and qword [0x000000014002BDB8], 0x0000000000000000 ; mov al, 0x01 ; ret ; \x95\xc0\x48\x83\xc4\x28\xc3\x48\x83\x25\xb4\x65\x01\x00\x00\xb0\x01\xc3 (1 found)
0x14000264a: xchg eax, ebp ; shr bl, 0x02 ; xor al, al ; add rsp, 0x28 ; ret ; \x95\xc0\xeb\x02\x32\xc0\x48\x83\xc4\x28\xc3 (1 found)
0x140014045: xchg eax, ebx ; retn 0xFFFF ; \x93\xc2\xff\xff (1 found)
0x140004c80: xchg eax, edi ; add  [rax], eax ; mov qword [rcx], rax ; mov rax, rcx ; ret ; \x97\x01\x00\x48\x89\x01\x48\x8b\xc1\xc3 (1 found)
0x14000c0ca: xchg eax, edx ; ret ; \x92\xc3 (1 found)
0x14000e88a: xchg eax, esi ; add  [rax], eax ; add byte [rax-0x7D], cl ; retn 0x4802 ; \x96\x01\x00\x00\x48\x83\xc2\x02\x48 (1 found)
0x1400143c8: xchg eax, esi ; retn 0xFF33 ; \x96\xc2\x33\xff (1 found)
0x1400133f5: xchg eax, esp ; add byte [rax], al ; add byte [rax+0x2B], cl ; test  [rax-0x3F], 0x8B4C03FE ; out 0x33, al ; jmp qword [rsi-0x7D] ; \x94\x00\x00\x00\x48\x2b\xf7\x48\xc1\xfe\x03\x4c\x8b\xe6\x33\xff\x66\x83 (1 found)
0x140014018: xchg eax, esp ; ret ; \x94\xc3 (1 found)
0x14000f039: xchg eax, esp ; retn 0x0348 ; \x94\xc2\x48\x03 (1 found)
0x140005a98: xchg eax, esp ; retn 0xFFFF ; \x94\xc2\xff\xff (1 found)
0x140002495: xchg eax, esp ; rol bl, 0x48 ; lea eax,  [0x0000000140046C58] ; ret ; \x94\xc0\xc3\x48\x8d\x05\xb9\x47\x04\x00\xc3 (1 found)
0x140005c55: xchg eax, esp ; rol bl, 0xB0 ; add ebx, eax ; xor al, al ; ret ; \x94\xc0\xc3\xb0\x01\xc3\x32\xc0\xc3 (1 found)
0x14001c565: xchg eax, esp ; ror  [rbx-0x3B7CB73F], 0x20 ; pop rbp ; ret ; \x94\xc1\x8b\xc1\x48\x83\xc4\x20\x5d\xc3 (1 found)
0x1400191f2: xchg eax, esp ; ror  [rbx-0x3B7CB73F], 0x28 ; ret ; \x94\xc1\x8b\xc1\x48\x83\xc4\x28\xc3 (1 found)
0x14001c140: xchg eax, esp ; ror byte [rcx+0x458B2045], 0x20 ; add rsp, 0x20 ; pop rbp ; ret ; \x94\xc0\x89\x45\x20\x8b\x45\x20\x48\x83\xc4\x20\x5d\xc3 (1 found)
0x140017b18: xchg eax, esp ; shr bl, 0x02 ; xor al, al ; add rsp, 0x20 ; pop rbx ; ret ; \x94\xc0\xeb\x02\x32\xc0\x48\x83\xc4\x20\x5b\xc3 (1 found)
0x140005796: xchg eax, esp ; shr bl, 0x02 ; xor al, al ; add rsp, 0x28 ; ret ; \x94\xc0\xeb\x02\x32\xc0\x48\x83\xc4\x28\xc3 (1 found)
0x14001c4e9: xchg edi, edi ; call qword [rax+0x40C48348] ; \x87\xff\xff\x90\x48\x83\xc4\x40 (1 found)
0x1400022f3: xchg qword [0x000000014002B0A8], rdx ; add rsp, 0x20 ; pop rbx ; ret ; \x48\x87\x15\xae\x8d\x02\x00\x48\x83\xc4\x20\x5b\xc3 (1 found)
0x14001b394: xlatb ; fldenv  [rsi+0x0F] ; xlatb ; rol byte [rbp-0x742C8B25], 1 ; ret ; \xd7\xd9\x66\x0f\xd7\xd0\x85\xdb\x74\xd3\x8b\xc3 (1 found)
0x140010b2d: xlatb ; mov  [rax], 0x0225B800 ; add al, al ; add rsp, 0x20 ; pop rbx ; ret ; \xd7\xc7\x00\x00\xb8\x25\x02\x00\xc0\x48\x83\xc4\x20\x5b\xc3 (1 found)
0x140002b5e: xlatb ; rol  [rbp+0x480A75C0], 0xFFFFFF83 ; retn 0x4910 ; \xd7\xc1\x85\xc0\x75\x0a\x48\x83\xc2\x10\x49 (1 found)
0x14001b398: xlatb ; rol byte [rbp-0x742C8B25], 1 ; ret ; \xd7\xd0\x85\xdb\x74\xd3\x8b\xc3 (1 found)
0x14000d82b: xor  [rsi], ecx ; add byte [rax], al ; mov eax, 0x00000016 ; add rsp, 0x28 ; ret ; \x31\x0e\x00\x00\xb8\x16\x00\x00\x00\x48\x83\xc4\x28\xc3 (1 found)
0x1400022d5: xor al, al ; add rsp, 0x18 ; ret ; \x32\xc0\x48\x83\xc4\x18\xc3 (1 found)
0x1400033e2: xor al, al ; add rsp, 0x20 ; pop rbx ; ret ; \x32\xc0\x48\x83\xc4\x20\x5b\xc3 (1 found)
0x14000e200: xor al, al ; add rsp, 0x20 ; pop rbx ; ret ; \x32\xc0\x48\x83\xc4\x20\x5b\xc3 (1 found)
0x140017b1c: xor al, al ; add rsp, 0x20 ; pop rbx ; ret ; \x32\xc0\x48\x83\xc4\x20\x5b\xc3 (1 found)
0x14000216e: xor al, al ; add rsp, 0x28 ; ret ; \x32\xc0\x48\x83\xc4\x28\xc3 (1 found)
0x14000264e: xor al, al ; add rsp, 0x28 ; ret ; \x32\xc0\x48\x83\xc4\x28\xc3 (1 found)
0x140003378: xor al, al ; add rsp, 0x28 ; ret ; \x32\xc0\x48\x83\xc4\x28\xc3 (1 found)
0x14000579a: xor al, al ; add rsp, 0x28 ; ret ; \x32\xc0\x48\x83\xc4\x28\xc3 (1 found)
0x14000ff16: xor al, al ; mov rbx, qword [rsp+0x30] ; add rsp, 0x20 ; pop rdi ; ret ; \x32\xc0\x48\x8b\x5c\x24\x30\x48\x83\xc4\x20\x5f\xc3 (1 found)
0x140005c5b: xor al, al ; ret ; \x32\xc0\xc3 (1 found)
0x14001532f: xor byte [gs:rcx+0x5F], al ; pop r14 ; pop r13 ; pop r12 ; pop rbp ; ret ; \x65\x30\x41\x5f\x41\x5e\x41\x5d\x41\x5c\x5d\xc3 (1 found)
0x14000e771: xor byte [r9], al ; add rsp, 0x20 ; pop rbx ; ret ; \x43\x30\x01\x48\x83\xc4\x20\x5b\xc3 (1 found)
0x1400158d9: xor byte [rax-0x3B7CB7FF], dh ; and byte [rdi-0x3D], bl ; int3 ; int3 ; mov qword [0x000000014002BDC0], rcx ; ret ; \x30\xb0\x01\x48\x83\xc4\x20\x5f\xc3\xcc\xcc\x48\x89\x0d\xd5\x64\x01\x00\xc3 (1 found)
0x14001516c: xor byte [rax-0x75], cl ; insb ; and al, 0x38 ; add rsp, 0x20 ; pop rsi ; ret ; \x30\x48\x8b\x6c\x24\x38\x48\x83\xc4\x20\x5e\xc3 (1 found)
0x14000d8bb: xor byte [rax-0x77BD7F37], al ; retn 0x4A38 ; \x30\x80\xc9\x80\x42\x88\x4c\xc2\x38\x4a (1 found)
0x14001639f: xor byte [rax], al ; add byte [rax-0x75], cl ; ret ; \x30\x00\x00\x48\x8b\xc3 (1 found)
0x140002429: xor byte [rbp-0x3D], bl ; xor eax, eax ; ret ; \x30\x5d\xc3\x33\xc0\xc3 (1 found)
0x140011045: xor byte [rbx+0x0003A8A1], al ; add ch, bh ; movzx eax, dx ; add rsp, 0x58 ; ret ; \x30\x83\xa1\xa8\x03\x00\x00\xfd\x0f\xb7\xc2\x48\x83\xc4\x58\xc3 (1 found)
0x140013018: xor byte [rbx+0x7C8B48C7], cl ; and al, 0x40 ; mov rsi, qword [rsp+0x38] ; add rsp, 0x20 ; pop r14 ; ret ; \x30\x8b\xc7\x48\x8b\x7c\x24\x40\x48\x8b\x74\x24\x38\x48\x83\xc4\x20\x41\x5e\xc3 (1 found)
0x14000f9b1: xor byte [rbx+rax-0x75], dh ; pop rdi ; sub al, 0x8B ; ret ; \x30\x74\x03\x8b\x5f\x2c\x8b\xc3 (1 found)
0x140005810: xor byte [rbx-0x3D], bl ; int3 ; mov qword [0x000000014002B288], rcx ; ret ; \x30\x5b\xc3\xcc\x48\x89\x0d\x6d\x5a\x02\x00\xc3 (1 found)
0x1400122d8: xor byte [rcx+0x3A382444], cl ; ret ; \x30\x89\x44\x24\x38\x3a\xc3 (1 found)
0x1400188a6: xor byte [rcx+0x5E], al ; pop rdi ; pop rsi ; ret ; \x30\x41\x5e\x5f\x5e\xc3 (1 found)
0x1400065dd: xor byte [rcx+0x5E], al ; ret ; \x30\x41\x5e\xc3 (1 found)
0x1400067e9: xor byte [rcx+0x5E], al ; ret ; \x30\x41\x5e\xc3 (1 found)
0x1400069f5: xor byte [rcx+0x5E], al ; ret ; \x30\x41\x5e\xc3 (1 found)
0x140006c01: xor byte [rcx+0x5E], al ; ret ; \x30\x41\x5e\xc3 (1 found)
0x140006e0d: xor byte [rcx+0x5E], al ; ret ; \x30\x41\x5e\xc3 (1 found)
0x140007019: xor byte [rcx+0x5E], al ; ret ; \x30\x41\x5e\xc3 (1 found)
0x140007225: xor byte [rcx+0x5E], al ; ret ; \x30\x41\x5e\xc3 (1 found)
0x140007431: xor byte [rcx+0x5E], al ; ret ; \x30\x41\x5e\xc3 (1 found)
0x14000763d: xor byte [rcx+0x5E], al ; ret ; \x30\x41\x5e\xc3 (1 found)
0x140008921: xor byte [rcx+0x5E], al ; ret ; \x30\x41\x5e\xc3 (1 found)
0x140008bf3: xor byte [rcx+0x5E], al ; ret ; \x30\x41\x5e\xc3 (1 found)
0x140008eca: xor byte [rcx+0x5E], al ; ret ; \x30\x41\x5e\xc3 (1 found)
0x14000be62: xor byte [rcx+0x5E], al ; ret ; \x30\x41\x5e\xc3 (1 found)
0x14000fc28: xor byte [rcx+0x5E], al ; ret ; \x30\x41\x5e\xc3 (1 found)
0x1400148c8: xor byte [rcx+0x5E], al ; ret ; \x30\x41\x5e\xc3 (1 found)
0x140012a68: xor byte [rcx+0x5F], al ; pop r14 ; pop r12 ; pop rdi ; pop rsi ; ret ; \x30\x41\x5f\x41\x5e\x41\x5c\x5f\x5e\xc3 (1 found)
0x140014d6a: xor byte [rcx+0x5F], al ; pop r14 ; pop r12 ; ret ; \x30\x41\x5f\x41\x5e\x41\x5c\xc3 (1 found)
0x140015330: xor byte [rcx+0x5F], al ; pop r14 ; pop r13 ; pop r12 ; pop rbp ; ret ; \x30\x41\x5f\x41\x5e\x41\x5d\x41\x5c\x5d\xc3 (1 found)
0x1400136b4: xor byte [rcx+0x5F], al ; pop r14 ; pop r13 ; pop r12 ; pop rdi ; ret ; \x30\x41\x5f\x41\x5e\x41\x5d\x41\x5c\x5f\xc3 (1 found)
0x14001486c: xor byte [rcx+0x5F], al ; pop r14 ; pop r13 ; pop r12 ; pop rdi ; ret ; \x30\x41\x5f\x41\x5e\x41\x5d\x41\x5c\x5f\xc3 (1 found)
0x1400178a7: xor byte [rcx+0x5F], al ; pop r14 ; pop r13 ; pop r12 ; pop rdi ; ret ; \x30\x41\x5f\x41\x5e\x41\x5d\x41\x5c\x5f\xc3 (1 found)
0x140011a63: xor byte [rcx+0x5F], al ; pop r14 ; pop r13 ; pop r12 ; pop rsi ; ret ; \x30\x41\x5f\x41\x5e\x41\x5d\x41\x5c\x5e\xc3 (1 found)
0x140017e94: xor byte [rcx+0x5F], al ; pop r14 ; pop r13 ; pop r12 ; pop rsi ; ret ; \x30\x41\x5f\x41\x5e\x41\x5d\x41\x5c\x5e\xc3 (1 found)
0x140003fb2: xor byte [rcx+0x5F], al ; pop r14 ; pop r13 ; ret ; \x30\x41\x5f\x41\x5e\x41\x5d\xc3 (1 found)
0x14000f01c: xor byte [rcx+0x5F], al ; pop r14 ; pop r13 ; ret ; \x30\x41\x5f\x41\x5e\x41\x5d\xc3 (1 found)
0x14000d355: xor byte [rcx+0x5F], al ; pop r14 ; pop rdi ; pop rsi ; pop rbp ; ret ; \x30\x41\x5f\x41\x5e\x5f\x5e\x5d\xc3 (1 found)
0x14000d4d1: xor byte [rcx+0x5F], al ; pop r14 ; pop rdi ; ret ; \x30\x41\x5f\x41\x5e\x5f\xc3 (1 found)
0x1400186a0: xor byte [rcx+0x5F], al ; pop r14 ; pop rdi ; ret ; \x30\x41\x5f\x41\x5e\x5f\xc3 (1 found)
0x14000c932: xor byte [rcx+0x5F], al ; ret ; \x30\x41\x5f\xc3 (1 found)
0x140014ac0: xor byte [rcx+0x5F], al ; ret ; \x30\x41\x5f\xc3 (1 found)
0x14000b160: xor byte [rcx-0x75], al ; retn 0x8B48 ; \x30\x41\x8b\xc2\x48\x8b (1 found)
0x14000b1d4: xor byte [rcx-0x75], al ; retn 0x8B48 ; \x30\x41\x8b\xc2\x48\x8b (1 found)
0x14000b248: xor byte [rcx-0x75], al ; retn 0x8B48 ; \x30\x41\x8b\xc2\x48\x8b (1 found)
0x14000ccfb: xor byte [rcx-0x75], al ; retn 0x8B48 ; \x30\x41\x8b\xc2\x48\x8b (1 found)
0x1400116b0: xor byte [rcx], al ; add al, 0x3B ; ret ; \x30\x01\x47\x04\x3b\xc3 (1 found)
0x1400117cb: xor byte [rcx], al ; add al, 0x3B ; ret ; \x30\x01\x47\x04\x3b\xc3 (1 found)
0x14000e772: xor byte [rcx], al ; add rsp, 0x20 ; pop rbx ; ret ; \x30\x01\x48\x83\xc4\x20\x5b\xc3 (1 found)
0x140019ea1: xor byte [rcx], al ; mov  [rdx+0x2C], 0x0000002A ; ret ; \x42\x30\x01\xc7\x42\x2c\x2a\x00\x00\x00\xc3 (1 found)
0x140019ea2: xor byte [rcx], al ; mov  [rdx+0x2C], 0x0000002A ; ret ; \x30\x01\xc7\x42\x2c\x2a\x00\x00\x00\xc3 (1 found)
0x14000e2ce: xor byte [rcx], al ; setne bl ; mov eax, ebx ; add rsp, 0x20 ; pop rbx ; ret ; \x30\x01\x0f\x95\xc3\x8b\xc3\x48\x83\xc4\x20\x5b\xc3 (1 found)
0x140015c09: xor byte [rdi+0x1F], cl ; pushfq ; mov ecx,  [rbx-0x3474EFB0] ; mov rax, rsi ; mov r8, qword [0x000000014001D308] ; call r8 ; \x30\x4f\x1f\x9c\x8b\x8b\x50\x10\x8b\xcb\x48\x8b\xc6\x4c\x8b\x05\xeb\x76\x00\x00\x41\xff\xd0 (1 found)
0x14000104f: xor byte [rdi+0x5E], bl ; pop rbx ; ret ; \x30\x5f\x5e\x5b\xc3 (1 found)
0x14000d9c7: xor byte [rdi-0x3D], bl ; int3 ; int3 ; mov eax, 0x00000001 ; xchg  [0x000000014002B520], eax ; ret ; \x30\x5f\xc3\xcc\xcc\xb8\x01\x00\x00\x00\x87\x05\x49\xdb\x01\x00\xc3 (1 found)
0x140002948: xor cl, byte [rax-0x75] ; and byte [r10], r12L ; retn 0xC23A ; \x32\x48\x8b\x45\x20\x22\xc2\x3a\xc2 (1 found)
0x140015853: xor cl, byte [rax-0x7D] ; ret ; \x32\x48\x83\xc3 (1 found)
0x140015667: xor eax, 0x48FFFFFF ; add esp, 0x28 ; ret ; \x35\xff\xff\xff\x48\x83\xc4\x28\xc3 (1 found)
0x14000f477: xor eax, 0x7DF83B44 ; or al, 0x8A ; add ecx,  [rax-0x01] ; ret ; \x35\x44\x3b\xf8\x7d\x0c\x8a\x03\x48\xff\xc3 (1 found)
0x14001aaa8: xor eax, eax ; add rsp, 0x10 ; pop rbx ; ret ; \x33\xc0\x48\x83\xc4\x10\x5b\xc3 (1 found)
0x140004fc3: xor eax, eax ; add rsp, 0x20 ; pop rbx ; ret ; \x33\xc0\x48\x83\xc4\x20\x5b\xc3 (1 found)
0x14000d1d1: xor eax, eax ; add rsp, 0x20 ; pop rbx ; ret ; \x33\xc0\x48\x83\xc4\x20\x5b\xc3 (1 found)
0x14000e84e: xor eax, eax ; add rsp, 0x20 ; pop rbx ; ret ; \x33\xc0\x48\x83\xc4\x20\x5b\xc3 (1 found)
0x14001091d: xor eax, eax ; add rsp, 0x20 ; pop rbx ; ret ; \x33\xc0\x48\x83\xc4\x20\x5b\xc3 (1 found)
0x14001944f: xor eax, eax ; add rsp, 0x20 ; pop rbx ; ret ; \x33\xc0\x48\x83\xc4\x20\x5b\xc3 (1 found)
0x140019470: xor eax, eax ; add rsp, 0x20 ; pop rbx ; ret ; \x33\xc0\x48\x83\xc4\x20\x5b\xc3 (1 found)
0x1400026a5: xor eax, eax ; add rsp, 0x20 ; pop rdi ; ret ; \x33\xc0\x48\x83\xc4\x20\x5f\xc3 (1 found)
0x14000313a: xor eax, eax ; add rsp, 0x20 ; pop rdi ; ret ; \x33\xc0\x48\x83\xc4\x20\x5f\xc3 (1 found)
0x14000cc7e: xor eax, eax ; add rsp, 0x20 ; pop rdi ; ret ; \x33\xc0\x48\x83\xc4\x20\x5f\xc3 (1 found)
0x140001e11: xor eax, eax ; add rsp, 0x28 ; ret ; \x33\xc0\x48\x83\xc4\x28\xc3 (1 found)
0x14000d7f5: xor eax, eax ; add rsp, 0x28 ; ret ; \x33\xc0\x48\x83\xc4\x28\xc3 (1 found)
0x140017d14: xor eax, eax ; add rsp, 0x28 ; ret ; \x33\xc0\x48\x83\xc4\x28\xc3 (1 found)
0x14000248c: xor eax, eax ; cmp  [0x000000014002A04C], eax ; sete al ; ret ; \x33\xc0\x39\x05\xb8\x7b\x02\x00\x0f\x94\xc0\xc3 (1 found)
0x140002a10: xor eax, eax ; cmp  [0x0000000140046C48], eax ; setne al ; ret ; \x33\xc0\x39\x05\x30\x42\x04\x00\x0f\x95\xc0\xc3 (1 found)
0x14001325d: xor eax, eax ; cmp rcx, rdx ; setnbe al ; ret ; \x33\xc0\x48\x3b\xca\x0f\x97\xc0\xc3 (1 found)
0x14001b0b9: xor eax, eax ; mov ecx, 0x0000020B ; cmp word [rdx+0x18], cx ; sete al ; ret ; \x33\xc0\xb9\x0b\x02\x00\x00\x66\x39\x4a\x18\x0f\x94\xc0\xc3 (1 found)
0x140002c73: xor eax, eax ; mov rbx, qword [rsp+0x08] ; mov rdi, qword [rsp+0x10] ; ret ; \x33\xc0\x48\x8b\x5c\x24\x08\x48\x8b\x7c\x24\x10\xc3 (1 found)
0x14000d7be: xor eax, eax ; mov rbx, qword [rsp+0x30] ; add rsp, 0x20 ; pop rdi ; ret ; \x33\xc0\x48\x8b\x5c\x24\x30\x48\x83\xc4\x20\x5f\xc3 (1 found)
0x140015738: xor eax, eax ; mov rbx, qword [rsp+0x30] ; add rsp, 0x20 ; pop rdi ; ret ; \x33\xc0\x48\x8b\x5c\x24\x30\x48\x83\xc4\x20\x5f\xc3 (1 found)
0x1400193b4: xor eax, eax ; mov rbx, qword [rsp+0x30] ; add rsp, 0x20 ; pop rdi ; ret ; \x33\xc0\x48\x8b\x5c\x24\x30\x48\x83\xc4\x20\x5f\xc3 (1 found)
0x14001b090: xor eax, eax ; mov rbx, qword [rsp+0x30] ; add rsp, 0x20 ; pop rdi ; ret ; \x33\xc0\x48\x8b\x5c\x24\x30\x48\x83\xc4\x20\x5f\xc3 (1 found)
0x14000ca7d: xor eax, eax ; mov rbx, qword [rsp+0x30] ; mov rsi, qword [rsp+0x38] ; add rsp, 0x20 ; pop rdi ; ret ; \x33\xc0\x48\x8b\x5c\x24\x30\x48\x8b\x74\x24\x38\x48\x83\xc4\x20\x5f\xc3 (1 found)
0x1400125cf: xor eax, eax ; mov rbx, qword [rsp+0x30] ; mov rsi, qword [rsp+0x38] ; add rsp, 0x20 ; pop rdi ; ret ; \x33\xc0\x48\x8b\x5c\x24\x30\x48\x8b\x74\x24\x38\x48\x83\xc4\x20\x5f\xc3 (1 found)
0x14000c157: xor eax, eax ; mov rbx, qword [rsp+0x38] ; add rsp, 0x20 ; pop rdi ; ret ; \x33\xc0\x48\x8b\x5c\x24\x38\x48\x83\xc4\x20\x5f\xc3 (1 found)
0x140018973: xor eax, eax ; mov rbx, qword [rsp+0x38] ; mov rbp, qword [rsp+0x40] ; add rsp, 0x20 ; pop rdi ; ret ; \x33\xc0\x48\x8b\x5c\x24\x38\x48\x8b\x6c\x24\x40\x48\x83\xc4\x20\x5f\xc3 (1 found)
0x14000fc5b: xor eax, eax ; or rcx, 0x01 ; cmp qword [0x000000014002B7A8], rcx ; sete al ; ret ; \x33\xc0\x48\x83\xc9\x01\x48\x39\x0d\x40\xbb\x01\x00\x0f\x94\xc0\xc3 (1 found)
0x14000242c: xor eax, eax ; ret ; \x33\xc0\xc3 (1 found)
0x140002438: xor eax, eax ; ret ; \x33\xc0\xc3 (1 found)
0x140002444: xor eax, eax ; ret ; \x33\xc0\xc3 (1 found)
0x140002448: xor eax, eax ; ret ; \x33\xc0\xc3 (1 found)
0x140002600: xor eax, eax ; ret ; \x33\xc0\xc3 (1 found)
0x140002668: xor eax, eax ; ret ; \x33\xc0\xc3 (1 found)
0x140002a91: xor eax, eax ; ret ; \x33\xc0\xc3 (1 found)
0x140003025: xor eax, eax ; ret ; \xf2\x33\xc0\xc3 (1 found)
0x140003026: xor eax, eax ; ret ; \x33\xc0\xc3 (1 found)
0x14000cc8d: xor eax, eax ; ret ; \x33\xc0\xc3 (1 found)
0x14000cf95: xor eax, eax ; ret ; \x33\xc0\xc3 (1 found)
0x14000de70: xor eax, eax ; ret ; \x33\xc0\xc3 (1 found)
0x14000e1b2: xor eax, eax ; ret ; \x33\xc0\xc3 (1 found)
0x140014ebe: xor eax, eax ; ret ; \x33\xc0\xc3 (1 found)
0x1400151a9: xor eax, eax ; ret ; \x33\xc0\xc3 (1 found)
0x14001819b: xor eax, eax ; ret ; \x33\xc0\xc3 (1 found)
0x14001b041: xor eax, eax ; ret ; \x33\xc0\xc3 (1 found)
0x14001b0c8: xor eax, eax ; ret ; \x33\xc0\xc3 (1 found)
0x14000cfcb: xor ecx, eax ; mov qword [0x000000014002B2B0], r9 ; ret ; \x33\xc8\x4c\x89\x0d\xdc\xe2\x01\x00\xc3 (1 found)
0x14001bed6: xor ecx, ecx ; cmp  [rax], 0xC0000005 ; sete cl ; mov eax, ecx ; pop rbp ; ret ; \x33\xc9\x81\x38\x05\x00\x00\xc0\x0f\x94\xc1\x8b\xc1\x5d\xc3 (1 found)
0x1400191ed: xor ecx, ecx ; test al, al ; sete cl ; mov eax, ecx ; add rsp, 0x28 ; ret ; \x33\xc9\x84\xc0\x0f\x94\xc1\x8b\xc1\x48\x83\xc4\x28\xc3 (1 found)
0x14000cf5d: xor edx, eax ; and ecx, 0x3F ; ror rdx, cl ; test rdx, rdx ; setne al ; ret ; \x33\xd0\x83\xe1\x3f\x48\xd3\xca\x48\x85\xd2\x0f\x95\xc0\xc3 (1 found)
0x140005872: xor edx, eax ; mov qword [0x000000014002B288], rdx ; add rsp, 0x28 ; ret ; \x33\xd0\x48\x89\x15\x0d\x5a\x02\x00\x48\x83\xc4\x28\xc3 (1 found)
0x14000cfca: xor r9, r8 ; mov qword [0x000000014002B2B0], r9 ; ret ; \x4d\x33\xc8\x4c\x89\x0d\xdc\xe2\x01\x00\xc3 (1 found)
0x140005871: xor rdx, r8 ; mov qword [0x000000014002B288], rdx ; add rsp, 0x28 ; ret ; \x49\x33\xd0\x48\x89\x15\x0d\x5a\x02\x00\x48\x83\xc4\x28\xc3 (1 found)
0x14000cf5c: xor rdx, rax ; and ecx, 0x3F ; ror rdx, cl ; test rdx, rdx ; setne al ; ret ; \x48\x33\xd0\x83\xe1\x3f\x48\xd3\xca\x48\x85\xd2\x0f\x95\xc0\xc3 (1 found)
